
Lab2_CLI.elf:     file format elf32-littlenios2
Lab2_CLI.elf
architecture: nios2:r1, flags 0x00000112:
EXEC_P, HAS_SYMS, D_PAGED
start address 0x00800244

Program Header:
    LOAD off    0x00001000 vaddr 0x00800000 paddr 0x00800000 align 2**12
         filesz 0x00000020 memsz 0x00000020 flags r-x
    LOAD off    0x00001020 vaddr 0x00800020 paddr 0x00800020 align 2**12
         filesz 0x00011b0c memsz 0x00011b0c flags r-x
    LOAD off    0x00012b2c vaddr 0x00811b2c paddr 0x008137ec align 2**12
         filesz 0x00001cc0 memsz 0x00001cc0 flags rw-
    LOAD off    0x000154ac vaddr 0x008154ac paddr 0x008154ac align 2**12
         filesz 0x00000000 memsz 0x00000b40 flags rw-

Sections:
Idx Name          Size      VMA       LMA       File off  Algn
  0 .entry        00000020  00800000  00800000  00001000  2**5
                  CONTENTS, ALLOC, LOAD, READONLY, CODE
  1 .exceptions   00000224  00800020  00800020  00001020  2**2
                  CONTENTS, ALLOC, LOAD, READONLY, CODE
  2 .text         00010e8c  00800244  00800244  00001244  2**2
                  CONTENTS, ALLOC, LOAD, READONLY, CODE
  3 .rodata       00000a5c  008110d0  008110d0  000120d0  2**2
                  CONTENTS, ALLOC, LOAD, READONLY, DATA
  4 .rwdata       00001cc0  00811b2c  008137ec  00012b2c  2**2
                  CONTENTS, ALLOC, LOAD, DATA, SMALL_DATA
  5 .bss          00000b40  008154ac  008154ac  000154ac  2**2
                  ALLOC, SMALL_DATA
  6 .sdram_0      00000000  00815fec  00815fec  000147ec  2**0
                  CONTENTS
  7 .comment      00000023  00000000  00000000  000147ec  2**0
                  CONTENTS, READONLY
  8 .debug_aranges 00000cb0  00000000  00000000  00014810  2**3
                  CONTENTS, READONLY, DEBUGGING
  9 .debug_info   0001e20c  00000000  00000000  000154c0  2**0
                  CONTENTS, READONLY, DEBUGGING
 10 .debug_abbrev 00007c60  00000000  00000000  000336cc  2**0
                  CONTENTS, READONLY, DEBUGGING
 11 .debug_line   00009b5b  00000000  00000000  0003b32c  2**0
                  CONTENTS, READONLY, DEBUGGING
 12 .debug_frame  000029dc  00000000  00000000  00044e88  2**2
                  CONTENTS, READONLY, DEBUGGING
 13 .debug_str    0000386e  00000000  00000000  00047864  2**0
                  CONTENTS, READONLY, DEBUGGING
 14 .debug_loc    0000371b  00000000  00000000  0004b0d2  2**0
                  CONTENTS, READONLY, DEBUGGING
 15 .debug_alt_sim_info 00000060  00000000  00000000  0004e7f0  2**2
                  CONTENTS, READONLY, DEBUGGING
 16 .debug_ranges 00000570  00000000  00000000  0004e850  2**3
                  CONTENTS, READONLY, DEBUGGING
 17 .thread_model 00000003  00000000  00000000  0005293d  2**0
                  CONTENTS, READONLY
 18 .cpu          0000000c  00000000  00000000  00052940  2**0
                  CONTENTS, READONLY
 19 .qsys         00000001  00000000  00000000  0005294c  2**0
                  CONTENTS, READONLY
 20 .simulation_enabled 00000001  00000000  00000000  0005294d  2**0
                  CONTENTS, READONLY
 21 .sysid_hash   00000004  00000000  00000000  0005294e  2**0
                  CONTENTS, READONLY
 22 .sysid_base   00000004  00000000  00000000  00052952  2**0
                  CONTENTS, READONLY
 23 .sysid_time   00000004  00000000  00000000  00052956  2**0
                  CONTENTS, READONLY
 24 .stderr_dev   0000000b  00000000  00000000  0005295a  2**0
                  CONTENTS, READONLY
 25 .stdin_dev    0000000b  00000000  00000000  00052965  2**0
                  CONTENTS, READONLY
 26 .stdout_dev   0000000b  00000000  00000000  00052970  2**0
                  CONTENTS, READONLY
 27 .sopc_system_name 00000003  00000000  00000000  0005297b  2**0
                  CONTENTS, READONLY
 28 .quartus_project_dir 00000023  00000000  00000000  0005297e  2**0
                  CONTENTS, READONLY
 29 .jdi          00004de9  00000000  00000000  000529a1  2**0
                  CONTENTS, READONLY
 30 .sopcinfo     0008ff79  00000000  00000000  0005778a  2**0
                  CONTENTS, READONLY
SYMBOL TABLE:
00800000 l    d  .entry	00000000 .entry
00800020 l    d  .exceptions	00000000 .exceptions
00800244 l    d  .text	00000000 .text
008110d0 l    d  .rodata	00000000 .rodata
00811b2c l    d  .rwdata	00000000 .rwdata
008154ac l    d  .bss	00000000 .bss
00815fec l    d  .sdram_0	00000000 .sdram_0
00000000 l    d  .comment	00000000 .comment
00000000 l    d  .debug_aranges	00000000 .debug_aranges
00000000 l    d  .debug_info	00000000 .debug_info
00000000 l    d  .debug_abbrev	00000000 .debug_abbrev
00000000 l    d  .debug_line	00000000 .debug_line
00000000 l    d  .debug_frame	00000000 .debug_frame
00000000 l    d  .debug_str	00000000 .debug_str
00000000 l    d  .debug_loc	00000000 .debug_loc
00000000 l    d  .debug_alt_sim_info	00000000 .debug_alt_sim_info
00000000 l    d  .debug_ranges	00000000 .debug_ranges
00000000 l    df *ABS*	00000000 ../Lab2_CLI_bsp//obj/HAL/src/crt0.o
0080028c l       .text	00000000 alt_after_alt_main
00000000 l    df *ABS*	00000000 alt_irq_handler.c
00000000 l    df *ABS*	00000000 alt_instruction_exception_entry.c
00000000 l    df *ABS*	00000000 fatfs.c
00000000 l    df *ABS*	00000000 fatfs_diskio.c
008137a4 l     O .rwdata	00000001 Stat
008154ac l     O .bss	00000001 CardType
008154ae l     O .bss	00000002 Timer1
008154b0 l     O .bss	00000002 Timer2
008154b2 l     O .bss	00000001 XMITDummy
008154b4 l     O .bss	00000004 Control1
008002b4 l     F .text	0000004c SetLowSpeed
00800300 l     F .text	0000006c SetHighSpeed
0080036c l     F .text	00000044 InitDiskIOHardware
008003b0 l     F .text	0000003c Set8BitTransfer
008003ec l     F .text	00000038 Set32BitTransfer
00800424 l     F .text	00000050 ReceiveU8
00800474 l     F .text	0000012c ReceiveDatablock
008005a0 l     F .text	00000188 TransmitDatablock
0080074c l     F .text	00000054 WaitReady
00800728 l     F .text	00000024 GetCDWP
008007a0 l     F .text	00000044 ReleaseBus
008007e4 l     F .text	00000250 SendCMD
008154b8 l     O .bss	00000004 pvm.1830
00000000 l    df *ABS*	00000000 fatfs_nios2_de0_nano_spi.c
00000000 l    df *ABS*	00000000 fatfs_nios2_de1_pio.c
00000000 l    df *ABS*	00000000 fatfs_nios2_de1_spi.c
00000000 l    df *ABS*	00000000 ff.c
008154bc l     O .bss	00000004 FatFs
008154c0 l     O .bss	00000002 Fsid
00801548 l     F .text	0000006c mem_cpy
008015b4 l     F .text	00000058 mem_set
0080160c l     F .text	0000008c mem_cmp
00801698 l     F .text	0000007c chk_chr
00801714 l     F .text	0000015c move_window
00801870 l     F .text	0000021c sync
008020ec l     F .text	00000114 remove_chain
00802200 l     F .text	000001e4 create_chain
008023e4 l     F .text	000001ec dir_sdi
008025d0 l     F .text	000002e8 dir_next
008028b8 l     F .text	000000f4 dir_find
008029ac l     F .text	000000fc dir_read
00802aa8 l     F .text	00000120 dir_register
00802bc8 l     F .text	00000098 dir_remove
00802c60 l     F .text	000002ec create_name
00811114 l     O .rodata	00000080 excvt.1856
00802f4c l     F .text	00000230 get_fileinfo
0080317c l     F .text	000001d0 follow_path
0080334c l     F .text	00000174 check_fs
008034c0 l     F .text	0000093c chk_mounted
00803dfc l     F .text	00000090 validate
00811194 l     O .rodata	00000016 vst.2095
008111aa l     O .rodata	00000016 cst.2096
00000000 l    df *ABS*	00000000 hello_world.c
00815500 l     O .bss	00000018 alarm
008154c4 l     O .bss	00000004 Systick
008154c8 l     O .bss	00000002 Timer
00807ff4 l     F .text	00000068 TimerFunction
008154ca l     O .bss	00000002 wTimer10ms.3438
0080805c l     F .text	00000050 IoInit
008080ac l     F .text	00000140 scan_files
008081ec l     F .text	000000a4 put_rc
00808290 l     F .text	00000030 display_help
008137a5 l     O .rwdata	00000004 ft.3493
00000000 l    df *ABS*	00000000 monitor.c
00000000 l    df *ABS*	00000000 uart_nios2.c
00000000 l    df *ABS*	00000000 lib2-divmod.c
00809fc8 l     F .text	0000006c udivmodsi4
00000000 l    df *ABS*	00000000 getc.c
00000000 l    df *ABS*	00000000 impure.c
00811b2c l     O .rwdata	00000424 impure_data
00000000 l    df *ABS*	00000000 memset.c
00000000 l    df *ABS*	00000000 putchar.c
00000000 l    df *ABS*	00000000 rget.c
00000000 l    df *ABS*	00000000 strcpy.c
00000000 l    df *ABS*	00000000 strlen.c
00000000 l    df *ABS*	00000000 findfp.c
0080a4e0 l     F .text	00000008 __fp_lock
0080a4e8 l     F .text	00000008 __fp_unlock
0080a4fc l     F .text	0000019c __sinit.part.1
00000000 l    df *ABS*	00000000 fwalk.c
00000000 l    df *ABS*	00000000 mallocr.c
00000000 l    df *ABS*	00000000 putc.c
00000000 l    df *ABS*	00000000 refill.c
0080b31c l     F .text	0000001c lflush
00000000 l    df *ABS*	00000000 sbrkr.c
00000000 l    df *ABS*	00000000 stdio.c
00000000 l    df *ABS*	00000000 wbuf.c
00000000 l    df *ABS*	00000000 writer.c
00000000 l    df *ABS*	00000000 wsetup.c
00000000 l    df *ABS*	00000000 closer.c
00000000 l    df *ABS*	00000000 fclose.c
00000000 l    df *ABS*	00000000 fflush.c
00000000 l    df *ABS*	00000000 mallocr.c
00000000 l    df *ABS*	00000000 int_errno.c
00000000 l    df *ABS*	00000000 lseekr.c
00000000 l    df *ABS*	00000000 makebuf.c
00000000 l    df *ABS*	00000000 readr.c
00000000 l    df *ABS*	00000000 fstatr.c
00000000 l    df *ABS*	00000000 isattyr.c
00000000 l    df *ABS*	00000000 alt_alarm_start.c
00000000 l    df *ABS*	00000000 alt_close.c
0080c5fc l     F .text	00000050 alt_get_errno
00000000 l    df *ABS*	00000000 alt_dev.c
0080c71c l     F .text	0000002c alt_dev_null_write
00000000 l    df *ABS*	00000000 alt_errno.c
00000000 l    df *ABS*	00000000 alt_fstat.c
0080c748 l     F .text	00000050 alt_get_errno
00000000 l    df *ABS*	00000000 alt_isatty.c
0080c848 l     F .text	00000050 alt_get_errno
00000000 l    df *ABS*	00000000 alt_load.c
0080c93c l     F .text	00000064 alt_load_section
00000000 l    df *ABS*	00000000 alt_lseek.c
0080ca20 l     F .text	00000050 alt_get_errno
00000000 l    df *ABS*	00000000 alt_main.c
00000000 l    df *ABS*	00000000 alt_malloc_lock.c
00000000 l    df *ABS*	00000000 alt_printf.c
00000000 l    df *ABS*	00000000 alt_putchar.c
00000000 l    df *ABS*	00000000 alt_read.c
0080ce68 l     F .text	00000050 alt_get_errno
00000000 l    df *ABS*	00000000 alt_release_fd.c
00000000 l    df *ABS*	00000000 alt_sbrk.c
008137d4 l     O .rwdata	00000004 heap_end
00000000 l    df *ABS*	00000000 alt_tick.c
00000000 l    df *ABS*	00000000 alt_write.c
0080d260 l     F .text	00000050 alt_get_errno
00000000 l    df *ABS*	00000000 alt_sys_init.c
0080d3a8 l     F .text	00000038 alt_dev_reg
00812500 l     O .rwdata	00001060 jtag_uart_0
00813560 l     O .rwdata	00000120 lcd_display
00813680 l     O .rwdata	000000c4 uart
00813744 l     O .rwdata	00000030 audio_i2c_config
00813774 l     O .rwdata	00000030 Audio
00000000 l    df *ABS*	00000000 altera_avalon_jtag_uart_fd.c
00000000 l    df *ABS*	00000000 altera_avalon_jtag_uart_init.c
0080d6e0 l     F .text	00000208 altera_avalon_jtag_uart_irq
0080d8e8 l     F .text	000000a8 altera_avalon_jtag_uart_timeout
00000000 l    df *ABS*	00000000 altera_avalon_jtag_uart_ioctl.c
00000000 l    df *ABS*	00000000 altera_avalon_jtag_uart_read.c
00000000 l    df *ABS*	00000000 altera_avalon_jtag_uart_write.c
00000000 l    df *ABS*	00000000 altera_avalon_lcd_16207.c
008137e0 l     O .rwdata	00000004 colstart
0080df08 l     F .text	000000b4 lcd_write_command
0080dfbc l     F .text	000000d4 lcd_write_data
0080e090 l     F .text	000000cc lcd_clear_screen
0080e15c l     F .text	000001e8 lcd_repaint_screen
0080e344 l     F .text	000000c8 lcd_scroll_up
0080e40c l     F .text	000002a0 lcd_handle_escape
0080eb94 l     F .text	000000ac alt_lcd_16207_timeout
00000000 l    df *ABS*	00000000 altera_avalon_lcd_16207_fd.c
00000000 l    df *ABS*	00000000 altera_avalon_timer_sc.c
0080edd8 l     F .text	00000078 alt_avalon_timer_sc_irq
00000000 l    df *ABS*	00000000 altera_avalon_uart_fd.c
00000000 l    df *ABS*	00000000 altera_avalon_uart_init.c
0080f080 l     F .text	0000009c altera_avalon_uart_irq
0080f11c l     F .text	000000e0 altera_avalon_uart_rxirq
0080f1fc l     F .text	00000144 altera_avalon_uart_txirq
00000000 l    df *ABS*	00000000 altera_avalon_uart_read.c
0080f394 l     F .text	00000050 alt_get_errno
00000000 l    df *ABS*	00000000 altera_avalon_uart_write.c
0080f5c0 l     F .text	00000050 alt_get_errno
00000000 l    df *ABS*	00000000 altera_up_avalon_audio.c
00000000 l    df *ABS*	00000000 alt_dcache_flush_all.c
00000000 l    df *ABS*	00000000 alt_dev_llist_insert.c
0080ff94 l     F .text	00000050 alt_get_errno
00000000 l    df *ABS*	00000000 alt_do_ctors.c
00000000 l    df *ABS*	00000000 alt_do_dtors.c
00000000 l    df *ABS*	00000000 alt_find_dev.c
00000000 l    df *ABS*	00000000 alt_icache_flush_all.c
00000000 l    df *ABS*	00000000 alt_io_redirect.c
00810200 l     F .text	000000c0 alt_open_fd
00000000 l    df *ABS*	00000000 alt_irq_register.c
00000000 l    df *ABS*	00000000 alt_irq_vars.c
00000000 l    df *ABS*	00000000 alt_open.c
008104e8 l     F .text	00000050 alt_get_errno
00810538 l     F .text	000000cc alt_file_locked
00000000 l    df *ABS*	00000000 alt_usleep.c
00000000 l    df *ABS*	00000000 altera_nios2_gen2_irq.c
00000000 l    df *ABS*	00000000 alt_busy_sleep.c
00000000 l    df *ABS*	00000000 alt_find_file.c
00000000 l    df *ABS*	00000000 alt_get_fd.c
00000000 l    df *ABS*	00000000 alt_icache_flush.c
00000000 l    df *ABS*	00000000 atexit.c
00000000 l    df *ABS*	00000000 ctype_.c
008119a9 l     O .rodata	00000180 _ctype_b
00000000 l    df *ABS*	00000000 exit.c
00000000 l    df *ABS*	00000000 memcmp.c
00000000 l    df *ABS*	00000000 memcpy.c
00000000 l    df *ABS*	00000000 __atexit.c
00000000 l    df *ABS*	00000000 __call_atexit.c
00000000 l    df *ABS*	00000000 alt_exit.c
008154fc g     O .bss	00000004 alt_instruction_exception_handler
0080a318 g     F .text	00000018 putchar
0080c468 g     F .text	00000054 _isatty_r
008077c8 g     F .text	000000d0 f_gets
0080cb44 g     F .text	00000078 alt_main
0080a3b8 g     F .text	00000090 strcpy
00815540 g     O .bss	00000230 Fatfs
00815eec g     O .bss	00000100 alt_irq
0080c1a0 g     F .text	0000005c _lseek_r
00801af8 g     F .text	00000284 get_fat
008137ec g       *ABS*	00000000 __flash_rwdata_start
0080fa54 g     F .text	00000060 alt_up_audio_read_fifo_avail
00815fec g       *ABS*	00000000 __alt_heap_start
00809f38 g     F .text	00000038 uart0_put
008079a4 g     F .text	00000650 f_printf
0080fab4 g     F .text	00000068 alt_up_audio_record_r
0080b638 g     F .text	0000005c __sseek
0080a830 g     F .text	00000010 __sinit
0080b69c g     F .text	00000138 __swbuf_r
0080a698 g     F .text	00000068 __sfmoreglue
0080cbdc g     F .text	00000020 __malloc_unlock
00815770 g     O .bss	00000224 File1
0080f9c4 g     F .text	00000090 alt_up_audio_reset_audio_core
0080a818 g     F .text	00000018 _cleanup
0081078c g     F .text	00000020 altera_nios2_gen2_irq_init
00000000  w      *UND*	00000000 __errno
00800000 g     F .entry	0000001c __reset
00800020 g       *ABS*	00000000 __flash_exceptions_start
0080c410 g     F .text	00000058 _fstat_r
008154e0 g     O .bss	00000004 errno
0080a3a4 g     F .text	00000014 __srget
0080b5b4 g     F .text	00000008 __seofread
00800f08 g     F .text	0000016c ffs_DiskIOWrite
0080f984 g     F .text	00000040 alt_up_audio_write_interrupt_pending
008154e8 g     O .bss	00000004 alt_argv
0081b7a4 g       *ABS*	00000000 _gp
0081075c g     F .text	00000030 usleep
00812380 g     O .rwdata	00000180 alt_fd_list
00815994 g     O .bss	00000018 Finfo
0080a0f4 g     F .text	00000070 _getc_r
0080a164 g     F .text	00000088 getc
0080a310 g     F .text	00000008 _putchar_r
00801074 g     F .text	000004a8 ffs_DiskIOIoctl
00810140 g     F .text	00000090 alt_find_dev
00810cbc g     F .text	00000138 memcpy
0080a4f0 g     F .text	0000000c _cleanup_r
008102c0 g     F .text	00000078 alt_io_redirect
008110d0 g       *ABS*	00000000 __DTOR_END__
00810b58 g     F .text	0000009c alt_exception_cause_generated_bad_addr
008065f8 g     F .text	00000314 f_rename
0080fe9c g     F .text	00000050 alt_up_audio_read_fifo_head
0080dae4 g     F .text	0000020c altera_avalon_jtag_uart_read
00000000  w      *UND*	00000000 malloc
0080a0e4 g     F .text	00000008 .hidden __udivsi3
0080c898 g     F .text	000000a4 isatty
008154cc g     O .bss	00000002 acc_dirs
008098dc g     F .text	000001b8 xitoa
00810acc g     F .text	0000008c alt_icache_flush
008154dc g     O .bss	00000004 __malloc_top_pad
00805ba0 g     F .text	000001e8 f_truncate
008095a0 g     F .text	00000284 xatoi
0080b50c g     F .text	00000054 _sbrk_r
00809d40 g     F .text	0000011c put_dump
0080c3b4 g     F .text	0000005c _read_r
008137cc g     O .rwdata	00000004 alt_max_fd
0080feec g     F .text	00000064 alt_up_audio_write_fifo_head
0080b9f4 g     F .text	000000f0 _fclose_r
008154ce g     O .bss	00000002 acc_files
0080bd5c g     F .text	00000030 fflush
008154d8 g     O .bss	00000004 __malloc_max_sbrked_mem
00810338 g     F .text	000001b0 alt_irq_register
0080ca70 g     F .text	000000d4 lseek
008137ac g     O .rwdata	00000004 _global_impure_ptr
00815fec g       *ABS*	00000000 __bss_end
0080d15c g     F .text	00000104 alt_tick
0080efe0 g     F .text	000000a0 altera_avalon_uart_init
0080f7bc g     F .text	00000040 alt_up_audio_open_dev
0080a850 g     F .text	00000018 __fp_lock_all
00805d88 g     F .text	00000218 f_unlink
0080fbe4 g     F .text	00000068 alt_up_audio_play_r
0080d0c4 g     F .text	00000098 alt_alarm_stop
00809a94 g     F .text	000002ac xprintf
008154f8 g     O .bss	00000004 alt_irq_active
00809e5c g     F .text	000000bc get_line
008000fc g     F .exceptions	000000d4 alt_irq_handler
00812358 g     O .rwdata	00000028 alt_dev_null
00807898 g     F .text	00000074 f_putc
0080790c g     F .text	00000098 f_puts
0080ff50 g     F .text	00000044 alt_dcache_flush_all
008137ec g       *ABS*	00000000 __ram_rwdata_end
008137c4 g     O .rwdata	00000008 alt_dev_list
0080d2b0 g     F .text	000000f8 write
0080b1b0 g     F .text	000000a0 _putc_r
00811b2c g       *ABS*	00000000 __ram_rodata_end
0080c798 g     F .text	000000b0 fstat
0080a0ec g     F .text	00000008 .hidden __umodsi3
00815fec g       *ABS*	00000000 end
0080e6ac g     F .text	000004e8 altera_avalon_lcd_16207_write
0080f610 g     F .text	000001ac altera_avalon_uart_write
0080d628 g     F .text	000000b8 altera_avalon_jtag_uart_init
008001d0 g     F .exceptions	00000074 alt_instruction_exception_entry
008110d0 g       *ABS*	00000000 __CTOR_LIST__
01000000 g       *ABS*	00000000 __alt_stack_pointer
0080ee50 g     F .text	00000080 alt_avalon_timer_sc_init
0080ef30 g     F .text	00000060 altera_avalon_uart_write_fd
0080ef90 g     F .text	00000050 altera_avalon_uart_close_fd
0080dcf0 g     F .text	00000218 altera_avalon_jtag_uart_write
0080a840 g     F .text	00000004 __sfp_lock_acquire
0080beb0 g     F .text	000002f0 _free_r
0080cbfc g     F .text	00000228 alt_printf
00809874 g     F .text	00000068 xputs
00810f08 g     F .text	00000194 __call_exitprocs
0080a330 g     F .text	00000074 __srget_r
00809f18 g     F .text	00000020 uart0_init
008159ac g     O .bss	00000200 Buff
0080508c g     F .text	00000048 f_close
008137b4 g     O .rwdata	00000004 __malloc_sbrk_base
00800244 g     F .text	0000004c _start
008154f0 g     O .bss	00000004 _alt_tick_rate
0080fd94 g     F .text	00000108 alt_up_audio_write_fifo
008154f4 g     O .bss	00000004 _alt_nticks
0080ceb8 g     F .text	000000fc read
0080d414 g     F .text	000000b0 alt_sys_init
0080fcb4 g     F .text	000000e0 alt_up_audio_read_fifo
00810df4 g     F .text	00000114 __register_exitproc
008043a4 g     F .text	000004e4 f_read
0080f8f0 g     F .text	00000054 alt_up_audio_disable_write_interrupt
00805730 g     F .text	000000e4 f_readdir
0080d990 g     F .text	00000068 altera_avalon_jtag_uart_close
00811b2c g       *ABS*	00000000 __ram_rwdata_start
00800dec g     F .text	0000011c ffs_DiskIORead
008110d0 g       *ABS*	00000000 __ram_rodata_start
00815518 g     O .bss	00000028 __malloc_current_mallinfo
008063e0 g     F .text	00000104 f_chmod
00815bac g     O .bss	00000224 File2
0080d4c4 g     F .text	00000060 altera_avalon_jtag_uart_read_fd
00810a18 g     F .text	000000b4 alt_get_fd
00800a60 g     F .text	00000108 ffs_DiskIOTimerproc
008107ac g     F .text	00000158 alt_busy_sleep
0080b9a0 g     F .text	00000054 _close_r
0080f8a0 g     F .text	00000050 alt_up_audio_enable_write_interrupt
00800b68 g     F .text	0000025c ffs_DiskIOInitialize
00810c40 g     F .text	0000007c memcmp
0080d584 g     F .text	00000050 altera_avalon_jtag_uart_close_fd
00815fec g       *ABS*	00000000 __alt_stack_base
0080d5d4 g     F .text	00000054 altera_avalon_jtag_uart_ioctl_fd
0080b84c g     F .text	00000154 __swsetup_r
00815dd0 g     O .bss	0000001c Dir
0080f84c g     F .text	00000054 alt_up_audio_disable_read_interrupt
0080a700 g     F .text	00000118 __sfp
00811f50 g     O .rwdata	00000408 __malloc_av_
0080a84c g     F .text	00000004 __sinit_lock_release
0080b560 g     F .text	00000054 __sread
008154d0 g     O .bss	00000004 acc_size
0080151c g     F .text	0000002c get_fattime
00810904 g     F .text	00000114 alt_find_file
0080ffe4 g     F .text	000000a4 alt_dev_llist_insert
0080cbbc g     F .text	00000020 __malloc_lock
0080d014 g     F .text	000000b0 sbrk
0080bd00 g     F .text	0000005c _fflush_r
008154ac g       *ABS*	00000000 __bss_start
0080a1ec g     F .text	00000124 memset
008082c0 g     F .text	000012e0 main
0080fb84 g     F .text	00000060 alt_up_audio_write_fifo_space
008154ec g     O .bss	00000004 alt_envp
008154d4 g     O .bss	00000004 __malloc_max_total_mem
0080d524 g     F .text	00000060 altera_avalon_jtag_uart_write_fd
0080b7d4 g     F .text	0000001c __swbuf
00804e04 g     F .text	00000288 f_sync
0080ec40 g     F .text	00000138 altera_avalon_lcd_16207_init
0080b694 g     F .text	00000008 __sclose
01000000 g       *ABS*	00000000 __alt_heap_limit
0080bae4 g     F .text	00000014 fclose
0080aa08 g     F .text	000007a8 _malloc_r
00815dec g     O .bss	00000100 Line
0080690c g     F .text	00000ebc f_mkfs
008137d0 g     O .rwdata	00000004 alt_errno
00803e8c g     F .text	00000094 f_mount
0080a880 g     F .text	000000c4 _fwalk
008055c0 g     F .text	00000170 f_opendir
0080b250 g     F .text	000000cc putc
0080a034 g     F .text	00000054 .hidden __divsi3
0080bd8c g     F .text	00000124 _malloc_trim_r
008110d0 g       *ABS*	00000000 __CTOR_END__
008110d0 g       *ABS*	00000000 __flash_rodata_start
008110d0 g       *ABS*	00000000 __DTOR_LIST__
00801d7c g     F .text	00000370 put_fat
00809824 g     F .text	00000050 xputc
0080d3e0 g     F .text	00000034 alt_irq_init
0080cfb4 g     F .text	00000060 alt_release_fd
008050d4 g     F .text	000004ec f_lseek
00810bf4 g     F .text	00000014 atexit
0080b7f0 g     F .text	0000005c _write_r
008137b0 g     O .rwdata	00000004 _impure_ptr
008154e4 g     O .bss	00000004 alt_argc
0080baf8 g     F .text	00000208 __sflush_r
008100e4 g     F .text	0000005c _do_dtors
0080b338 g     F .text	000001d4 __srefill_r
00800000 g       *ABS*	00000000 __alt_mem_sdram_0
00800020 g       .exceptions	00000000 alt_irq_entry
00800dc4 g     F .text	00000028 ffs_DiskIOStatus
00805814 g     F .text	000000a0 f_stat
0080a868 g     F .text	00000018 __fp_unlock_all
0080ed78 g     F .text	00000060 altera_avalon_lcd_16207_write_fd
008137bc g     O .rwdata	00000008 alt_fs_list
0080fb1c g     F .text	00000068 alt_up_audio_record_l
00800020 g       *ABS*	00000000 __ram_exceptions_start
00801a8c g     F .text	0000006c clust2sect
008137ec g       *ABS*	00000000 _edata
008064e4 g     F .text	00000114 f_utime
0080eed0 g     F .text	00000060 altera_avalon_uart_read_fd
00815fec g       *ABS*	00000000 _end
00800244 g       *ABS*	00000000 __ram_exceptions_end
00804888 g     F .text	0000057c f_write
0080d9f8 g     F .text	000000ec altera_avalon_jtag_uart_ioctl
0080fc4c g     F .text	00000068 alt_up_audio_play_l
0080b5bc g     F .text	0000007c __swrite
008137b8 g     O .rwdata	00000004 __malloc_trim_threshold
00803f20 g     F .text	00000484 f_open
00810c08 g     F .text	00000038 exit
0080a944 g     F .text	000000c4 _fwalk_reent
0080a088 g     F .text	0000005c .hidden __modsi3
008137e8 g     O .rwdata	00000004 __ctype_ptr__
01000000 g       *ABS*	00000000 __alt_data_end
00800020 g     F .exceptions	00000000 alt_exception
0080a844 g     F .text	00000004 __sfp_lock_release
008118a8 g     O .rodata	00000101 _ctype_
00809f70 g     F .text	00000058 uart0_get
00805fa0 g     F .text	00000440 f_mkdir
0080f340 g     F .text	00000054 altera_avalon_uart_close
0081109c g     F .text	00000034 _exit
00800290 g     F .text	00000024 ffs_Init
0080c4bc g     F .text	00000140 alt_alarm_start
0080c1fc g     F .text	000001b8 __smakebuf_r
0080a448 g     F .text	00000098 strlen
00810604 g     F .text	00000158 open
0080ce24 g     F .text	00000044 alt_putchar
008101d0 g     F .text	00000030 alt_icache_flush_all
008058b4 g     F .text	000002ec f_getfree
008137e4 g     O .rwdata	00000004 alt_priority_mask
0080f3e4 g     F .text	000001dc altera_avalon_uart_read
00800a34 g     F .text	0000002c ffs_DiskIOInit
008137d8 g     O .rwdata	00000008 alt_alarm_list
00810088 g     F .text	0000005c _do_ctors
0080c64c g     F .text	000000d0 close
0080c9a0 g     F .text	00000080 alt_load
0080f7fc g     F .text	00000050 alt_up_audio_enable_read_interrupt
00000000  w      *UND*	00000000 free
0080a848 g     F .text	00000004 __sinit_lock_acquire
0080f944 g     F .text	00000040 alt_up_audio_read_interrupt_pending



Disassembly of section .entry:

00800000 <__reset>:
#if NIOS2_ICACHE_SIZE > 0 && defined(ALT_ALLOW_CODE_AT_RESET) && (!defined(ALT_SIM_OPTIMIZE) || defined(NIOS2_ECC_PRESENT))
    /* Assume the instruction cache size is always a power of two. */
#if NIOS2_ICACHE_SIZE > 0x8000
    movhi r2, %hi(NIOS2_ICACHE_SIZE)
#else
    movui r2, NIOS2_ICACHE_SIZE
  800000:	00840014 	movui	r2,4096
#endif

0:
    initi r2
  800004:	1001483a 	initi	r2
    addi r2, r2, -NIOS2_ICACHE_LINE_SIZE
  800008:	10bff804 	addi	r2,r2,-32
    bgt r2, zero, 0b
  80000c:	00bffd16 	blt	zero,r2,800004 <__alt_data_end+0xff800004>
 * Jump to the _start entry point in the .text section if reset code
 * is allowed or if optimizing for RTL simulation.
 */
#if defined(ALT_ALLOW_CODE_AT_RESET) || defined(ALT_SIM_OPTIMIZE)
    /* Jump to the _start entry point in the .text section. */
    movhi r1, %hi(_start)
  800010:	00402034 	movhi	at,128
    ori r1, r1, %lo(_start)
  800014:	08409114 	ori	at,at,580
    jmp r1
  800018:	0800683a 	jmp	at
  80001c:	00000000 	call	0 <__alt_mem_sdram_0-0x800000>

Disassembly of section .exceptions:

00800020 <alt_exception>:

#else /* ALT_EXCEPTION_STACK disabled */
        /* 
         * Reserve space on normal stack for registers about to be pushed.
         */
        addi  sp, sp, -76
  800020:	deffed04 	addi	sp,sp,-76
         * documentation for details).
         *
         * Leave a gap in the stack frame at 4(sp) for the muldiv handler to
         * store zero into.
         */
        stw   ra,  0(sp)
  800024:	dfc00015 	stw	ra,0(sp)
        stw   r1,   8(sp)
  800028:	d8400215 	stw	at,8(sp)
        stw   r2,  12(sp)
  80002c:	d8800315 	stw	r2,12(sp)
        stw   r3,  16(sp)
  800030:	d8c00415 	stw	r3,16(sp)
        stw   r4,  20(sp)
  800034:	d9000515 	stw	r4,20(sp)
        stw   r5,  24(sp)
  800038:	d9400615 	stw	r5,24(sp)
        stw   r6,  28(sp)
  80003c:	d9800715 	stw	r6,28(sp)
        stw   r7,  32(sp)
  800040:	d9c00815 	stw	r7,32(sp)
        rdctl r5, estatus   /* Read early to avoid usage stall */
  800044:	000b307a 	rdctl	r5,estatus
        stw   r8,  36(sp)
  800048:	da000915 	stw	r8,36(sp)
        stw   r9,  40(sp)
  80004c:	da400a15 	stw	r9,40(sp)
        stw   r10, 44(sp)
  800050:	da800b15 	stw	r10,44(sp)
        stw   r11, 48(sp)
  800054:	dac00c15 	stw	r11,48(sp)
        stw   r12, 52(sp)
  800058:	db000d15 	stw	r12,52(sp)
        stw   r13, 56(sp)
  80005c:	db400e15 	stw	r13,56(sp)
        stw   r14, 60(sp)
  800060:	db800f15 	stw	r14,60(sp)
        stw   r15, 64(sp)
  800064:	dbc01015 	stw	r15,64(sp)
        /*
         * ea-4 contains the address of the instruction being executed
         * when the exception occured. For interrupt exceptions, we will
         * will be re-issue the isntruction. Store it in 72(sp)
         */
        stw   r5,  68(sp)  /* estatus */
  800068:	d9401115 	stw	r5,68(sp)
        addi  r15, ea, -4  /* instruction that caused exception */
  80006c:	ebffff04 	addi	r15,ea,-4
        stw   r15,  72(sp)
  800070:	dbc01215 	stw	r15,72(sp)
#else
        /*
         * Test to see if the exception was a software exception or caused 
         * by an external interrupt, and vector accordingly.
         */
        rdctl r4, ipending
  800074:	0009313a 	rdctl	r4,ipending
        andi  r2, r5, 1
  800078:	2880004c 	andi	r2,r5,1
        beq   r2, zero, .Lnot_irq
  80007c:	10000326 	beq	r2,zero,80008c <alt_exception+0x6c>
        beq   r4, zero, .Lnot_irq
  800080:	20000226 	beq	r4,zero,80008c <alt_exception+0x6c>
        /*
         * Now that all necessary registers have been preserved, call 
         * alt_irq_handler() to process the interrupts.
         */

        call alt_irq_handler
  800084:	08000fc0 	call	8000fc <alt_irq_handler>

        .section .exceptions.irqreturn, "xa"

        br    .Lexception_exit
  800088:	00000706 	br	8000a8 <alt_exception+0x88>
         * upon completion, so we write ea (address of instruction *after*
         * the one where the exception occured) into 72(sp). The actual
         * instruction that caused the exception is written in r2, which these
         * handlers will utilize.
         */
        stw   ea,  72(sp)  /* Don't re-issue */
  80008c:	df401215 	stw	ea,72(sp)
        ldhu.n  r2, 0(r4)
        ldhu.n  r3, 2(r4)
        slli.n  r3, r3, 16
        or.n    r2, r2, r3 /* Instruction that caused exception */
#else
        ldw   r2, -4(ea)   /* Instruction that caused exception */
  800090:	e8bfff17 	ldw	r2,-4(ea)
         * debugger is present) or go into an infinite loop since the
         * handling behavior is undefined; in that case we will not return here.
         */

        /* Load exception-causing address as first argument (r4) */
        addi   r4, ea, -4
  800094:	e93fff04 	addi	r4,ea,-4

        /* Call the instruction-exception entry */
        call   alt_instruction_exception_entry
  800098:	08001d00 	call	8001d0 <alt_instruction_exception_entry>
         * instruction
         *
         * Return code was 0: Skip. The instruction after the exception is
         * already stored in 72(sp).
         */
        bne   r2, r0, .Lexception_exit
  80009c:	1000021e 	bne	r2,zero,8000a8 <alt_exception+0x88>

        /*
         * Otherwise, modify 72(sp) to re-issue the instruction that caused the
         * exception.
         */
        addi  r15, ea, -4  /* instruction that caused exception */
  8000a0:	ebffff04 	addi	r15,ea,-4
        stw   r15,  72(sp)
  8000a4:	dbc01215 	stw	r15,72(sp)
        /* 
         * Restore the saved registers, so that all general purpose registers 
         * have been restored to their state at the time the interrupt occured.
         */

        ldw   r5,  68(sp)
  8000a8:	d9401117 	ldw	r5,68(sp)
        ldw   ea,  72(sp)  /* This becomes the PC once eret is executed */
  8000ac:	df401217 	ldw	ea,72(sp)
        ldw   ra,   0(sp)
  8000b0:	dfc00017 	ldw	ra,0(sp)

        wrctl estatus, r5
  8000b4:	2801707a 	wrctl	estatus,r5

        ldw   r1,   8(sp)
  8000b8:	d8400217 	ldw	at,8(sp)
        ldw   r2,  12(sp)
  8000bc:	d8800317 	ldw	r2,12(sp)
        ldw   r3,  16(sp)
  8000c0:	d8c00417 	ldw	r3,16(sp)
        ldw   r4,  20(sp)
  8000c4:	d9000517 	ldw	r4,20(sp)
        ldw   r5,  24(sp)
  8000c8:	d9400617 	ldw	r5,24(sp)
        ldw   r6,  28(sp)
  8000cc:	d9800717 	ldw	r6,28(sp)
        ldw   r7,  32(sp)
  8000d0:	d9c00817 	ldw	r7,32(sp)

#if defined(ALT_EXCEPTION_STACK) && defined(ALT_STACK_CHECK)
        ldw   et, %gprel(alt_exception_old_stack_limit)(gp)
#endif

        ldw   r8,  36(sp)
  8000d4:	da000917 	ldw	r8,36(sp)
        ldw   r9,  40(sp)
  8000d8:	da400a17 	ldw	r9,40(sp)
        ldw   r10, 44(sp)
  8000dc:	da800b17 	ldw	r10,44(sp)
        ldw   r11, 48(sp)
  8000e0:	dac00c17 	ldw	r11,48(sp)
        ldw   r12, 52(sp)
  8000e4:	db000d17 	ldw	r12,52(sp)
        ldw   r13, 56(sp)
  8000e8:	db400e17 	ldw	r13,56(sp)
        ldw   r14, 60(sp)
  8000ec:	db800f17 	ldw	r14,60(sp)
        ldw   r15, 64(sp)
  8000f0:	dbc01017 	ldw	r15,64(sp)
        stw   et, %gprel(alt_stack_limit_value)(gp)
        stw   zero, %gprel(alt_exception_old_stack_limit)(gp)
#endif /* ALT_STACK_CHECK */
        ldw   sp,  76(sp)
#else /* ALT_EXCEPTION_STACK disabled */
        addi  sp, sp, 76
  8000f4:	dec01304 	addi	sp,sp,76

        /*
         * Return to the interrupted instruction.
         */

        eret
  8000f8:	ef80083a 	eret

008000fc <alt_irq_handler>:
 * instruction is present if the macro ALT_CI_INTERRUPT_VECTOR defined.
 */

void alt_irq_handler (void) __attribute__ ((section (".exceptions")));
void alt_irq_handler (void)
{
  8000fc:	defff904 	addi	sp,sp,-28
  800100:	dfc00615 	stw	ra,24(sp)
  800104:	df000515 	stw	fp,20(sp)
  800108:	df000504 	addi	fp,sp,20
  
  /*
   * Notify the operating system that we are at interrupt level.
   */ 
  
  ALT_OS_INT_ENTER();
  80010c:	0001883a 	nop
#ifndef NIOS2_EIC_PRESENT
static ALT_INLINE alt_u32 ALT_ALWAYS_INLINE alt_irq_pending (void)
{
  alt_u32 active;

  NIOS2_READ_IPENDING (active);
  800110:	0005313a 	rdctl	r2,ipending
  800114:	e0bffe15 	stw	r2,-8(fp)

  return active;
  800118:	e0bffe17 	ldw	r2,-8(fp)
   * Consider the case where the high priority interupt is asserted during
   * the interrupt entry sequence for a lower priority interrupt to see why
   * this is the case.
   */

  active = alt_irq_pending ();
  80011c:	e0bffb15 	stw	r2,-20(fp)

  do
  {
    i = 0;
  800120:	e03ffd15 	stw	zero,-12(fp)
    mask = 1;
  800124:	00800044 	movi	r2,1
  800128:	e0bffc15 	stw	r2,-16(fp)
     * called to clear the interrupt condition.
     */

    do
    {
      if (active & mask)
  80012c:	e0fffb17 	ldw	r3,-20(fp)
  800130:	e0bffc17 	ldw	r2,-16(fp)
  800134:	1884703a 	and	r2,r3,r2
  800138:	10001526 	beq	r2,zero,800190 <alt_irq_handler+0x94>
      { 
#ifdef ALT_ENHANCED_INTERRUPT_API_PRESENT
        alt_irq[i].handler(alt_irq[i].context); 
#else
        alt_irq[i].handler(alt_irq[i].context, i); 
  80013c:	00802074 	movhi	r2,129
  800140:	1097bb04 	addi	r2,r2,24300
  800144:	e0fffd17 	ldw	r3,-12(fp)
  800148:	180690fa 	slli	r3,r3,3
  80014c:	10c5883a 	add	r2,r2,r3
  800150:	10c00017 	ldw	r3,0(r2)
  800154:	00802074 	movhi	r2,129
  800158:	1097bb04 	addi	r2,r2,24300
  80015c:	e13ffd17 	ldw	r4,-12(fp)
  800160:	200890fa 	slli	r4,r4,3
  800164:	21000104 	addi	r4,r4,4
  800168:	1105883a 	add	r2,r2,r4
  80016c:	10800017 	ldw	r2,0(r2)
  800170:	1009883a 	mov	r4,r2
  800174:	e17ffd17 	ldw	r5,-12(fp)
  800178:	183ee83a 	callr	r3
#endif
        break;
  80017c:	0001883a 	nop
#ifndef NIOS2_EIC_PRESENT
static ALT_INLINE alt_u32 ALT_ALWAYS_INLINE alt_irq_pending (void)
{
  alt_u32 active;

  NIOS2_READ_IPENDING (active);
  800180:	0005313a 	rdctl	r2,ipending
  800184:	e0bfff15 	stw	r2,-4(fp)

  return active;
  800188:	e0bfff17 	ldw	r2,-4(fp)
  80018c:	00000706 	br	8001ac <alt_irq_handler+0xb0>
      }
      mask <<= 1;
  800190:	e0bffc17 	ldw	r2,-16(fp)
  800194:	1085883a 	add	r2,r2,r2
  800198:	e0bffc15 	stw	r2,-16(fp)
      i++;
  80019c:	e0bffd17 	ldw	r2,-12(fp)
  8001a0:	10800044 	addi	r2,r2,1
  8001a4:	e0bffd15 	stw	r2,-12(fp)

    } while (1);
  8001a8:	003fe006 	br	80012c <__alt_data_end+0xff80012c>

    active = alt_irq_pending ();
  8001ac:	e0bffb15 	stw	r2,-20(fp)
    
  } while (active);
  8001b0:	e0bffb17 	ldw	r2,-20(fp)
  8001b4:	103fda1e 	bne	r2,zero,800120 <__alt_data_end+0xff800120>

  /*
   * Notify the operating system that interrupt processing is complete.
   */ 

  ALT_OS_INT_EXIT();
  8001b8:	0001883a 	nop
}
  8001bc:	e037883a 	mov	sp,fp
  8001c0:	dfc00117 	ldw	ra,4(sp)
  8001c4:	df000017 	ldw	fp,0(sp)
  8001c8:	dec00204 	addi	sp,sp,8
  8001cc:	f800283a 	ret

008001d0 <alt_instruction_exception_entry>:
 * that handler if it has been registered. Absent a handler, it will
 * break break or hang as discussed below.
 */
int 
alt_instruction_exception_entry (alt_u32 exception_pc)
{
  8001d0:	defffb04 	addi	sp,sp,-20
  8001d4:	dfc00415 	stw	ra,16(sp)
  8001d8:	df000315 	stw	fp,12(sp)
  8001dc:	df000304 	addi	fp,sp,12
  8001e0:	e13fff15 	stw	r4,-4(fp)
 * NIOS2_EXCEPTION_CAUSE_NOT_PRESENT. Your handling routine should
 * check the validity of the cause argument before proceeding.
 */
#ifdef NIOS2_HAS_EXTRA_EXCEPTION_INFO
  /* Get exception cause & "badaddr" */
  NIOS2_READ_EXCEPTION(cause);
  8001e4:	000531fa 	rdctl	r2,exception
  8001e8:	e0bffd15 	stw	r2,-12(fp)
  cause = ( (cause & NIOS2_EXCEPTION_REG_CAUSE_MASK) >>
  8001ec:	e0bffd17 	ldw	r2,-12(fp)
  8001f0:	10801f0c 	andi	r2,r2,124
  8001f4:	1004d0ba 	srli	r2,r2,2
  8001f8:	e0bffd15 	stw	r2,-12(fp)
              NIOS2_EXCEPTION_REG_CAUSE_OFST );

  NIOS2_READ_BADADDR(badaddr);
  8001fc:	0005333a 	rdctl	r2,badaddr
  800200:	e0bffe15 	stw	r2,-8(fp)
#else
  cause = NIOS2_EXCEPTION_CAUSE_NOT_PRESENT;
  badaddr = 0;
#endif /* NIOS2_HAS_EXTRA_EXCEPTION_INFO */

  if(alt_instruction_exception_handler) {
  800204:	d0a75617 	ldw	r2,-25256(gp)
  800208:	10000726 	beq	r2,zero,800228 <alt_instruction_exception_entry+0x58>
     * Call handler. Its return value indicates whether the exception-causing
     * instruction should be re-issued. The code that called us,
     * alt_eceptions_entry.S, will look at this value and adjust the ea
     * register as necessary
     */
    return alt_instruction_exception_handler(cause, exception_pc, badaddr);
  80020c:	d0a75617 	ldw	r2,-25256(gp)
  800210:	e0fffd17 	ldw	r3,-12(fp)
  800214:	1809883a 	mov	r4,r3
  800218:	e17fff17 	ldw	r5,-4(fp)
  80021c:	e1bffe17 	ldw	r6,-8(fp)
  800220:	103ee83a 	callr	r2
  800224:	00000206 	br	800230 <alt_instruction_exception_entry+0x60>
   *    (a peripheral which negates its interrupt output before its
   *    interrupt handler has been executed will cause spurious interrupts)
   */
  else {
#ifdef NIOS2_HAS_DEBUG_STUB
    NIOS2_BREAK();
  800228:	003da03a 	break	0
      ;
#endif /* NIOS2_HAS_DEBUG_STUB */
  }

  /* We should not get here. Remove compiler warning. */
  return NIOS2_EXCEPTION_RETURN_REISSUE_INST;
  80022c:	0005883a 	mov	r2,zero
}
  800230:	e037883a 	mov	sp,fp
  800234:	dfc00117 	ldw	ra,4(sp)
  800238:	df000017 	ldw	fp,0(sp)
  80023c:	dec00204 	addi	sp,sp,8
  800240:	f800283a 	ret

Disassembly of section .text:

00800244 <_start>:

    /* Assume the data cache size is always a power of two. */
#if NIOS2_DCACHE_SIZE > 0x8000
    movhi r2, %hi(NIOS2_DCACHE_SIZE)
#else
    movui r2, NIOS2_DCACHE_SIZE
  800244:	00820014 	movui	r2,2048
#endif

0:
    initd 0(r2)
  800248:	10000033 	initd	0(r2)
#ifdef NIOS2_ECC_PRESENT
    addi r2, r2, -4
#else
    addi r2, r2, -NIOS2_DCACHE_LINE_SIZE
  80024c:	10bff804 	addi	r2,r2,-32
#endif
    bgt r2, zero, 0b
  800250:	00bffd16 	blt	zero,r2,800248 <__alt_data_end+0xff800248>

    /*
     * Now that the caches are initialized, set up the stack pointer and global pointer.
     * The values provided by the linker are assumed to be correctly aligned.
     */
    movhi sp, %hi(__alt_stack_pointer)
  800254:	06c04034 	movhi	sp,256
    ori sp, sp, %lo(__alt_stack_pointer)
  800258:	dec00014 	ori	sp,sp,0
    movhi gp, %hi(_gp)
  80025c:	06802074 	movhi	gp,129
    ori gp, gp, %lo(_gp)
  800260:	d6ade914 	ori	gp,gp,47012
 */
#ifndef ALT_SIM_OPTIMIZE
    /* Log that the BSS is about to be cleared. */
    ALT_LOG_PUTS(alt_log_msg_bss)

    movhi r2, %hi(__bss_start)
  800264:	00802074 	movhi	r2,129
    ori r2, r2, %lo(__bss_start)
  800268:	10952b14 	ori	r2,r2,21676

    movhi r3, %hi(__bss_end)
  80026c:	00c02074 	movhi	r3,129
    ori r3, r3, %lo(__bss_end)
  800270:	18d7fb14 	ori	r3,r3,24556

    beq r2, r3, 1f
  800274:	10c00326 	beq	r2,r3,800284 <_start+0x40>

0:
    stw zero, (r2)
  800278:	10000015 	stw	zero,0(r2)
    addi r2, r2, 4
  80027c:	10800104 	addi	r2,r2,4
    bltu r2, r3, 0b
  800280:	10fffd36 	bltu	r2,r3,800278 <__alt_data_end+0xff800278>
     * section aren't defined until alt_load() has been called).
     */
    mov   et, zero
#endif

    call alt_load
  800284:	080c9a00 	call	80c9a0 <alt_load>

    /* Log that alt_main is about to be called. */
    ALT_LOG_PUTS(alt_log_msg_alt_main)

    /* Call the C entry point. It should never return. */
    call alt_main
  800288:	080cb440 	call	80cb44 <alt_main>

0080028c <alt_after_alt_main>:

    /* Wait in infinite loop in case alt_main does return. */
alt_after_alt_main:
    br alt_after_alt_main
  80028c:	003fff06 	br	80028c <__alt_data_end+0xff80028c>

00800290 <ffs_Init>:
/*  In    : none                                                           */
/*  Out   : none                                                           */
/*  Return: error cause                                                    */
/***************************************************************************/
FFS_RESULT ffs_Init(void)
{
  800290:	defffe04 	addi	sp,sp,-8
  800294:	df000115 	stw	fp,4(sp)
  800298:	df000104 	addi	fp,sp,4
   FFS_RESULT Error = FFS_OK;
  80029c:	e03fff0d 	sth	zero,-4(fp)
   
   return (Error);
  8002a0:	e0bfff0b 	ldhu	r2,-4(fp)
} /* ffs_Init */
  8002a4:	e037883a 	mov	sp,fp
  8002a8:	df000017 	ldw	fp,0(sp)
  8002ac:	dec00104 	addi	sp,sp,4
  8002b0:	f800283a 	ret

008002b4 <SetLowSpeed>:
/*  In    : none                                                           */
/*  Out   : none                                                           */
/*  Return: none                                                           */
/***************************************************************************/
static void SetLowSpeed(void)
{
  8002b4:	deffff04 	addi	sp,sp,-4
  8002b8:	df000015 	stw	fp,0(sp)
  8002bc:	d839883a 	mov	fp,sp
   Control1 &= ~0xFF00;
  8002c0:	d0e74417 	ldw	r3,-25328(gp)
  8002c4:	00bffff4 	movhi	r2,65535
  8002c8:	10803fc4 	addi	r2,r2,255
  8002cc:	1884703a 	and	r2,r3,r2
  8002d0:	d0a74415 	stw	r2,-25328(gp)
   Control1 |= (249 << 8);
  8002d4:	d0a74417 	ldw	r2,-25328(gp)
  8002d8:	10be4014 	ori	r2,r2,63744
  8002dc:	d0a74415 	stw	r2,-25328(gp)
   SPI_CTRL  = Control1;
  8002e0:	00a04034 	movhi	r2,33024
  8002e4:	10841204 	addi	r2,r2,4168
  8002e8:	d0e74417 	ldw	r3,-25328(gp)
  8002ec:	10c00015 	stw	r3,0(r2)
} /* SetLowSpeed */
  8002f0:	e037883a 	mov	sp,fp
  8002f4:	df000017 	ldw	fp,0(sp)
  8002f8:	dec00104 	addi	sp,sp,4
  8002fc:	f800283a 	ret

00800300 <SetHighSpeed>:
/*  In    : none                                                           */
/*  Out   : none                                                           */
/*  Return: none                                                           */
/***************************************************************************/
static void SetHighSpeed(void)
{
  800300:	deffff04 	addi	sp,sp,-4
  800304:	df000015 	stw	fp,0(sp)
  800308:	d839883a 	mov	fp,sp
   Control1 &= ~0xFF00;
  80030c:	d0e74417 	ldw	r3,-25328(gp)
  800310:	00bffff4 	movhi	r2,65535
  800314:	10803fc4 	addi	r2,r2,255
  800318:	1884703a 	and	r2,r3,r2
  80031c:	d0a74415 	stw	r2,-25328(gp)

   if (0 == (CardType & 0x01))
  800320:	d0a74203 	ldbu	r2,-25336(gp)
  800324:	10803fcc 	andi	r2,r2,255
  800328:	1080004c 	andi	r2,r2,1
  80032c:	1000041e 	bne	r2,zero,800340 <SetHighSpeed+0x40>
   {
      /* SD card 25 MHz */
      Control1 |= (1 << 8);
  800330:	d0a74417 	ldw	r2,-25328(gp)
  800334:	10804014 	ori	r2,r2,256
  800338:	d0a74415 	stw	r2,-25328(gp)
  80033c:	00000306 	br	80034c <SetHighSpeed+0x4c>
   }
   else
   {
      /* MMC card 16 MHz */
      Control1 |= (2 << 8);
  800340:	d0a74417 	ldw	r2,-25328(gp)
  800344:	10808014 	ori	r2,r2,512
  800348:	d0a74415 	stw	r2,-25328(gp)
   }
   SPI_CTRL  = Control1;
  80034c:	00a04034 	movhi	r2,33024
  800350:	10841204 	addi	r2,r2,4168
  800354:	d0e74417 	ldw	r3,-25328(gp)
  800358:	10c00015 	stw	r3,0(r2)
} /* SetHighSpeed */
  80035c:	e037883a 	mov	sp,fp
  800360:	df000017 	ldw	fp,0(sp)
  800364:	dec00104 	addi	sp,sp,4
  800368:	f800283a 	ret

0080036c <InitDiskIOHardware>:
/*  In    : none                                                           */
/*  Out   : none                                                           */
/*  Return: none                                                           */
/***************************************************************************/
static void InitDiskIOHardware(void)
{
  80036c:	defffe04 	addi	sp,sp,-8
  800370:	dfc00115 	stw	ra,4(sp)
  800374:	df000015 	stw	fp,0(sp)
  800378:	d839883a 	mov	fp,sp
   /*
    * Deselct before to prevent glitch
    */
   DESELECT();
  80037c:	d0a74417 	ldw	r2,-25328(gp)
  800380:	10800054 	ori	r2,r2,1
  800384:	d0a74415 	stw	r2,-25328(gp)
  800388:	00a04034 	movhi	r2,33024
  80038c:	10841204 	addi	r2,r2,4168
  800390:	d0e74417 	ldw	r3,-25328(gp)
  800394:	10c00015 	stw	r3,0(r2)

   /* Slow during init */
   SetLowSpeed();
  800398:	08002b40 	call	8002b4 <SetLowSpeed>
   
} /* InitDiskIOHardware */
  80039c:	e037883a 	mov	sp,fp
  8003a0:	dfc00117 	ldw	ra,4(sp)
  8003a4:	df000017 	ldw	fp,0(sp)
  8003a8:	dec00204 	addi	sp,sp,8
  8003ac:	f800283a 	ret

008003b0 <Set8BitTransfer>:
/*  In    : none                                                           */
/*  Out   : none                                                           */
/*  Return: none                                                           */
/***************************************************************************/
static void Set8BitTransfer(void)
{
  8003b0:	deffff04 	addi	sp,sp,-4
  8003b4:	df000015 	stw	fp,0(sp)
  8003b8:	d839883a 	mov	fp,sp
   Control1 &= ~CTRL_BIT32;
  8003bc:	d0e74417 	ldw	r3,-25328(gp)
  8003c0:	00bfff44 	movi	r2,-3
  8003c4:	1884703a 	and	r2,r3,r2
  8003c8:	d0a74415 	stw	r2,-25328(gp)
   SPI_CTRL  = Control1;
  8003cc:	00a04034 	movhi	r2,33024
  8003d0:	10841204 	addi	r2,r2,4168
  8003d4:	d0e74417 	ldw	r3,-25328(gp)
  8003d8:	10c00015 	stw	r3,0(r2)
} /* Set8BitTransfer */
  8003dc:	e037883a 	mov	sp,fp
  8003e0:	df000017 	ldw	fp,0(sp)
  8003e4:	dec00104 	addi	sp,sp,4
  8003e8:	f800283a 	ret

008003ec <Set32BitTransfer>:
/*  In    : none                                                           */
/*  Out   : none                                                           */
/*  Return: none                                                           */
/***************************************************************************/
static void Set32BitTransfer(void)
{
  8003ec:	deffff04 	addi	sp,sp,-4
  8003f0:	df000015 	stw	fp,0(sp)
  8003f4:	d839883a 	mov	fp,sp
   Control1 |= CTRL_BIT32;
  8003f8:	d0a74417 	ldw	r2,-25328(gp)
  8003fc:	10800094 	ori	r2,r2,2
  800400:	d0a74415 	stw	r2,-25328(gp)
   SPI_CTRL  = Control1;
  800404:	00a04034 	movhi	r2,33024
  800408:	10841204 	addi	r2,r2,4168
  80040c:	d0e74417 	ldw	r3,-25328(gp)
  800410:	10c00015 	stw	r3,0(r2)
} /* Set32BitTransfer */
  800414:	e037883a 	mov	sp,fp
  800418:	df000017 	ldw	fp,0(sp)
  80041c:	dec00104 	addi	sp,sp,4
  800420:	f800283a 	ret

00800424 <ReceiveU8>:
/*  In    : none                                                           */
/*  Out   : none                                                           */
/*  Return: Data                                                           */
/***************************************************************************/
static FFS_U8 ReceiveU8 (void)
{
  800424:	deffff04 	addi	sp,sp,-4
  800428:	df000015 	stw	fp,0(sp)
  80042c:	d839883a 	mov	fp,sp
   SPI_TXR = (uint32_t) 0xff;
  800430:	00a04034 	movhi	r2,33024
  800434:	10841004 	addi	r2,r2,4160
  800438:	00c03fc4 	movi	r3,255
  80043c:	10c00015 	stw	r3,0(r2)

   /* wait for char */
   while (!(SPI_SR & SPI_SR_DONE)) ;
  800440:	0001883a 	nop
  800444:	00a04034 	movhi	r2,33024
  800448:	10841304 	addi	r2,r2,4172
  80044c:	10800017 	ldw	r2,0(r2)
  800450:	1080004c 	andi	r2,r2,1
  800454:	103ffb26 	beq	r2,zero,800444 <__alt_data_end+0xff800444>

   return(SPI_RXR);
  800458:	00a04034 	movhi	r2,33024
  80045c:	10841104 	addi	r2,r2,4164
  800460:	10800017 	ldw	r2,0(r2)
} /* ReceiveU8 */
  800464:	e037883a 	mov	sp,fp
  800468:	df000017 	ldw	fp,0(sp)
  80046c:	dec00104 	addi	sp,sp,4
  800470:	f800283a 	ret

00800474 <ReceiveDatablock>:
/*  In    : buff, btr                                                      */
/*  Out   : none                                                           */
/*  Return: In case of an error return FALSE                               */
/***************************************************************************/
static int ReceiveDatablock(FFS_U8 * buff, uint32_t btr)
{
  800474:	defff904 	addi	sp,sp,-28
  800478:	dfc00615 	stw	ra,24(sp)
  80047c:	df000515 	stw	fp,20(sp)
  800480:	df000504 	addi	fp,sp,20
  800484:	e13ffe15 	stw	r4,-8(fp)
  800488:	e17fff15 	stw	r5,-4(fp)
   FFS_U8 token, cnt;
   FFS_U32 *buff32 = (FFS_U32*)buff;
  80048c:	e0bffe17 	ldw	r2,-8(fp)
  800490:	e0bffc15 	stw	r2,-16(fp)

   Timer1 = 10;
  800494:	00800284 	movi	r2,10
  800498:	d0a7428d 	sth	r2,-25334(gp)
   do /* Wait for data packet in timeout of 100ms */
   {
      token = ReceiveU8();
  80049c:	08004240 	call	800424 <ReceiveU8>
  8004a0:	e0bffd05 	stb	r2,-12(fp)
   }
   while ((token == 0xFF) && Timer1);
  8004a4:	e0bffd03 	ldbu	r2,-12(fp)
  8004a8:	10803fd8 	cmpnei	r2,r2,255
  8004ac:	1000031e 	bne	r2,zero,8004bc <ReceiveDatablock+0x48>
  8004b0:	d0a7428b 	ldhu	r2,-25334(gp)
  8004b4:	10bfffcc 	andi	r2,r2,65535
  8004b8:	103ff81e 	bne	r2,zero,80049c <__alt_data_end+0xff80049c>

   if (token != 0xFE)
  8004bc:	e0bffd03 	ldbu	r2,-12(fp)
  8004c0:	10803fa0 	cmpeqi	r2,r2,254
  8004c4:	1000021e 	bne	r2,zero,8004d0 <ReceiveDatablock+0x5c>
      return(FFS_FALSE);  /* If not valid data token, return with error */
  8004c8:	0005883a 	mov	r2,zero
  8004cc:	00002f06 	br	80058c <ReceiveDatablock+0x118>
      
   /* Receive the data block into buffer */
   Set32BitTransfer();
  8004d0:	08003ec0 	call	8003ec <Set32BitTransfer>
   
   /* Divide by 8 */
   cnt = btr >> 3;
  8004d4:	e0bfff17 	ldw	r2,-4(fp)
  8004d8:	1004d0fa 	srli	r2,r2,3
  8004dc:	e0bffb05 	stb	r2,-20(fp)

   do /* Receive the data block into buffer */
   {
      RECEIVE_FAST(buff32);
  8004e0:	00a04034 	movhi	r2,33024
  8004e4:	10841004 	addi	r2,r2,4160
  8004e8:	00ffffc4 	movi	r3,-1
  8004ec:	10c00015 	stw	r3,0(r2)
  8004f0:	0001883a 	nop
  8004f4:	00a04034 	movhi	r2,33024
  8004f8:	10841304 	addi	r2,r2,4172
  8004fc:	10800017 	ldw	r2,0(r2)
  800500:	1080004c 	andi	r2,r2,1
  800504:	103ffb26 	beq	r2,zero,8004f4 <__alt_data_end+0xff8004f4>
  800508:	e0fffc17 	ldw	r3,-16(fp)
  80050c:	18800104 	addi	r2,r3,4
  800510:	e0bffc15 	stw	r2,-16(fp)
  800514:	00a04034 	movhi	r2,33024
  800518:	10841104 	addi	r2,r2,4164
  80051c:	10800017 	ldw	r2,0(r2)
  800520:	18800015 	stw	r2,0(r3)
      RECEIVE_FAST(buff32);
  800524:	00a04034 	movhi	r2,33024
  800528:	10841004 	addi	r2,r2,4160
  80052c:	00ffffc4 	movi	r3,-1
  800530:	10c00015 	stw	r3,0(r2)
  800534:	0001883a 	nop
  800538:	00a04034 	movhi	r2,33024
  80053c:	10841304 	addi	r2,r2,4172
  800540:	10800017 	ldw	r2,0(r2)
  800544:	1080004c 	andi	r2,r2,1
  800548:	103ffb26 	beq	r2,zero,800538 <__alt_data_end+0xff800538>
  80054c:	e0fffc17 	ldw	r3,-16(fp)
  800550:	18800104 	addi	r2,r3,4
  800554:	e0bffc15 	stw	r2,-16(fp)
  800558:	00a04034 	movhi	r2,33024
  80055c:	10841104 	addi	r2,r2,4164
  800560:	10800017 	ldw	r2,0(r2)
  800564:	18800015 	stw	r2,0(r3)
   }
   while (--cnt);
  800568:	e0bffb03 	ldbu	r2,-20(fp)
  80056c:	10bfffc4 	addi	r2,r2,-1
  800570:	e0bffb05 	stb	r2,-20(fp)
  800574:	e0bffb03 	ldbu	r2,-20(fp)
  800578:	103fd91e 	bne	r2,zero,8004e0 <__alt_data_end+0xff8004e0>
   
   Set8BitTransfer();   
  80057c:	08003b00 	call	8003b0 <Set8BitTransfer>
   ReceiveU8();   /* Discard CRC */
  800580:	08004240 	call	800424 <ReceiveU8>
   ReceiveU8();   /* Discard CRC */
  800584:	08004240 	call	800424 <ReceiveU8>

   return(FFS_TRUE);  /* Return with success */
  800588:	00800044 	movi	r2,1
} /* ReceiveDatablock */
  80058c:	e037883a 	mov	sp,fp
  800590:	dfc00117 	ldw	ra,4(sp)
  800594:	df000017 	ldw	fp,0(sp)
  800598:	dec00204 	addi	sp,sp,8
  80059c:	f800283a 	ret

008005a0 <TransmitDatablock>:
/*  In    : buff, token (Data/Stop token)                                  */
/*  Out   : none                                                           */
/*  Return: In case of an error return FALSE                               */
/***************************************************************************/
static int TransmitDatablock(const FFS_U8 * buff, FFS_U8 token)
{
  8005a0:	defff904 	addi	sp,sp,-28
  8005a4:	dfc00615 	stw	ra,24(sp)
  8005a8:	df000515 	stw	fp,20(sp)
  8005ac:	df000504 	addi	fp,sp,20
  8005b0:	e13ffe15 	stw	r4,-8(fp)
  8005b4:	2805883a 	mov	r2,r5
  8005b8:	e0bfff05 	stb	r2,-4(fp)
   FFS_U8 resp, cnt = 0;
  8005bc:	e03ffb05 	stb	zero,-20(fp)
   FFS_U32 *buff32 = (FFS_U32*)buff;
  8005c0:	e0bffe17 	ldw	r2,-8(fp)
  8005c4:	e0bffc15 	stw	r2,-16(fp)

   if (WaitReady() != 0xFF)
  8005c8:	080074c0 	call	80074c <WaitReady>
  8005cc:	10803fcc 	andi	r2,r2,255
  8005d0:	10803fe0 	cmpeqi	r2,r2,255
  8005d4:	1000021e 	bne	r2,zero,8005e0 <TransmitDatablock+0x40>
      return(FFS_FALSE);
  8005d8:	0005883a 	mov	r2,zero
  8005dc:	00004d06 	br	800714 <TransmitDatablock+0x174>

   TRANSMIT_U8(token);  /* Xmit data token */
  8005e0:	00a04034 	movhi	r2,33024
  8005e4:	10841004 	addi	r2,r2,4160
  8005e8:	e0ffff03 	ldbu	r3,-4(fp)
  8005ec:	10c00015 	stw	r3,0(r2)
  8005f0:	0001883a 	nop
  8005f4:	00a04034 	movhi	r2,33024
  8005f8:	10841304 	addi	r2,r2,4172
  8005fc:	10800017 	ldw	r2,0(r2)
  800600:	1080004c 	andi	r2,r2,1
  800604:	103ffb26 	beq	r2,zero,8005f4 <__alt_data_end+0xff8005f4>
   if (token != 0xFD)   /* Is data token */
  800608:	e0bfff03 	ldbu	r2,-4(fp)
  80060c:	10803f60 	cmpeqi	r2,r2,253
  800610:	10003f1e 	bne	r2,zero,800710 <TransmitDatablock+0x170>
   {
   
      cnt = 512 / 8;
  800614:	00801004 	movi	r2,64
  800618:	e0bffb05 	stb	r2,-20(fp)
   
      /* Send the 512 byte data block */
      Set32BitTransfer();
  80061c:	08003ec0 	call	8003ec <Set32BitTransfer>
      do /* Send the 512 byte data block */
      {
         TRANSMIT_FAST(*buff32++);
  800620:	00a04034 	movhi	r2,33024
  800624:	10841004 	addi	r2,r2,4160
  800628:	e0fffc17 	ldw	r3,-16(fp)
  80062c:	19000104 	addi	r4,r3,4
  800630:	e13ffc15 	stw	r4,-16(fp)
  800634:	18c00017 	ldw	r3,0(r3)
  800638:	10c00015 	stw	r3,0(r2)
  80063c:	0001883a 	nop
  800640:	00a04034 	movhi	r2,33024
  800644:	10841304 	addi	r2,r2,4172
  800648:	10800017 	ldw	r2,0(r2)
  80064c:	1080004c 	andi	r2,r2,1
  800650:	103ffb26 	beq	r2,zero,800640 <__alt_data_end+0xff800640>
         TRANSMIT_FAST(*buff32++);
  800654:	00a04034 	movhi	r2,33024
  800658:	10841004 	addi	r2,r2,4160
  80065c:	e0fffc17 	ldw	r3,-16(fp)
  800660:	19000104 	addi	r4,r3,4
  800664:	e13ffc15 	stw	r4,-16(fp)
  800668:	18c00017 	ldw	r3,0(r3)
  80066c:	10c00015 	stw	r3,0(r2)
  800670:	0001883a 	nop
  800674:	00a04034 	movhi	r2,33024
  800678:	10841304 	addi	r2,r2,4172
  80067c:	10800017 	ldw	r2,0(r2)
  800680:	1080004c 	andi	r2,r2,1
  800684:	103ffb26 	beq	r2,zero,800674 <__alt_data_end+0xff800674>
      }
      while (--cnt);
  800688:	e0bffb03 	ldbu	r2,-20(fp)
  80068c:	10bfffc4 	addi	r2,r2,-1
  800690:	e0bffb05 	stb	r2,-20(fp)
  800694:	e0bffb03 	ldbu	r2,-20(fp)
  800698:	103fe11e 	bne	r2,zero,800620 <__alt_data_end+0xff800620>

      Set8BitTransfer();
  80069c:	08003b00 	call	8003b0 <Set8BitTransfer>
      TRANSMIT_U8(0xFF);   /* CRC (Dummy) */
  8006a0:	00a04034 	movhi	r2,33024
  8006a4:	10841004 	addi	r2,r2,4160
  8006a8:	00c03fc4 	movi	r3,255
  8006ac:	10c00015 	stw	r3,0(r2)
  8006b0:	0001883a 	nop
  8006b4:	00a04034 	movhi	r2,33024
  8006b8:	10841304 	addi	r2,r2,4172
  8006bc:	10800017 	ldw	r2,0(r2)
  8006c0:	1080004c 	andi	r2,r2,1
  8006c4:	103ffb26 	beq	r2,zero,8006b4 <__alt_data_end+0xff8006b4>
      TRANSMIT_U8(0xFF);   /* CRC (Dummy) */
  8006c8:	00a04034 	movhi	r2,33024
  8006cc:	10841004 	addi	r2,r2,4160
  8006d0:	00c03fc4 	movi	r3,255
  8006d4:	10c00015 	stw	r3,0(r2)
  8006d8:	0001883a 	nop
  8006dc:	00a04034 	movhi	r2,33024
  8006e0:	10841304 	addi	r2,r2,4172
  8006e4:	10800017 	ldw	r2,0(r2)
  8006e8:	1080004c 	andi	r2,r2,1
  8006ec:	103ffb26 	beq	r2,zero,8006dc <__alt_data_end+0xff8006dc>

      resp = ReceiveU8();  /* Reveive data response */
  8006f0:	08004240 	call	800424 <ReceiveU8>
  8006f4:	e0bffd05 	stb	r2,-12(fp)
      if ((resp & 0x1F) != 0x05) /* If not accepted, return with error */
  8006f8:	e0bffd03 	ldbu	r2,-12(fp)
  8006fc:	108007cc 	andi	r2,r2,31
  800700:	10800160 	cmpeqi	r2,r2,5
  800704:	1000021e 	bne	r2,zero,800710 <TransmitDatablock+0x170>
      {
         return(FFS_FALSE);
  800708:	0005883a 	mov	r2,zero
  80070c:	00000106 	br	800714 <TransmitDatablock+0x174>
      }
   }

   return(FFS_TRUE);  /* Return with success */
  800710:	00800044 	movi	r2,1
} /* TransmitDatablock */
  800714:	e037883a 	mov	sp,fp
  800718:	dfc00117 	ldw	ra,4(sp)
  80071c:	df000017 	ldw	fp,0(sp)
  800720:	dec00204 	addi	sp,sp,8
  800724:	f800283a 	ret

00800728 <GetCDWP>:
/*  In    : none                                                           */
/*  Out   : none                                                           */
/*  Return: Data                                                           */
/***************************************************************************/
static FFS_U32 GetCDWP(void)
{
  800728:	defffe04 	addi	sp,sp,-8
  80072c:	df000115 	stw	fp,4(sp)
  800730:	df000104 	addi	fp,sp,4
   FFS_U32 value = 0;
  800734:	e03fff15 	stw	zero,-4(fp)
   
   /*
    * CD and WP is not supported by the Altera DE1 board.
    */

   return(value);
  800738:	e0bfff17 	ldw	r2,-4(fp)
} /* GetCDWP */
  80073c:	e037883a 	mov	sp,fp
  800740:	df000017 	ldw	fp,0(sp)
  800744:	dec00104 	addi	sp,sp,4
  800748:	f800283a 	ret

0080074c <WaitReady>:

/*-----------------------------------------------------------------------*/
/* Wait for card ready                                                   */
/*-----------------------------------------------------------------------*/
static FFS_U8 WaitReady (void)
{
  80074c:	defffd04 	addi	sp,sp,-12
  800750:	dfc00215 	stw	ra,8(sp)
  800754:	df000115 	stw	fp,4(sp)
  800758:	df000104 	addi	fp,sp,4
   FFS_U8 res;
   
#if (FFS_USE_REAL_TIME_OS == 0)
   Timer2 = (WAIT_READY_TIME_MAX_MS / 10);
  80075c:	00800c84 	movi	r2,50
  800760:	d0a7430d 	sth	r2,-25332(gp)
   ReceiveU8();
  800764:	08004240 	call	800424 <ReceiveU8>
   do
   {
      res = ReceiveU8();
  800768:	08004240 	call	800424 <ReceiveU8>
  80076c:	e0bfff05 	stb	r2,-4(fp)
   }
   while ((res != 0xFF) && Timer2);
  800770:	e0bfff03 	ldbu	r2,-4(fp)
  800774:	10803fe0 	cmpeqi	r2,r2,255
  800778:	1000031e 	bne	r2,zero,800788 <WaitReady+0x3c>
  80077c:	d0a7430b 	ldhu	r2,-25332(gp)
  800780:	10bfffcc 	andi	r2,r2,65535
  800784:	103ff81e 	bne	r2,zero,800768 <__alt_data_end+0xff800768>
      ff_wait_ms(WAIT_READY_TIME_RTOS_MS);
   }
   while ((res != 0xFF) && (cnt < WAIT_READY_TIME_CNT_RTOS));
#endif   

   return(res);
  800788:	e0bfff03 	ldbu	r2,-4(fp)
} /* WaitReady */
  80078c:	e037883a 	mov	sp,fp
  800790:	dfc00117 	ldw	ra,4(sp)
  800794:	df000017 	ldw	fp,0(sp)
  800798:	dec00204 	addi	sp,sp,8
  80079c:	f800283a 	ret

008007a0 <ReleaseBus>:

/*-----------------------------------------------------------------------*/
/* Deselect the card and release SPI bus                                 */
/*-----------------------------------------------------------------------*/
static void ReleaseBus (void)
{
  8007a0:	defffe04 	addi	sp,sp,-8
  8007a4:	dfc00115 	stw	ra,4(sp)
  8007a8:	df000015 	stw	fp,0(sp)
  8007ac:	d839883a 	mov	fp,sp
    * master device must send a byte after deasserted CS signal.   
    *
    * More information can be found here:
    * http://elm-chan.org/docs/mmc/mmc_e.html
    */
   DESELECT();
  8007b0:	d0a74417 	ldw	r2,-25328(gp)
  8007b4:	10800054 	ori	r2,r2,1
  8007b8:	d0a74415 	stw	r2,-25328(gp)
  8007bc:	00a04034 	movhi	r2,33024
  8007c0:	10841204 	addi	r2,r2,4168
  8007c4:	d0e74417 	ldw	r3,-25328(gp)
  8007c8:	10c00015 	stw	r3,0(r2)
   ReceiveU8();
  8007cc:	08004240 	call	800424 <ReceiveU8>
} /* ReleaseBus */
  8007d0:	e037883a 	mov	sp,fp
  8007d4:	dfc00117 	ldw	ra,4(sp)
  8007d8:	df000017 	ldw	fp,0(sp)
  8007dc:	dec00204 	addi	sp,sp,8
  8007e0:	f800283a 	ret

008007e4 <SendCMD>:
/*-----------------------------------------------------------------------*/
/* Send a command packet to MMC                                          */
/*-----------------------------------------------------------------------*/
static FFS_U8 SendCMD (FFS_U8 cmd,   /* Command byte */
                       FFS_U32 arg)  /* Argument */
{
  8007e4:	defffb04 	addi	sp,sp,-20
  8007e8:	dfc00415 	stw	ra,16(sp)
  8007ec:	df000315 	stw	fp,12(sp)
  8007f0:	df000304 	addi	fp,sp,12
  8007f4:	2005883a 	mov	r2,r4
  8007f8:	e17fff15 	stw	r5,-4(fp)
  8007fc:	e0bffe05 	stb	r2,-8(fp)
   FFS_U8 n, res;

   if (cmd & 0x80)   /* ACMD<n> is the command sequense of CMD55-CMD<n> */
  800800:	e0bffe03 	ldbu	r2,-8(fp)
  800804:	10803fcc 	andi	r2,r2,255
  800808:	1080201c 	xori	r2,r2,128
  80080c:	10bfe004 	addi	r2,r2,-128
  800810:	10000c0e 	bge	r2,zero,800844 <SendCMD+0x60>
   {
      cmd &= 0x7F;
  800814:	e0bffe03 	ldbu	r2,-8(fp)
  800818:	10801fcc 	andi	r2,r2,127
  80081c:	e0bffe05 	stb	r2,-8(fp)
      res = SendCMD(CMD55, 0);
  800820:	01001dc4 	movi	r4,119
  800824:	000b883a 	mov	r5,zero
  800828:	08007e40 	call	8007e4 <SendCMD>
  80082c:	e0bffd45 	stb	r2,-11(fp)
      if (res > 1)
  800830:	e0bffd43 	ldbu	r2,-11(fp)
  800834:	108000b0 	cmpltui	r2,r2,2
  800838:	1000021e 	bne	r2,zero,800844 <SendCMD+0x60>
         return res;
  80083c:	e0bffd43 	ldbu	r2,-11(fp)
  800840:	00007706 	br	800a20 <SendCMD+0x23c>
   }

   /* Select the card and wait for ready */
   DESELECT();
  800844:	d0a74417 	ldw	r2,-25328(gp)
  800848:	10800054 	ori	r2,r2,1
  80084c:	d0a74415 	stw	r2,-25328(gp)
  800850:	00a04034 	movhi	r2,33024
  800854:	10841204 	addi	r2,r2,4168
  800858:	d0e74417 	ldw	r3,-25328(gp)
  80085c:	10c00015 	stw	r3,0(r2)
   SELECT();
  800860:	d0e74417 	ldw	r3,-25328(gp)
  800864:	00bfff84 	movi	r2,-2
  800868:	1884703a 	and	r2,r3,r2
  80086c:	d0a74415 	stw	r2,-25328(gp)
  800870:	00a04034 	movhi	r2,33024
  800874:	10841204 	addi	r2,r2,4168
  800878:	d0e74417 	ldw	r3,-25328(gp)
  80087c:	10c00015 	stw	r3,0(r2)

   if (WaitReady() != 0xFF)
  800880:	080074c0 	call	80074c <WaitReady>
  800884:	10803fcc 	andi	r2,r2,255
  800888:	10803fe0 	cmpeqi	r2,r2,255
  80088c:	1000021e 	bne	r2,zero,800898 <SendCMD+0xb4>
      return 0xFF;
  800890:	00bfffc4 	movi	r2,-1
  800894:	00006206 	br	800a20 <SendCMD+0x23c>

   /* Send command packet */
   TRANSMIT_U8(cmd); /* Start + Command index */
  800898:	00a04034 	movhi	r2,33024
  80089c:	10841004 	addi	r2,r2,4160
  8008a0:	e0fffe03 	ldbu	r3,-8(fp)
  8008a4:	10c00015 	stw	r3,0(r2)
  8008a8:	0001883a 	nop
  8008ac:	00a04034 	movhi	r2,33024
  8008b0:	10841304 	addi	r2,r2,4172
  8008b4:	10800017 	ldw	r2,0(r2)
  8008b8:	1080004c 	andi	r2,r2,1
  8008bc:	103ffb26 	beq	r2,zero,8008ac <__alt_data_end+0xff8008ac>
   TRANSMIT_U8((FFS_U8) (arg >> 24));  /* Argument[31..24] */
  8008c0:	00a04034 	movhi	r2,33024
  8008c4:	10841004 	addi	r2,r2,4160
  8008c8:	e0ffff17 	ldw	r3,-4(fp)
  8008cc:	1806d63a 	srli	r3,r3,24
  8008d0:	18c03fcc 	andi	r3,r3,255
  8008d4:	10c00015 	stw	r3,0(r2)
  8008d8:	0001883a 	nop
  8008dc:	00a04034 	movhi	r2,33024
  8008e0:	10841304 	addi	r2,r2,4172
  8008e4:	10800017 	ldw	r2,0(r2)
  8008e8:	1080004c 	andi	r2,r2,1
  8008ec:	103ffb26 	beq	r2,zero,8008dc <__alt_data_end+0xff8008dc>
   TRANSMIT_U8((FFS_U8) (arg >> 16));  /* Argument[23..16] */
  8008f0:	00a04034 	movhi	r2,33024
  8008f4:	10841004 	addi	r2,r2,4160
  8008f8:	e0ffff17 	ldw	r3,-4(fp)
  8008fc:	1806d43a 	srli	r3,r3,16
  800900:	18c03fcc 	andi	r3,r3,255
  800904:	10c00015 	stw	r3,0(r2)
  800908:	0001883a 	nop
  80090c:	00a04034 	movhi	r2,33024
  800910:	10841304 	addi	r2,r2,4172
  800914:	10800017 	ldw	r2,0(r2)
  800918:	1080004c 	andi	r2,r2,1
  80091c:	103ffb26 	beq	r2,zero,80090c <__alt_data_end+0xff80090c>
   TRANSMIT_U8((FFS_U8) (arg >> 8));   /* Argument[15..8] */
  800920:	00a04034 	movhi	r2,33024
  800924:	10841004 	addi	r2,r2,4160
  800928:	e0ffff17 	ldw	r3,-4(fp)
  80092c:	1806d23a 	srli	r3,r3,8
  800930:	18c03fcc 	andi	r3,r3,255
  800934:	10c00015 	stw	r3,0(r2)
  800938:	0001883a 	nop
  80093c:	00a04034 	movhi	r2,33024
  800940:	10841304 	addi	r2,r2,4172
  800944:	10800017 	ldw	r2,0(r2)
  800948:	1080004c 	andi	r2,r2,1
  80094c:	103ffb26 	beq	r2,zero,80093c <__alt_data_end+0xff80093c>
   TRANSMIT_U8((FFS_U8) arg); /* Argument[7..0] */
  800950:	00a04034 	movhi	r2,33024
  800954:	10841004 	addi	r2,r2,4160
  800958:	e0ffff17 	ldw	r3,-4(fp)
  80095c:	18c03fcc 	andi	r3,r3,255
  800960:	10c00015 	stw	r3,0(r2)
  800964:	0001883a 	nop
  800968:	00a04034 	movhi	r2,33024
  80096c:	10841304 	addi	r2,r2,4172
  800970:	10800017 	ldw	r2,0(r2)
  800974:	1080004c 	andi	r2,r2,1
  800978:	103ffb26 	beq	r2,zero,800968 <__alt_data_end+0xff800968>

   n = 0x01;   /* Dummy CRC + Stop */
  80097c:	00800044 	movi	r2,1
  800980:	e0bffd05 	stb	r2,-12(fp)
   if (cmd == CMD0)
  800984:	e0bffe03 	ldbu	r2,-8(fp)
  800988:	10801018 	cmpnei	r2,r2,64
  80098c:	1000021e 	bne	r2,zero,800998 <SendCMD+0x1b4>
      n = 0x95;   /* Valid CRC for CMD0(0) */
  800990:	00bfe544 	movi	r2,-107
  800994:	e0bffd05 	stb	r2,-12(fp)
   if (cmd == CMD8)
  800998:	e0bffe03 	ldbu	r2,-8(fp)
  80099c:	10801218 	cmpnei	r2,r2,72
  8009a0:	1000021e 	bne	r2,zero,8009ac <SendCMD+0x1c8>
      n = 0x87;   /* Valid CRC for CMD8(0x1AA) */
  8009a4:	00bfe1c4 	movi	r2,-121
  8009a8:	e0bffd05 	stb	r2,-12(fp)
   TRANSMIT_U8(n);
  8009ac:	00a04034 	movhi	r2,33024
  8009b0:	10841004 	addi	r2,r2,4160
  8009b4:	e0fffd03 	ldbu	r3,-12(fp)
  8009b8:	10c00015 	stw	r3,0(r2)
  8009bc:	0001883a 	nop
  8009c0:	00a04034 	movhi	r2,33024
  8009c4:	10841304 	addi	r2,r2,4172
  8009c8:	10800017 	ldw	r2,0(r2)
  8009cc:	1080004c 	andi	r2,r2,1
  8009d0:	103ffb26 	beq	r2,zero,8009c0 <__alt_data_end+0xff8009c0>

   /* Receive command response */
   if (cmd == CMD12)
  8009d4:	e0bffe03 	ldbu	r2,-8(fp)
  8009d8:	10801318 	cmpnei	r2,r2,76
  8009dc:	1000011e 	bne	r2,zero,8009e4 <SendCMD+0x200>
      ReceiveU8();   /* Skip a stuff byte when stop reading */
  8009e0:	08004240 	call	800424 <ReceiveU8>

   n = 10;  /* Wait for a valid response in timeout of 10 attempts */
  8009e4:	00800284 	movi	r2,10
  8009e8:	e0bffd05 	stb	r2,-12(fp)
   do
   {
      res = ReceiveU8();
  8009ec:	08004240 	call	800424 <ReceiveU8>
  8009f0:	e0bffd45 	stb	r2,-11(fp)
   }
   while ((res & 0x80) && --n);
  8009f4:	e0bffd43 	ldbu	r2,-11(fp)
  8009f8:	10803fcc 	andi	r2,r2,255
  8009fc:	1080201c 	xori	r2,r2,128
  800a00:	10bfe004 	addi	r2,r2,-128
  800a04:	1000050e 	bge	r2,zero,800a1c <SendCMD+0x238>
  800a08:	e0bffd03 	ldbu	r2,-12(fp)
  800a0c:	10bfffc4 	addi	r2,r2,-1
  800a10:	e0bffd05 	stb	r2,-12(fp)
  800a14:	e0bffd03 	ldbu	r2,-12(fp)
  800a18:	103ff41e 	bne	r2,zero,8009ec <__alt_data_end+0xff8009ec>

   return(res); /* Return with the response value */
  800a1c:	e0bffd43 	ldbu	r2,-11(fp)
} /* SendCMD */
  800a20:	e037883a 	mov	sp,fp
  800a24:	dfc00117 	ldw	ra,4(sp)
  800a28:	df000017 	ldw	fp,0(sp)
  800a2c:	dec00204 	addi	sp,sp,8
  800a30:	f800283a 	ret

00800a34 <ffs_DiskIOInit>:
/*  In    : none                                                           */
/*  Out   : none                                                           */
/*  Return: FFS_OK                                                         */
/***************************************************************************/
FFS_RESULT ffs_DiskIOInit (void)
{
  800a34:	defffe04 	addi	sp,sp,-8
  800a38:	dfc00115 	stw	ra,4(sp)
  800a3c:	df000015 	stw	fp,0(sp)
  800a40:	d839883a 	mov	fp,sp
   (void)XMITDummy;

   InitDiskIOHardware();
  800a44:	080036c0 	call	80036c <InitDiskIOHardware>

   return(FFS_OK);
  800a48:	0005883a 	mov	r2,zero
} /* ffs_DiskIOInit */
  800a4c:	e037883a 	mov	sp,fp
  800a50:	dfc00117 	ldw	ra,4(sp)
  800a54:	df000017 	ldw	fp,0(sp)
  800a58:	dec00204 	addi	sp,sp,8
  800a5c:	f800283a 	ret

00800a60 <ffs_DiskIOTimerproc>:
/*  In    : none                                                           */
/*  Out   : none                                                           */
/*  Return: none                                                           */
/***************************************************************************/
void ffs_DiskIOTimerproc (void)
{
  800a60:	defffc04 	addi	sp,sp,-16
  800a64:	dfc00315 	stw	ra,12(sp)
  800a68:	df000215 	stw	fp,8(sp)
  800a6c:	df000204 	addi	fp,sp,8
   static FFS_U32 pvm;
   FFS_U32 n;
   DSTATUS s;

   /* 100Hz decrement timer */
   n = Timer1;
  800a70:	d0a7428b 	ldhu	r2,-25334(gp)
  800a74:	10bfffcc 	andi	r2,r2,65535
  800a78:	e0bfff15 	stw	r2,-4(fp)
   if (n)
  800a7c:	e0bfff17 	ldw	r2,-4(fp)
  800a80:	10000526 	beq	r2,zero,800a98 <ffs_DiskIOTimerproc+0x38>
      Timer1 = (FFS_U16)-- n;
  800a84:	e0bfff17 	ldw	r2,-4(fp)
  800a88:	10bfffc4 	addi	r2,r2,-1
  800a8c:	e0bfff15 	stw	r2,-4(fp)
  800a90:	e0bfff17 	ldw	r2,-4(fp)
  800a94:	d0a7428d 	sth	r2,-25334(gp)
   n = Timer2;
  800a98:	d0a7430b 	ldhu	r2,-25332(gp)
  800a9c:	10bfffcc 	andi	r2,r2,65535
  800aa0:	e0bfff15 	stw	r2,-4(fp)
   if (n)
  800aa4:	e0bfff17 	ldw	r2,-4(fp)
  800aa8:	10000526 	beq	r2,zero,800ac0 <ffs_DiskIOTimerproc+0x60>
      Timer2 = (FFS_U16)-- n;
  800aac:	e0bfff17 	ldw	r2,-4(fp)
  800ab0:	10bfffc4 	addi	r2,r2,-1
  800ab4:	e0bfff15 	stw	r2,-4(fp)
  800ab8:	e0bfff17 	ldw	r2,-4(fp)
  800abc:	d0a7430d 	sth	r2,-25332(gp)

   n = pvm;
  800ac0:	d0a74517 	ldw	r2,-25324(gp)
  800ac4:	e0bfff15 	stw	r2,-4(fp)

   /* Sample socket switch */
   pvm = GetCDWP();
  800ac8:	08007280 	call	800728 <GetCDWP>
  800acc:	d0a74515 	stw	r2,-25324(gp)

   /* Have contacts stabled? */
   if (n == pvm)
  800ad0:	d0a74517 	ldw	r2,-25324(gp)
  800ad4:	e0ffff17 	ldw	r3,-4(fp)
  800ad8:	18801e1e 	bne	r3,r2,800b54 <ffs_DiskIOTimerproc+0xf4>
   {
      s = Stat;
  800adc:	d0a00003 	ldbu	r2,-32768(gp)
  800ae0:	e0bffe05 	stb	r2,-8(fp)

      /* Check write protect */
      if (pvm & SOCK_WP_ACTIVE)
  800ae4:	d0a74517 	ldw	r2,-25324(gp)
  800ae8:	1080008c 	andi	r2,r2,2
  800aec:	10000426 	beq	r2,zero,800b00 <ffs_DiskIOTimerproc+0xa0>
         s |= STA_PROTECT;
  800af0:	e0bffe03 	ldbu	r2,-8(fp)
  800af4:	10800114 	ori	r2,r2,4
  800af8:	e0bffe05 	stb	r2,-8(fp)
  800afc:	00000406 	br	800b10 <ffs_DiskIOTimerproc+0xb0>
      else
         s &= ~STA_PROTECT;
  800b00:	e0fffe03 	ldbu	r3,-8(fp)
  800b04:	00bffec4 	movi	r2,-5
  800b08:	1884703a 	and	r2,r3,r2
  800b0c:	e0bffe05 	stb	r2,-8(fp)

      /* Check socket empty */
      if (pvm & SOCK_CD_EMPTY)
  800b10:	d0a74517 	ldw	r2,-25324(gp)
  800b14:	1080004c 	andi	r2,r2,1
  800b18:	10000426 	beq	r2,zero,800b2c <ffs_DiskIOTimerproc+0xcc>
         s |= (STA_NODISK | STA_NOINIT);
  800b1c:	e0bffe03 	ldbu	r2,-8(fp)
  800b20:	108000d4 	ori	r2,r2,3
  800b24:	e0bffe05 	stb	r2,-8(fp)
  800b28:	00000406 	br	800b3c <ffs_DiskIOTimerproc+0xdc>
      else
         s &= ~STA_NODISK;
  800b2c:	e0fffe03 	ldbu	r3,-8(fp)
  800b30:	00bfff44 	movi	r2,-3
  800b34:	1884703a 	and	r2,r3,r2
  800b38:	e0bffe05 	stb	r2,-8(fp)

#if (FFS_SUPPORT_HW_WP == 0)
      /* Ignore the write protect */
      s &= ~STA_PROTECT;
  800b3c:	e0fffe03 	ldbu	r3,-8(fp)
  800b40:	00bffec4 	movi	r2,-5
  800b44:	1884703a 	and	r2,r3,r2
  800b48:	e0bffe05 	stb	r2,-8(fp)
#endif

      Stat = s;
  800b4c:	e0bffe03 	ldbu	r2,-8(fp)
  800b50:	d0a00005 	stb	r2,-32768(gp)
   }
} /* ffs_DiskIOTimerproc */
  800b54:	e037883a 	mov	sp,fp
  800b58:	dfc00117 	ldw	ra,4(sp)
  800b5c:	df000017 	ldw	fp,0(sp)
  800b60:	dec00204 	addi	sp,sp,8
  800b64:	f800283a 	ret

00800b68 <ffs_DiskIOInitialize>:
/*  In    : Physical drive nmuber                                          */
/*  Out   : none                                                           */
/*  Return: DSTATUS                                                        */
/***************************************************************************/
DSTATUS ffs_DiskIOInitialize (FFS_U8 drv)
{
  800b68:	defffa04 	addi	sp,sp,-24
  800b6c:	dfc00515 	stw	ra,20(sp)
  800b70:	df000415 	stw	fp,16(sp)
  800b74:	dc000315 	stw	r16,12(sp)
  800b78:	df000404 	addi	fp,sp,16
  800b7c:	2005883a 	mov	r2,r4
  800b80:	e0bffe05 	stb	r2,-8(fp)
   FFS_U8 n, ty, cmd, ocr[4];

   (void)drv;

   if (Stat & STA_NODISK)  /* No card in the socket */
  800b84:	d0a00003 	ldbu	r2,-32768(gp)
  800b88:	10803fcc 	andi	r2,r2,255
  800b8c:	1080008c 	andi	r2,r2,2
  800b90:	10000226 	beq	r2,zero,800b9c <ffs_DiskIOInitialize+0x34>
      return Stat;
  800b94:	d0a00003 	ldbu	r2,-32768(gp)
  800b98:	00008406 	br	800dac <ffs_DiskIOInitialize+0x244>

   /* low speed during init */
   SetLowSpeed();
  800b9c:	08002b40 	call	8002b4 <SetLowSpeed>

   POWER_ON(); /* Force socket power ON */
   for (n = 10; n; n--)
  800ba0:	00800284 	movi	r2,10
  800ba4:	e0bffc05 	stb	r2,-16(fp)
  800ba8:	00000406 	br	800bbc <ffs_DiskIOInitialize+0x54>
      ReceiveU8();   /* 80 dummy clocks */
  800bac:	08004240 	call	800424 <ReceiveU8>

   /* low speed during init */
   SetLowSpeed();

   POWER_ON(); /* Force socket power ON */
   for (n = 10; n; n--)
  800bb0:	e0bffc03 	ldbu	r2,-16(fp)
  800bb4:	10bfffc4 	addi	r2,r2,-1
  800bb8:	e0bffc05 	stb	r2,-16(fp)
  800bbc:	e0bffc03 	ldbu	r2,-16(fp)
  800bc0:	103ffa1e 	bne	r2,zero,800bac <__alt_data_end+0xff800bac>
      ReceiveU8();   /* 80 dummy clocks */

   ty = 0;
  800bc4:	e03ffc45 	stb	zero,-15(fp)
   if (SendCMD(CMD0, 0) == 1)
  800bc8:	01001004 	movi	r4,64
  800bcc:	000b883a 	mov	r5,zero
  800bd0:	08007e40 	call	8007e4 <SendCMD>
  800bd4:	10803fcc 	andi	r2,r2,255
  800bd8:	10800058 	cmpnei	r2,r2,1
  800bdc:	1000681e 	bne	r2,zero,800d80 <ffs_DiskIOInitialize+0x218>
   {  /* Enter Idle state */
      Timer1 = 100;  /* Initialization timeout of 1000 msec */
  800be0:	00801904 	movi	r2,100
  800be4:	d0a7428d 	sth	r2,-25334(gp)
      if (SendCMD(CMD8, 0x1AA) == 1)
  800be8:	01001204 	movi	r4,72
  800bec:	01406a84 	movi	r5,426
  800bf0:	08007e40 	call	8007e4 <SendCMD>
  800bf4:	10803fcc 	andi	r2,r2,255
  800bf8:	10800058 	cmpnei	r2,r2,1
  800bfc:	10003e1e 	bne	r2,zero,800cf8 <ffs_DiskIOInitialize+0x190>
      {  /* SDC ver 2.00 */
         for (n = 0; n < 4; n++)
  800c00:	e03ffc05 	stb	zero,-16(fp)
  800c04:	00000906 	br	800c2c <ffs_DiskIOInitialize+0xc4>
            ocr[n] = ReceiveU8();
  800c08:	e43ffc03 	ldbu	r16,-16(fp)
  800c0c:	08004240 	call	800424 <ReceiveU8>
  800c10:	1007883a 	mov	r3,r2
  800c14:	e0bffcc4 	addi	r2,fp,-13
  800c18:	1405883a 	add	r2,r2,r16
  800c1c:	10c00005 	stb	r3,0(r2)
   if (SendCMD(CMD0, 0) == 1)
   {  /* Enter Idle state */
      Timer1 = 100;  /* Initialization timeout of 1000 msec */
      if (SendCMD(CMD8, 0x1AA) == 1)
      {  /* SDC ver 2.00 */
         for (n = 0; n < 4; n++)
  800c20:	e0bffc03 	ldbu	r2,-16(fp)
  800c24:	10800044 	addi	r2,r2,1
  800c28:	e0bffc05 	stb	r2,-16(fp)
  800c2c:	e0bffc03 	ldbu	r2,-16(fp)
  800c30:	10800130 	cmpltui	r2,r2,4
  800c34:	103ff41e 	bne	r2,zero,800c08 <__alt_data_end+0xff800c08>
            ocr[n] = ReceiveU8();
         if (ocr[2] == 0x01 && ocr[3] == 0xAA)
  800c38:	e0bffd43 	ldbu	r2,-11(fp)
  800c3c:	10803fcc 	andi	r2,r2,255
  800c40:	10800058 	cmpnei	r2,r2,1
  800c44:	10004e1e 	bne	r2,zero,800d80 <ffs_DiskIOInitialize+0x218>
  800c48:	e0bffd83 	ldbu	r2,-10(fp)
  800c4c:	10803fcc 	andi	r2,r2,255
  800c50:	10802a98 	cmpnei	r2,r2,170
  800c54:	10004a1e 	bne	r2,zero,800d80 <ffs_DiskIOInitialize+0x218>
         {  /* The card can work at vdd range of 2.7-3.6V */
            while (Timer1 && SendCMD(ACMD41, 1UL << 30)) ;  /* ACMD41 with HCS bit */
  800c58:	0001883a 	nop
  800c5c:	d0a7428b 	ldhu	r2,-25334(gp)
  800c60:	10bfffcc 	andi	r2,r2,65535
  800c64:	10000526 	beq	r2,zero,800c7c <ffs_DiskIOInitialize+0x114>
  800c68:	01003a44 	movi	r4,233
  800c6c:	01500034 	movhi	r5,16384
  800c70:	08007e40 	call	8007e4 <SendCMD>
  800c74:	10803fcc 	andi	r2,r2,255
  800c78:	103ff81e 	bne	r2,zero,800c5c <__alt_data_end+0xff800c5c>
            if (Timer1 && SendCMD(CMD58, 0) == 0)
  800c7c:	d0a7428b 	ldhu	r2,-25334(gp)
  800c80:	10bfffcc 	andi	r2,r2,65535
  800c84:	10003e26 	beq	r2,zero,800d80 <ffs_DiskIOInitialize+0x218>
  800c88:	01001e84 	movi	r4,122
  800c8c:	000b883a 	mov	r5,zero
  800c90:	08007e40 	call	8007e4 <SendCMD>
  800c94:	10803fcc 	andi	r2,r2,255
  800c98:	1000391e 	bne	r2,zero,800d80 <ffs_DiskIOInitialize+0x218>
            {  /* Check CCS bit */
               for (n = 0; n < 4; n++)
  800c9c:	e03ffc05 	stb	zero,-16(fp)
  800ca0:	00000906 	br	800cc8 <ffs_DiskIOInitialize+0x160>
                  ocr[n] = ReceiveU8();
  800ca4:	e43ffc03 	ldbu	r16,-16(fp)
  800ca8:	08004240 	call	800424 <ReceiveU8>
  800cac:	1007883a 	mov	r3,r2
  800cb0:	e0bffcc4 	addi	r2,fp,-13
  800cb4:	1405883a 	add	r2,r2,r16
  800cb8:	10c00005 	stb	r3,0(r2)
         if (ocr[2] == 0x01 && ocr[3] == 0xAA)
         {  /* The card can work at vdd range of 2.7-3.6V */
            while (Timer1 && SendCMD(ACMD41, 1UL << 30)) ;  /* ACMD41 with HCS bit */
            if (Timer1 && SendCMD(CMD58, 0) == 0)
            {  /* Check CCS bit */
               for (n = 0; n < 4; n++)
  800cbc:	e0bffc03 	ldbu	r2,-16(fp)
  800cc0:	10800044 	addi	r2,r2,1
  800cc4:	e0bffc05 	stb	r2,-16(fp)
  800cc8:	e0bffc03 	ldbu	r2,-16(fp)
  800ccc:	10800130 	cmpltui	r2,r2,4
  800cd0:	103ff41e 	bne	r2,zero,800ca4 <__alt_data_end+0xff800ca4>
                  ocr[n] = ReceiveU8();
               ty = (ocr[0] & 0x40) ? CT_SD2 | CT_BLOCK : CT_SD2; /* Card id SDv2 */
  800cd4:	e0bffcc3 	ldbu	r2,-13(fp)
  800cd8:	10803fcc 	andi	r2,r2,255
  800cdc:	1080100c 	andi	r2,r2,64
  800ce0:	10000226 	beq	r2,zero,800cec <ffs_DiskIOInitialize+0x184>
  800ce4:	00800304 	movi	r2,12
  800ce8:	00000106 	br	800cf0 <ffs_DiskIOInitialize+0x188>
  800cec:	00800104 	movi	r2,4
  800cf0:	e0bffc45 	stb	r2,-15(fp)
  800cf4:	00002206 	br	800d80 <ffs_DiskIOInitialize+0x218>
            }
         }
      }
      else
      {  /* SDC ver 1.XX or MMC */
         if (SendCMD(ACMD41, 0) <= 1)
  800cf8:	01003a44 	movi	r4,233
  800cfc:	000b883a 	mov	r5,zero
  800d00:	08007e40 	call	8007e4 <SendCMD>
  800d04:	10803fcc 	andi	r2,r2,255
  800d08:	108000a8 	cmpgeui	r2,r2,2
  800d0c:	1000051e 	bne	r2,zero,800d24 <ffs_DiskIOInitialize+0x1bc>
         {
            ty  = CT_SD1;
  800d10:	00800084 	movi	r2,2
  800d14:	e0bffc45 	stb	r2,-15(fp)
            cmd = ACMD41;  /* SDC ver 1.XX */
  800d18:	00bffa44 	movi	r2,-23
  800d1c:	e0bffc85 	stb	r2,-14(fp)
  800d20:	00000406 	br	800d34 <ffs_DiskIOInitialize+0x1cc>
         }
         else
         {
            ty  = CT_MMC;
  800d24:	00800044 	movi	r2,1
  800d28:	e0bffc45 	stb	r2,-15(fp)
            cmd = CMD1; /* MMC */
  800d2c:	00801044 	movi	r2,65
  800d30:	e0bffc85 	stb	r2,-14(fp)
         }
         while (Timer1 && SendCMD(cmd, 0)) ; /* Wait for leaving idle state */
  800d34:	0001883a 	nop
  800d38:	d0a7428b 	ldhu	r2,-25334(gp)
  800d3c:	10bfffcc 	andi	r2,r2,65535
  800d40:	10000626 	beq	r2,zero,800d5c <ffs_DiskIOInitialize+0x1f4>
  800d44:	e0bffc83 	ldbu	r2,-14(fp)
  800d48:	1009883a 	mov	r4,r2
  800d4c:	000b883a 	mov	r5,zero
  800d50:	08007e40 	call	8007e4 <SendCMD>
  800d54:	10803fcc 	andi	r2,r2,255
  800d58:	103ff71e 	bne	r2,zero,800d38 <__alt_data_end+0xff800d38>
         if (!Timer1 || SendCMD(CMD16, 512) != 0)  /* Select R/W block length */
  800d5c:	d0a7428b 	ldhu	r2,-25334(gp)
  800d60:	10bfffcc 	andi	r2,r2,65535
  800d64:	10000526 	beq	r2,zero,800d7c <ffs_DiskIOInitialize+0x214>
  800d68:	01001404 	movi	r4,80
  800d6c:	01408004 	movi	r5,512
  800d70:	08007e40 	call	8007e4 <SendCMD>
  800d74:	10803fcc 	andi	r2,r2,255
  800d78:	10000126 	beq	r2,zero,800d80 <ffs_DiskIOInitialize+0x218>
            ty = 0;
  800d7c:	e03ffc45 	stb	zero,-15(fp)
      }
   }
   CardType = ty;
  800d80:	e0bffc43 	ldbu	r2,-15(fp)
  800d84:	d0a74205 	stb	r2,-25336(gp)
   ReleaseBus();
  800d88:	08007a00 	call	8007a0 <ReleaseBus>

   if (ty)
  800d8c:	e0bffc43 	ldbu	r2,-15(fp)
  800d90:	10000526 	beq	r2,zero,800da8 <ffs_DiskIOInitialize+0x240>
   {  /* Initialization succeded */
      Stat &= ~STA_NOINIT; /* Clear STA_NOINIT */
  800d94:	d0e00003 	ldbu	r3,-32768(gp)
  800d98:	00bfff84 	movi	r2,-2
  800d9c:	1884703a 	and	r2,r3,r2
  800da0:	d0a00005 	stb	r2,-32768(gp)

      SetHighSpeed();
  800da4:	08003000 	call	800300 <SetHighSpeed>
   else
   {  /* Initialization failed */
      POWER_OFF();
   }

   return(Stat);
  800da8:	d0a00003 	ldbu	r2,-32768(gp)
} /* ffs_DiskIOInitialize */
  800dac:	e6ffff04 	addi	sp,fp,-4
  800db0:	dfc00217 	ldw	ra,8(sp)
  800db4:	df000117 	ldw	fp,4(sp)
  800db8:	dc000017 	ldw	r16,0(sp)
  800dbc:	dec00304 	addi	sp,sp,12
  800dc0:	f800283a 	ret

00800dc4 <ffs_DiskIOStatus>:
/*  In    : Physical drive nmuber                                          */
/*  Out   : none                                                           */
/*  Return: DSTATUS                                                        */
/***************************************************************************/
DSTATUS ffs_DiskIOStatus (FFS_U8 drv)
{
  800dc4:	defffe04 	addi	sp,sp,-8
  800dc8:	df000115 	stw	fp,4(sp)
  800dcc:	df000104 	addi	fp,sp,4
  800dd0:	2005883a 	mov	r2,r4
  800dd4:	e0bfff05 	stb	r2,-4(fp)
   (void)drv;

   return(Stat);
  800dd8:	d0a00003 	ldbu	r2,-32768(gp)
} /* ffs_DiskIOStatus */
  800ddc:	e037883a 	mov	sp,fp
  800de0:	df000017 	ldw	fp,0(sp)
  800de4:	dec00104 	addi	sp,sp,4
  800de8:	f800283a 	ret

00800dec <ffs_DiskIORead>:
/*                                                                         */
/*  Out   : buff                                                           */
/*  Return: DRESULT                                                        */
/***************************************************************************/
DRESULT ffs_DiskIORead (FFS_U8 drv, FFS_U8 * buff, FFS_U32 sector, FFS_U8 count)
{
  800dec:	defffa04 	addi	sp,sp,-24
  800df0:	dfc00515 	stw	ra,20(sp)
  800df4:	df000415 	stw	fp,16(sp)
  800df8:	df000404 	addi	fp,sp,16
  800dfc:	2007883a 	mov	r3,r4
  800e00:	e17ffd15 	stw	r5,-12(fp)
  800e04:	e1bffe15 	stw	r6,-8(fp)
  800e08:	3805883a 	mov	r2,r7
  800e0c:	e0fffc05 	stb	r3,-16(fp)
  800e10:	e0bfff05 	stb	r2,-4(fp)
   (void)drv;

   if (!count)
  800e14:	e0bfff03 	ldbu	r2,-4(fp)
  800e18:	1000021e 	bne	r2,zero,800e24 <ffs_DiskIORead+0x38>
      return RES_PARERR;
  800e1c:	00800104 	movi	r2,4
  800e20:	00003406 	br	800ef4 <ffs_DiskIORead+0x108>
   if (Stat & STA_NOINIT)
  800e24:	d0a00003 	ldbu	r2,-32768(gp)
  800e28:	10803fcc 	andi	r2,r2,255
  800e2c:	1080004c 	andi	r2,r2,1
  800e30:	10000226 	beq	r2,zero,800e3c <ffs_DiskIORead+0x50>
      return RES_NOTRDY;
  800e34:	008000c4 	movi	r2,3
  800e38:	00002e06 	br	800ef4 <ffs_DiskIORead+0x108>

   if (!(CardType & CT_BLOCK))
  800e3c:	d0a74203 	ldbu	r2,-25336(gp)
  800e40:	10803fcc 	andi	r2,r2,255
  800e44:	1080020c 	andi	r2,r2,8
  800e48:	1000031e 	bne	r2,zero,800e58 <ffs_DiskIORead+0x6c>
      sector *= 512; /* Convert LBA to byte address if needed */
  800e4c:	e0bffe17 	ldw	r2,-8(fp)
  800e50:	1004927a 	slli	r2,r2,9
  800e54:	e0bffe15 	stw	r2,-8(fp)

   if (count == 1)
  800e58:	e0bfff03 	ldbu	r2,-4(fp)
  800e5c:	10800058 	cmpnei	r2,r2,1
  800e60:	10000b1e 	bne	r2,zero,800e90 <ffs_DiskIORead+0xa4>
   {  /* Single block read */
      if ((SendCMD(CMD17, sector) == 0)   /* READ_SINGLE_BLOCK */
  800e64:	01001444 	movi	r4,81
  800e68:	e17ffe17 	ldw	r5,-8(fp)
  800e6c:	08007e40 	call	8007e4 <SendCMD>
  800e70:	10803fcc 	andi	r2,r2,255
  800e74:	10001b1e 	bne	r2,zero,800ee4 <ffs_DiskIORead+0xf8>
          && ReceiveDatablock(buff, 512))
  800e78:	e13ffd17 	ldw	r4,-12(fp)
  800e7c:	01408004 	movi	r5,512
  800e80:	08004740 	call	800474 <ReceiveDatablock>
  800e84:	10001726 	beq	r2,zero,800ee4 <ffs_DiskIORead+0xf8>
         count = 0;
  800e88:	e03fff05 	stb	zero,-4(fp)
  800e8c:	00001506 	br	800ee4 <ffs_DiskIORead+0xf8>
   }
   else
   {  /* Multiple block read */
      if (SendCMD(CMD18, sector) == 0)
  800e90:	01001484 	movi	r4,82
  800e94:	e17ffe17 	ldw	r5,-8(fp)
  800e98:	08007e40 	call	8007e4 <SendCMD>
  800e9c:	10803fcc 	andi	r2,r2,255
  800ea0:	1000101e 	bne	r2,zero,800ee4 <ffs_DiskIORead+0xf8>
      {  /* READ_MULTIPLE_BLOCK */
         do
         {
            if (!ReceiveDatablock(buff, 512))
  800ea4:	e13ffd17 	ldw	r4,-12(fp)
  800ea8:	01408004 	movi	r5,512
  800eac:	08004740 	call	800474 <ReceiveDatablock>
  800eb0:	1000011e 	bne	r2,zero,800eb8 <ffs_DiskIORead+0xcc>
               break;
  800eb4:	00000806 	br	800ed8 <ffs_DiskIORead+0xec>
            buff += 512;
  800eb8:	e0bffd17 	ldw	r2,-12(fp)
  800ebc:	10808004 	addi	r2,r2,512
  800ec0:	e0bffd15 	stw	r2,-12(fp)
         }
         while (--count);
  800ec4:	e0bfff03 	ldbu	r2,-4(fp)
  800ec8:	10bfffc4 	addi	r2,r2,-1
  800ecc:	e0bfff05 	stb	r2,-4(fp)
  800ed0:	e0bfff03 	ldbu	r2,-4(fp)
  800ed4:	103ff31e 	bne	r2,zero,800ea4 <__alt_data_end+0xff800ea4>
         SendCMD(CMD12, 0);   /* STOP_TRANSMISSION */
  800ed8:	01001304 	movi	r4,76
  800edc:	000b883a 	mov	r5,zero
  800ee0:	08007e40 	call	8007e4 <SendCMD>
      }
   }
   ReleaseBus();
  800ee4:	08007a00 	call	8007a0 <ReleaseBus>

   return(count ? RES_ERROR : RES_OK);
  800ee8:	e0bfff03 	ldbu	r2,-4(fp)
  800eec:	1004c03a 	cmpne	r2,r2,zero
  800ef0:	10803fcc 	andi	r2,r2,255
} /* ffs_DiskIORead */
  800ef4:	e037883a 	mov	sp,fp
  800ef8:	dfc00117 	ldw	ra,4(sp)
  800efc:	df000017 	ldw	fp,0(sp)
  800f00:	dec00204 	addi	sp,sp,8
  800f04:	f800283a 	ret

00800f08 <ffs_DiskIOWrite>:
/*                                                                         */
/*  Out   : buff                                                           */
/*  Return: DRESULT                                                        */
/***************************************************************************/
DRESULT ffs_DiskIOWrite (FFS_U8 drv, const FFS_U8 * buff, FFS_U32 sector, FFS_U8 count)
{
  800f08:	defffa04 	addi	sp,sp,-24
  800f0c:	dfc00515 	stw	ra,20(sp)
  800f10:	df000415 	stw	fp,16(sp)
  800f14:	df000404 	addi	fp,sp,16
  800f18:	2007883a 	mov	r3,r4
  800f1c:	e17ffd15 	stw	r5,-12(fp)
  800f20:	e1bffe15 	stw	r6,-8(fp)
  800f24:	3805883a 	mov	r2,r7
  800f28:	e0fffc05 	stb	r3,-16(fp)
  800f2c:	e0bfff05 	stb	r2,-4(fp)
   (void)drv;

   if (!count)
  800f30:	e0bfff03 	ldbu	r2,-4(fp)
  800f34:	1000021e 	bne	r2,zero,800f40 <ffs_DiskIOWrite+0x38>
      return RES_PARERR;
  800f38:	00800104 	movi	r2,4
  800f3c:	00004806 	br	801060 <ffs_DiskIOWrite+0x158>
   if (Stat & STA_NOINIT)
  800f40:	d0a00003 	ldbu	r2,-32768(gp)
  800f44:	10803fcc 	andi	r2,r2,255
  800f48:	1080004c 	andi	r2,r2,1
  800f4c:	10000226 	beq	r2,zero,800f58 <ffs_DiskIOWrite+0x50>
      return RES_NOTRDY;
  800f50:	008000c4 	movi	r2,3
  800f54:	00004206 	br	801060 <ffs_DiskIOWrite+0x158>
   if (Stat & STA_PROTECT)
  800f58:	d0a00003 	ldbu	r2,-32768(gp)
  800f5c:	10803fcc 	andi	r2,r2,255
  800f60:	1080010c 	andi	r2,r2,4
  800f64:	10000226 	beq	r2,zero,800f70 <ffs_DiskIOWrite+0x68>
      return RES_WRPRT;
  800f68:	00800084 	movi	r2,2
  800f6c:	00003c06 	br	801060 <ffs_DiskIOWrite+0x158>

   if (!(CardType & CT_BLOCK))
  800f70:	d0a74203 	ldbu	r2,-25336(gp)
  800f74:	10803fcc 	andi	r2,r2,255
  800f78:	1080020c 	andi	r2,r2,8
  800f7c:	1000031e 	bne	r2,zero,800f8c <ffs_DiskIOWrite+0x84>
      sector *= 512; /* Convert LBA to byte address if needed */
  800f80:	e0bffe17 	ldw	r2,-8(fp)
  800f84:	1004927a 	slli	r2,r2,9
  800f88:	e0bffe15 	stw	r2,-8(fp)

   if (count == 1)
  800f8c:	e0bfff03 	ldbu	r2,-4(fp)
  800f90:	10800058 	cmpnei	r2,r2,1
  800f94:	10000b1e 	bne	r2,zero,800fc4 <ffs_DiskIOWrite+0xbc>
   {  /* Single block write */
      if ((SendCMD(CMD24, sector) == 0)   /* WRITE_BLOCK */
  800f98:	01001604 	movi	r4,88
  800f9c:	e17ffe17 	ldw	r5,-8(fp)
  800fa0:	08007e40 	call	8007e4 <SendCMD>
  800fa4:	10803fcc 	andi	r2,r2,255
  800fa8:	1000291e 	bne	r2,zero,801050 <ffs_DiskIOWrite+0x148>
          && TransmitDatablock(buff, 0xFE))
  800fac:	e13ffd17 	ldw	r4,-12(fp)
  800fb0:	01403f84 	movi	r5,254
  800fb4:	08005a00 	call	8005a0 <TransmitDatablock>
  800fb8:	10002526 	beq	r2,zero,801050 <ffs_DiskIOWrite+0x148>
         count = 0;
  800fbc:	e03fff05 	stb	zero,-4(fp)
  800fc0:	00002306 	br	801050 <ffs_DiskIOWrite+0x148>
   }
   else
   {  /* Multiple block write */
      if (CardType & CT_SDC)
  800fc4:	d0a74203 	ldbu	r2,-25336(gp)
  800fc8:	10803fcc 	andi	r2,r2,255
  800fcc:	1080018c 	andi	r2,r2,6
  800fd0:	10000726 	beq	r2,zero,800ff0 <ffs_DiskIOWrite+0xe8>
      {
         SendCMD(CMD55, 0);
  800fd4:	01001dc4 	movi	r4,119
  800fd8:	000b883a 	mov	r5,zero
  800fdc:	08007e40 	call	8007e4 <SendCMD>
         SendCMD(CMD23, count);  /* ACMD23 */
  800fe0:	e0bfff03 	ldbu	r2,-4(fp)
  800fe4:	010015c4 	movi	r4,87
  800fe8:	100b883a 	mov	r5,r2
  800fec:	08007e40 	call	8007e4 <SendCMD>
      }
      if (SendCMD(CMD25, sector) == 0)
  800ff0:	01001644 	movi	r4,89
  800ff4:	e17ffe17 	ldw	r5,-8(fp)
  800ff8:	08007e40 	call	8007e4 <SendCMD>
  800ffc:	10803fcc 	andi	r2,r2,255
  801000:	1000131e 	bne	r2,zero,801050 <ffs_DiskIOWrite+0x148>
      {  /* WRITE_MULTIPLE_BLOCK */
         do
         {
            if (!TransmitDatablock(buff, 0xFC))
  801004:	e13ffd17 	ldw	r4,-12(fp)
  801008:	01403f04 	movi	r5,252
  80100c:	08005a00 	call	8005a0 <TransmitDatablock>
  801010:	1000011e 	bne	r2,zero,801018 <ffs_DiskIOWrite+0x110>
               break;
  801014:	00000806 	br	801038 <ffs_DiskIOWrite+0x130>
            buff += 512;
  801018:	e0bffd17 	ldw	r2,-12(fp)
  80101c:	10808004 	addi	r2,r2,512
  801020:	e0bffd15 	stw	r2,-12(fp)
         }
         while (--count);
  801024:	e0bfff03 	ldbu	r2,-4(fp)
  801028:	10bfffc4 	addi	r2,r2,-1
  80102c:	e0bfff05 	stb	r2,-4(fp)
  801030:	e0bfff03 	ldbu	r2,-4(fp)
  801034:	103ff31e 	bne	r2,zero,801004 <__alt_data_end+0xff801004>
         if (!TransmitDatablock(0, 0xFD)) /* STOP_TRAN token */
  801038:	0009883a 	mov	r4,zero
  80103c:	01403f44 	movi	r5,253
  801040:	08005a00 	call	8005a0 <TransmitDatablock>
  801044:	1000021e 	bne	r2,zero,801050 <ffs_DiskIOWrite+0x148>
            count = 1;
  801048:	00800044 	movi	r2,1
  80104c:	e0bfff05 	stb	r2,-4(fp)
      }
   }
   ReleaseBus();
  801050:	08007a00 	call	8007a0 <ReleaseBus>

   return(count ? RES_ERROR : RES_OK);
  801054:	e0bfff03 	ldbu	r2,-4(fp)
  801058:	1004c03a 	cmpne	r2,r2,zero
  80105c:	10803fcc 	andi	r2,r2,255
} /* ffs_DiskIOWrite */
  801060:	e037883a 	mov	sp,fp
  801064:	dfc00117 	ldw	ra,4(sp)
  801068:	df000017 	ldw	fp,0(sp)
  80106c:	dec00204 	addi	sp,sp,8
  801070:	f800283a 	ret

00801074 <ffs_DiskIOIoctl>:
/*                                                                         */
/*  Out   : buff                                                           */
/*  Return: DRESULT                                                        */
/***************************************************************************/
DRESULT ffs_DiskIOIoctl (FFS_U8 drv, FFS_U8 ctrl, void *buff)
{
  801074:	defff204 	addi	sp,sp,-56
  801078:	dfc00d15 	stw	ra,52(sp)
  80107c:	df000c15 	stw	fp,48(sp)
  801080:	dc000b15 	stw	r16,44(sp)
  801084:	df000c04 	addi	fp,sp,48
  801088:	2007883a 	mov	r3,r4
  80108c:	2805883a 	mov	r2,r5
  801090:	e1bffe15 	stw	r6,-8(fp)
  801094:	e0fffc05 	stb	r3,-16(fp)
  801098:	e0bffd05 	stb	r2,-12(fp)
   DRESULT res;
   FFS_U8 n, csd[16], *ptr = buff;
  80109c:	e0bffe17 	ldw	r2,-8(fp)
  8010a0:	e0bff615 	stw	r2,-40(fp)
   FFS_U16 csize;

   (void)drv;

   if (Stat & STA_NOINIT)
  8010a4:	d0a00003 	ldbu	r2,-32768(gp)
  8010a8:	10803fcc 	andi	r2,r2,255
  8010ac:	1080004c 	andi	r2,r2,1
  8010b0:	10000226 	beq	r2,zero,8010bc <ffs_DiskIOIoctl+0x48>
      return RES_NOTRDY;
  8010b4:	008000c4 	movi	r2,3
  8010b8:	00011206 	br	801504 <ffs_DiskIOIoctl+0x490>

   res = RES_ERROR;
  8010bc:	00800044 	movi	r2,1
  8010c0:	e0bff415 	stw	r2,-48(fp)
   switch (ctrl)
  8010c4:	e0bffd03 	ldbu	r2,-12(fp)
  8010c8:	10c003e8 	cmpgeui	r3,r2,15
  8010cc:	1801091e 	bne	r3,zero,8014f4 <ffs_DiskIOIoctl+0x480>
  8010d0:	100690ba 	slli	r3,r2,2
  8010d4:	00802034 	movhi	r2,128
  8010d8:	10843a04 	addi	r2,r2,4328
  8010dc:	1885883a 	add	r2,r3,r2
  8010e0:	10800017 	ldw	r2,0(r2)
  8010e4:	1000683a 	jmp	r2
  8010e8:	00801124 	muli	r2,zero,68
  8010ec:	00801160 	cmpeqi	r2,zero,69
  8010f0:	00801274 	movhi	r2,73
  8010f4:	00801288 	cmpgei	r2,zero,74
  8010f8:	008014f4 	movhi	r2,83
  8010fc:	008014f4 	movhi	r2,83
  801100:	008014f4 	movhi	r2,83
  801104:	008014f4 	movhi	r2,83
  801108:	008014f4 	movhi	r2,83
  80110c:	008014f4 	movhi	r2,83
  801110:	008013f8 	rdprs	r2,zero,79
  801114:	0080140c 	andi	r2,zero,80
  801118:	0080143c 	xorhi	r2,zero,80
  80111c:	0080146c 	andhi	r2,zero,81
  801120:	008014c0 	call	8014c <__alt_mem_sdram_0-0x77feb4>
   {
      case CTRL_SYNC:  /* Make sure that pending write process has been finished */
         SELECT();
  801124:	d0e74417 	ldw	r3,-25328(gp)
  801128:	00bfff84 	movi	r2,-2
  80112c:	1884703a 	and	r2,r3,r2
  801130:	d0a74415 	stw	r2,-25328(gp)
  801134:	00a04034 	movhi	r2,33024
  801138:	10841204 	addi	r2,r2,4168
  80113c:	d0e74417 	ldw	r3,-25328(gp)
  801140:	10c00015 	stw	r3,0(r2)
         if (WaitReady() == 0xFF)
  801144:	080074c0 	call	80074c <WaitReady>
  801148:	10803fcc 	andi	r2,r2,255
  80114c:	10803fd8 	cmpnei	r2,r2,255
  801150:	1000021e 	bne	r2,zero,80115c <ffs_DiskIOIoctl+0xe8>
            res = RES_OK;
  801154:	e03ff415 	stw	zero,-48(fp)
         break;
  801158:	0000e806 	br	8014fc <ffs_DiskIOIoctl+0x488>
  80115c:	0000e706 	br	8014fc <ffs_DiskIOIoctl+0x488>

      case GET_SECTOR_COUNT: /* Get number of sectors on the disk (DWORD) */
         if ((SendCMD(CMD9, 0) == 0) && ReceiveDatablock(csd, 16))
  801160:	01001244 	movi	r4,73
  801164:	000b883a 	mov	r5,zero
  801168:	08007e40 	call	8007e4 <SendCMD>
  80116c:	10803fcc 	andi	r2,r2,255
  801170:	10003f1e 	bne	r2,zero,801270 <ffs_DiskIOIoctl+0x1fc>
  801174:	e0bff784 	addi	r2,fp,-34
  801178:	1009883a 	mov	r4,r2
  80117c:	01400404 	movi	r5,16
  801180:	08004740 	call	800474 <ReceiveDatablock>
  801184:	10003a26 	beq	r2,zero,801270 <ffs_DiskIOIoctl+0x1fc>
         {
            if ((csd[0] >> 6) == 1)
  801188:	e0bff783 	ldbu	r2,-34(fp)
  80118c:	10803fcc 	andi	r2,r2,255
  801190:	1004d1ba 	srli	r2,r2,6
  801194:	10803fcc 	andi	r2,r2,255
  801198:	10800058 	cmpnei	r2,r2,1
  80119c:	10000d1e 	bne	r2,zero,8011d4 <ffs_DiskIOIoctl+0x160>
            {  /* SDC ver 2.00 */
               //@@MF csize = csd[9] + ((FFS_U16)csd[8] << 8) + 1;
               csize = (FFS_U16) ((FFS_U16) csd[9] | ((FFS_U16) csd[8] << 8)) + 1;
  8011a0:	e0bff9c3 	ldbu	r2,-25(fp)
  8011a4:	10803fcc 	andi	r2,r2,255
  8011a8:	e0fff983 	ldbu	r3,-26(fp)
  8011ac:	18c03fcc 	andi	r3,r3,255
  8011b0:	1806923a 	slli	r3,r3,8
  8011b4:	10c4b03a 	or	r2,r2,r3
  8011b8:	10800044 	addi	r2,r2,1
  8011bc:	e0bff70d 	sth	r2,-36(fp)
               *(FFS_U32 *) buff = (FFS_U32) csize << 10;
  8011c0:	e0bff70b 	ldhu	r2,-36(fp)
  8011c4:	100692ba 	slli	r3,r2,10
  8011c8:	e0bffe17 	ldw	r2,-8(fp)
  8011cc:	10c00015 	stw	r3,0(r2)
  8011d0:	00002506 	br	801268 <ffs_DiskIOIoctl+0x1f4>
            }
            else
            {  /* MMC or SDC ver 1.XX */
               n = (csd[5] & 15) + ((csd[10] & 128) >> 7) + ((csd[9] & 3) << 1) + 2;
  8011d4:	e0bff8c3 	ldbu	r2,-29(fp)
  8011d8:	108003cc 	andi	r2,r2,15
  8011dc:	1007883a 	mov	r3,r2
  8011e0:	e0bffa03 	ldbu	r2,-24(fp)
  8011e4:	10803fcc 	andi	r2,r2,255
  8011e8:	1004d1fa 	srli	r2,r2,7
  8011ec:	1885883a 	add	r2,r3,r2
  8011f0:	1007883a 	mov	r3,r2
  8011f4:	e0bff9c3 	ldbu	r2,-25(fp)
  8011f8:	108000cc 	andi	r2,r2,3
  8011fc:	1085883a 	add	r2,r2,r2
  801200:	1885883a 	add	r2,r3,r2
  801204:	10800084 	addi	r2,r2,2
  801208:	e0bff505 	stb	r2,-44(fp)
               csize = (csd[8] >> 6) + ((FFS_U16) csd[7] << 2) + ((FFS_U16) (csd[6] & 3) << 10) + 1;
  80120c:	e0bff983 	ldbu	r2,-26(fp)
  801210:	10803fcc 	andi	r2,r2,255
  801214:	1004d1ba 	srli	r2,r2,6
  801218:	10c03fcc 	andi	r3,r2,255
  80121c:	e0bff943 	ldbu	r2,-27(fp)
  801220:	10803fcc 	andi	r2,r2,255
  801224:	1085883a 	add	r2,r2,r2
  801228:	1085883a 	add	r2,r2,r2
  80122c:	1885883a 	add	r2,r3,r2
  801230:	1007883a 	mov	r3,r2
  801234:	e0bff903 	ldbu	r2,-28(fp)
  801238:	10803fcc 	andi	r2,r2,255
  80123c:	108000cc 	andi	r2,r2,3
  801240:	100492ba 	slli	r2,r2,10
  801244:	1885883a 	add	r2,r3,r2
  801248:	10800044 	addi	r2,r2,1
  80124c:	e0bff70d 	sth	r2,-36(fp)
               *(FFS_U32 *) buff = (FFS_U32) csize << (n - 9);
  801250:	e0fff70b 	ldhu	r3,-36(fp)
  801254:	e0bff503 	ldbu	r2,-44(fp)
  801258:	10bffdc4 	addi	r2,r2,-9
  80125c:	1886983a 	sll	r3,r3,r2
  801260:	e0bffe17 	ldw	r2,-8(fp)
  801264:	10c00015 	stw	r3,0(r2)
            }
            res = RES_OK;
  801268:	e03ff415 	stw	zero,-48(fp)
         }
         break;
  80126c:	0000a306 	br	8014fc <ffs_DiskIOIoctl+0x488>
  801270:	0000a206 	br	8014fc <ffs_DiskIOIoctl+0x488>

      case GET_SECTOR_SIZE:  /* Get sectors on the disk (WORD) */
         *(FFS_U16 *) buff = 512;
  801274:	e0bffe17 	ldw	r2,-8(fp)
  801278:	00c08004 	movi	r3,512
  80127c:	10c0000d 	sth	r3,0(r2)
         res = RES_OK;
  801280:	e03ff415 	stw	zero,-48(fp)
         break;
  801284:	00009d06 	br	8014fc <ffs_DiskIOIoctl+0x488>

      case GET_BLOCK_SIZE:   /* Get erase block size in unit of sectors (DWORD) */
         if (CardType & CT_SD2)
  801288:	d0a74203 	ldbu	r2,-25336(gp)
  80128c:	10803fcc 	andi	r2,r2,255
  801290:	1080010c 	andi	r2,r2,4
  801294:	10001e26 	beq	r2,zero,801310 <ffs_DiskIOIoctl+0x29c>
         {  /* SDC ver 2.00 */
            if (SendCMD(ACMD13, 0) == 0)
  801298:	01003344 	movi	r4,205
  80129c:	000b883a 	mov	r5,zero
  8012a0:	08007e40 	call	8007e4 <SendCMD>
  8012a4:	10803fcc 	andi	r2,r2,255
  8012a8:	1000521e 	bne	r2,zero,8013f4 <ffs_DiskIOIoctl+0x380>
            {  /* Read SD status */
               ReceiveU8();
  8012ac:	08004240 	call	800424 <ReceiveU8>
               if (ReceiveDatablock(csd, 16))
  8012b0:	e0bff784 	addi	r2,fp,-34
  8012b4:	1009883a 	mov	r4,r2
  8012b8:	01400404 	movi	r5,16
  8012bc:	08004740 	call	800474 <ReceiveDatablock>
  8012c0:	10004c26 	beq	r2,zero,8013f4 <ffs_DiskIOIoctl+0x380>
               {  /* Read partial block */
                  for (n = 64 - 16; n; n--)
  8012c4:	00800c04 	movi	r2,48
  8012c8:	e0bff505 	stb	r2,-44(fp)
  8012cc:	00000406 	br	8012e0 <ffs_DiskIOIoctl+0x26c>
                     ReceiveU8();   /* Purge trailing data */
  8012d0:	08004240 	call	800424 <ReceiveU8>
            if (SendCMD(ACMD13, 0) == 0)
            {  /* Read SD status */
               ReceiveU8();
               if (ReceiveDatablock(csd, 16))
               {  /* Read partial block */
                  for (n = 64 - 16; n; n--)
  8012d4:	e0bff503 	ldbu	r2,-44(fp)
  8012d8:	10bfffc4 	addi	r2,r2,-1
  8012dc:	e0bff505 	stb	r2,-44(fp)
  8012e0:	e0bff503 	ldbu	r2,-44(fp)
  8012e4:	103ffa1e 	bne	r2,zero,8012d0 <__alt_data_end+0xff8012d0>
                     ReceiveU8();   /* Purge trailing data */
                  *(FFS_U32 *) buff = 16UL << (csd[10] >> 4);
  8012e8:	e0bffa03 	ldbu	r2,-24(fp)
  8012ec:	10803fcc 	andi	r2,r2,255
  8012f0:	1004d13a 	srli	r2,r2,4
  8012f4:	10803fcc 	andi	r2,r2,255
  8012f8:	00c00404 	movi	r3,16
  8012fc:	1886983a 	sll	r3,r3,r2
  801300:	e0bffe17 	ldw	r2,-8(fp)
  801304:	10c00015 	stw	r3,0(r2)
                  res = RES_OK;
  801308:	e03ff415 	stw	zero,-48(fp)
                  *(FFS_U32 *) buff = ((FFS_U16) ((csd[10] & 124) >> 2) + 1) * (((csd[11] & 3) << 3) + ((csd[11] & 224) >> 5) + 1);
               }
               res = RES_OK;
            }
         }
         break;
  80130c:	00007b06 	br	8014fc <ffs_DiskIOIoctl+0x488>
               }
            }
         }
         else
         {  /* SDC ver 1.XX or MMC */
            if ((SendCMD(CMD9, 0) == 0) && ReceiveDatablock(csd, 16))
  801310:	01001244 	movi	r4,73
  801314:	000b883a 	mov	r5,zero
  801318:	08007e40 	call	8007e4 <SendCMD>
  80131c:	10803fcc 	andi	r2,r2,255
  801320:	1000341e 	bne	r2,zero,8013f4 <ffs_DiskIOIoctl+0x380>
  801324:	e0bff784 	addi	r2,fp,-34
  801328:	1009883a 	mov	r4,r2
  80132c:	01400404 	movi	r5,16
  801330:	08004740 	call	800474 <ReceiveDatablock>
  801334:	10002f26 	beq	r2,zero,8013f4 <ffs_DiskIOIoctl+0x380>
            {  /* Read CSD */
               if (CardType & CT_SD1)
  801338:	d0a74203 	ldbu	r2,-25336(gp)
  80133c:	10803fcc 	andi	r2,r2,255
  801340:	1080008c 	andi	r2,r2,2
  801344:	10001526 	beq	r2,zero,80139c <ffs_DiskIOIoctl+0x328>
               {  /* SDC ver 1.XX */
                  *(FFS_U32 *) buff = (((csd[10] & 63) << 1) + ((FFS_U16) (csd[11] & 128) >> 7) + 1) << ((csd[13] >> 6) - 1);
  801348:	e0bffa03 	ldbu	r2,-24(fp)
  80134c:	10803fcc 	andi	r2,r2,255
  801350:	10800fcc 	andi	r2,r2,63
  801354:	1085883a 	add	r2,r2,r2
  801358:	1007883a 	mov	r3,r2
  80135c:	e0bffa43 	ldbu	r2,-23(fp)
  801360:	10803fcc 	andi	r2,r2,255
  801364:	1004d1fa 	srli	r2,r2,7
  801368:	10803fcc 	andi	r2,r2,255
  80136c:	1885883a 	add	r2,r3,r2
  801370:	10c00044 	addi	r3,r2,1
  801374:	e0bffac3 	ldbu	r2,-21(fp)
  801378:	10803fcc 	andi	r2,r2,255
  80137c:	1004d1ba 	srli	r2,r2,6
  801380:	10803fcc 	andi	r2,r2,255
  801384:	10bfffc4 	addi	r2,r2,-1
  801388:	1884983a 	sll	r2,r3,r2
  80138c:	1007883a 	mov	r3,r2
  801390:	e0bffe17 	ldw	r2,-8(fp)
  801394:	10c00015 	stw	r3,0(r2)
  801398:	00001406 	br	8013ec <ffs_DiskIOIoctl+0x378>
               }
               else
               {  /* MMC */
                  *(FFS_U32 *) buff = ((FFS_U16) ((csd[10] & 124) >> 2) + 1) * (((csd[11] & 3) << 3) + ((csd[11] & 224) >> 5) + 1);
  80139c:	e0bffa03 	ldbu	r2,-24(fp)
  8013a0:	10803fcc 	andi	r2,r2,255
  8013a4:	10801f0c 	andi	r2,r2,124
  8013a8:	1005d0ba 	srai	r2,r2,2
  8013ac:	10bfffcc 	andi	r2,r2,65535
  8013b0:	10c00044 	addi	r3,r2,1
  8013b4:	e0bffa43 	ldbu	r2,-23(fp)
  8013b8:	10803fcc 	andi	r2,r2,255
  8013bc:	108000cc 	andi	r2,r2,3
  8013c0:	100890fa 	slli	r4,r2,3
  8013c4:	e0bffa43 	ldbu	r2,-23(fp)
  8013c8:	10803fcc 	andi	r2,r2,255
  8013cc:	1004d17a 	srli	r2,r2,5
  8013d0:	10803fcc 	andi	r2,r2,255
  8013d4:	2085883a 	add	r2,r4,r2
  8013d8:	10800044 	addi	r2,r2,1
  8013dc:	1885383a 	mul	r2,r3,r2
  8013e0:	1007883a 	mov	r3,r2
  8013e4:	e0bffe17 	ldw	r2,-8(fp)
  8013e8:	10c00015 	stw	r3,0(r2)
               }
               res = RES_OK;
  8013ec:	e03ff415 	stw	zero,-48(fp)
            }
         }
         break;
  8013f0:	00004206 	br	8014fc <ffs_DiskIOIoctl+0x488>
  8013f4:	00004106 	br	8014fc <ffs_DiskIOIoctl+0x488>
         
      /* Following command are not used by FatFs module */
         
      case MMC_GET_TYPE:  /* Get MMC/SDC type (BYTE) */
         *ptr = CardType;
  8013f8:	d0e74203 	ldbu	r3,-25336(gp)
  8013fc:	e0bff617 	ldw	r2,-40(fp)
  801400:	10c00005 	stb	r3,0(r2)
         res = RES_OK;
  801404:	e03ff415 	stw	zero,-48(fp)
         break;
  801408:	00003c06 	br	8014fc <ffs_DiskIOIoctl+0x488>

      case MMC_GET_CSD:   /* Receive CSD as a data block (16 bytes) */
         if (SendCMD(CMD9, 0) == 0  /* READ_CSD */
  80140c:	01001244 	movi	r4,73
  801410:	000b883a 	mov	r5,zero
  801414:	08007e40 	call	8007e4 <SendCMD>
  801418:	10803fcc 	andi	r2,r2,255
  80141c:	1000061e 	bne	r2,zero,801438 <ffs_DiskIOIoctl+0x3c4>
             && ReceiveDatablock(ptr, 16))
  801420:	e13ff617 	ldw	r4,-40(fp)
  801424:	01400404 	movi	r5,16
  801428:	08004740 	call	800474 <ReceiveDatablock>
  80142c:	10000226 	beq	r2,zero,801438 <ffs_DiskIOIoctl+0x3c4>
            res = RES_OK;
  801430:	e03ff415 	stw	zero,-48(fp)
         break;
  801434:	00003106 	br	8014fc <ffs_DiskIOIoctl+0x488>
  801438:	00003006 	br	8014fc <ffs_DiskIOIoctl+0x488>

      case MMC_GET_CID:   /* Receive CID as a data block (16 bytes) */
         if (SendCMD(CMD10, 0) == 0 /* READ_CID */
  80143c:	01001284 	movi	r4,74
  801440:	000b883a 	mov	r5,zero
  801444:	08007e40 	call	8007e4 <SendCMD>
  801448:	10803fcc 	andi	r2,r2,255
  80144c:	1000061e 	bne	r2,zero,801468 <ffs_DiskIOIoctl+0x3f4>
             && ReceiveDatablock(ptr, 16))
  801450:	e13ff617 	ldw	r4,-40(fp)
  801454:	01400404 	movi	r5,16
  801458:	08004740 	call	800474 <ReceiveDatablock>
  80145c:	10000226 	beq	r2,zero,801468 <ffs_DiskIOIoctl+0x3f4>
            res = RES_OK;
  801460:	e03ff415 	stw	zero,-48(fp)
         break;
  801464:	00002506 	br	8014fc <ffs_DiskIOIoctl+0x488>
  801468:	00002406 	br	8014fc <ffs_DiskIOIoctl+0x488>

      case MMC_GET_OCR:   /* Receive OCR as an R3 resp (4 bytes) */
         if (SendCMD(CMD58, 0) == 0)
  80146c:	01001e84 	movi	r4,122
  801470:	000b883a 	mov	r5,zero
  801474:	08007e40 	call	8007e4 <SendCMD>
  801478:	10803fcc 	andi	r2,r2,255
  80147c:	10000f1e 	bne	r2,zero,8014bc <ffs_DiskIOIoctl+0x448>
         {  /* READ_OCR */
            for (n = 0; n < 4; n++)
  801480:	e03ff505 	stb	zero,-44(fp)
  801484:	00000806 	br	8014a8 <ffs_DiskIOIoctl+0x434>
               *ptr++ = ReceiveU8();
  801488:	e43ff617 	ldw	r16,-40(fp)
  80148c:	80800044 	addi	r2,r16,1
  801490:	e0bff615 	stw	r2,-40(fp)
  801494:	08004240 	call	800424 <ReceiveU8>
  801498:	80800005 	stb	r2,0(r16)
         break;

      case MMC_GET_OCR:   /* Receive OCR as an R3 resp (4 bytes) */
         if (SendCMD(CMD58, 0) == 0)
         {  /* READ_OCR */
            for (n = 0; n < 4; n++)
  80149c:	e0bff503 	ldbu	r2,-44(fp)
  8014a0:	10800044 	addi	r2,r2,1
  8014a4:	e0bff505 	stb	r2,-44(fp)
  8014a8:	e0bff503 	ldbu	r2,-44(fp)
  8014ac:	10800130 	cmpltui	r2,r2,4
  8014b0:	103ff51e 	bne	r2,zero,801488 <__alt_data_end+0xff801488>
               *ptr++ = ReceiveU8();
            res = RES_OK;
  8014b4:	e03ff415 	stw	zero,-48(fp)
         }
         break;
  8014b8:	00001006 	br	8014fc <ffs_DiskIOIoctl+0x488>
  8014bc:	00000f06 	br	8014fc <ffs_DiskIOIoctl+0x488>

      case MMC_GET_SDSTAT:   /* Receive SD statsu as a data block (64 bytes) */
         if (SendCMD(ACMD13, 0) == 0)
  8014c0:	01003344 	movi	r4,205
  8014c4:	000b883a 	mov	r5,zero
  8014c8:	08007e40 	call	8007e4 <SendCMD>
  8014cc:	10803fcc 	andi	r2,r2,255
  8014d0:	1000071e 	bne	r2,zero,8014f0 <ffs_DiskIOIoctl+0x47c>
         {  /* SD_STATUS */
            ReceiveU8();
  8014d4:	08004240 	call	800424 <ReceiveU8>
            if (ReceiveDatablock(ptr, 64))
  8014d8:	e13ff617 	ldw	r4,-40(fp)
  8014dc:	01401004 	movi	r5,64
  8014e0:	08004740 	call	800474 <ReceiveDatablock>
  8014e4:	10000226 	beq	r2,zero,8014f0 <ffs_DiskIOIoctl+0x47c>
               res = RES_OK;
  8014e8:	e03ff415 	stw	zero,-48(fp)
         }
         break;
  8014ec:	00000306 	br	8014fc <ffs_DiskIOIoctl+0x488>
  8014f0:	00000206 	br	8014fc <ffs_DiskIOIoctl+0x488>

      default:
         res = RES_PARERR;
  8014f4:	00800104 	movi	r2,4
  8014f8:	e0bff415 	stw	r2,-48(fp)
   }

   ReleaseBus();
  8014fc:	08007a00 	call	8007a0 <ReleaseBus>

   return(res);
  801500:	e0bff417 	ldw	r2,-48(fp)
} /* ffs_DiskIOIoctl */
  801504:	e6ffff04 	addi	sp,fp,-4
  801508:	dfc00217 	ldw	ra,8(sp)
  80150c:	df000117 	ldw	fp,4(sp)
  801510:	dc000017 	ldw	r16,0(sp)
  801514:	dec00304 	addi	sp,sp,12
  801518:	f800283a 	ret

0080151c <get_fattime>:
/*  In    : none                                                           */
/*  Out   : none                                                           */
/*  Return: time                                                           */
/***************************************************************************/
FFS_U32 get_fattime (void)
{
  80151c:	defffe04 	addi	sp,sp,-8
  801520:	df000115 	stw	fp,4(sp)
  801524:	df000104 	addi	fp,sp,4
   FFS_U32 dTime;

   dTime = ((FFS_U32)(2008 - 1980) << 25) |
  801528:	008e57f4 	movhi	r2,14687
  80152c:	10a87844 	addi	r2,r2,-24095
  801530:	e0bfff15 	stw	r2,-4(fp)
                     ((FFS_U32) 30 << 16) | 
                     ((FFS_U32) 20 << 11) | 
                     ((FFS_U32) 15 << 5)  | 
                     ((FFS_U32) 2 >> 1);

   return(dTime);
  801534:	e0bfff17 	ldw	r2,-4(fp)
} /* get_fattime */
  801538:	e037883a 	mov	sp,fp
  80153c:	df000017 	ldw	fp,0(sp)
  801540:	dec00104 	addi	sp,sp,4
  801544:	f800283a 	ret

00801548 <mem_cpy>:
/* String functions                                                      */
/*-----------------------------------------------------------------------*/

/* Copy memory to memory */
static
void mem_cpy (void* dst, const void* src, uint32_t cnt) {
  801548:	defffa04 	addi	sp,sp,-24
  80154c:	df000515 	stw	fp,20(sp)
  801550:	df000504 	addi	fp,sp,20
  801554:	e13ffd15 	stw	r4,-12(fp)
  801558:	e17ffe15 	stw	r5,-8(fp)
  80155c:	e1bfff15 	stw	r6,-4(fp)
   uint8_t *d = (uint8_t*)dst;
  801560:	e0bffd17 	ldw	r2,-12(fp)
  801564:	e0bffb15 	stw	r2,-20(fp)
   const uint8_t *s = (const uint8_t*)src;
  801568:	e0bffe17 	ldw	r2,-8(fp)
  80156c:	e0bffc15 	stw	r2,-16(fp)
      *(int*)d = *(int*)s;
      d += sizeof(int); s += sizeof(int);
      cnt -= sizeof(int);
   }
#endif
   while (cnt--)
  801570:	00000806 	br	801594 <mem_cpy+0x4c>
      *d++ = *s++;
  801574:	e0bffb17 	ldw	r2,-20(fp)
  801578:	10c00044 	addi	r3,r2,1
  80157c:	e0fffb15 	stw	r3,-20(fp)
  801580:	e0fffc17 	ldw	r3,-16(fp)
  801584:	19000044 	addi	r4,r3,1
  801588:	e13ffc15 	stw	r4,-16(fp)
  80158c:	18c00003 	ldbu	r3,0(r3)
  801590:	10c00005 	stb	r3,0(r2)
      *(int*)d = *(int*)s;
      d += sizeof(int); s += sizeof(int);
      cnt -= sizeof(int);
   }
#endif
   while (cnt--)
  801594:	e0bfff17 	ldw	r2,-4(fp)
  801598:	10ffffc4 	addi	r3,r2,-1
  80159c:	e0ffff15 	stw	r3,-4(fp)
  8015a0:	103ff41e 	bne	r2,zero,801574 <__alt_data_end+0xff801574>
      *d++ = *s++;
}
  8015a4:	e037883a 	mov	sp,fp
  8015a8:	df000017 	ldw	fp,0(sp)
  8015ac:	dec00104 	addi	sp,sp,4
  8015b0:	f800283a 	ret

008015b4 <mem_set>:

/* Fill memory */
static
void mem_set (void* dst, int val, uint32_t cnt) {
  8015b4:	defffb04 	addi	sp,sp,-20
  8015b8:	df000415 	stw	fp,16(sp)
  8015bc:	df000404 	addi	fp,sp,16
  8015c0:	e13ffd15 	stw	r4,-12(fp)
  8015c4:	e17ffe15 	stw	r5,-8(fp)
  8015c8:	e1bfff15 	stw	r6,-4(fp)
   uint8_t *d = (uint8_t*)dst;
  8015cc:	e0bffd17 	ldw	r2,-12(fp)
  8015d0:	e0bffc15 	stw	r2,-16(fp)

   while (cnt--)
  8015d4:	00000506 	br	8015ec <mem_set+0x38>
      *d++ = (uint8_t)val;
  8015d8:	e0bffc17 	ldw	r2,-16(fp)
  8015dc:	10c00044 	addi	r3,r2,1
  8015e0:	e0fffc15 	stw	r3,-16(fp)
  8015e4:	e0fffe17 	ldw	r3,-8(fp)
  8015e8:	10c00005 	stb	r3,0(r2)
/* Fill memory */
static
void mem_set (void* dst, int val, uint32_t cnt) {
   uint8_t *d = (uint8_t*)dst;

   while (cnt--)
  8015ec:	e0bfff17 	ldw	r2,-4(fp)
  8015f0:	10ffffc4 	addi	r3,r2,-1
  8015f4:	e0ffff15 	stw	r3,-4(fp)
  8015f8:	103ff71e 	bne	r2,zero,8015d8 <__alt_data_end+0xff8015d8>
      *d++ = (uint8_t)val;
}
  8015fc:	e037883a 	mov	sp,fp
  801600:	df000017 	ldw	fp,0(sp)
  801604:	dec00104 	addi	sp,sp,4
  801608:	f800283a 	ret

0080160c <mem_cmp>:

/* Compare memory to memory */
static
int mem_cmp (const void* dst, const void* src, uint32_t cnt) {
  80160c:	defff904 	addi	sp,sp,-28
  801610:	df000615 	stw	fp,24(sp)
  801614:	df000604 	addi	fp,sp,24
  801618:	e13ffd15 	stw	r4,-12(fp)
  80161c:	e17ffe15 	stw	r5,-8(fp)
  801620:	e1bfff15 	stw	r6,-4(fp)
   const uint8_t *d = (const uint8_t *)dst, *s = (const uint8_t *)src;
  801624:	e0bffd17 	ldw	r2,-12(fp)
  801628:	e0bffa15 	stw	r2,-24(fp)
  80162c:	e0bffe17 	ldw	r2,-8(fp)
  801630:	e0bffb15 	stw	r2,-20(fp)
   int r = 0;
  801634:	e03ffc15 	stw	zero,-16(fp)

   while (cnt-- && (r = *d++ - *s++) == 0) ;
  801638:	0001883a 	nop
  80163c:	e0bfff17 	ldw	r2,-4(fp)
  801640:	10ffffc4 	addi	r3,r2,-1
  801644:	e0ffff15 	stw	r3,-4(fp)
  801648:	10000e26 	beq	r2,zero,801684 <mem_cmp+0x78>
  80164c:	e0bffa17 	ldw	r2,-24(fp)
  801650:	10c00044 	addi	r3,r2,1
  801654:	e0fffa15 	stw	r3,-24(fp)
  801658:	10800003 	ldbu	r2,0(r2)
  80165c:	10c03fcc 	andi	r3,r2,255
  801660:	e0bffb17 	ldw	r2,-20(fp)
  801664:	11000044 	addi	r4,r2,1
  801668:	e13ffb15 	stw	r4,-20(fp)
  80166c:	10800003 	ldbu	r2,0(r2)
  801670:	10803fcc 	andi	r2,r2,255
  801674:	1885c83a 	sub	r2,r3,r2
  801678:	e0bffc15 	stw	r2,-16(fp)
  80167c:	e0bffc17 	ldw	r2,-16(fp)
  801680:	103fee26 	beq	r2,zero,80163c <__alt_data_end+0xff80163c>
   return r;
  801684:	e0bffc17 	ldw	r2,-16(fp)
}
  801688:	e037883a 	mov	sp,fp
  80168c:	df000017 	ldw	fp,0(sp)
  801690:	dec00104 	addi	sp,sp,4
  801694:	f800283a 	ret

00801698 <chk_chr>:

/* Check if chr is contained in the string */
static
int chk_chr (const char* str, int chr) {
  801698:	defffd04 	addi	sp,sp,-12
  80169c:	df000215 	stw	fp,8(sp)
  8016a0:	df000204 	addi	fp,sp,8
  8016a4:	e13ffe15 	stw	r4,-8(fp)
  8016a8:	e17fff15 	stw	r5,-4(fp)
   while (*str && *str != chr) str++;
  8016ac:	00000306 	br	8016bc <chk_chr+0x24>
  8016b0:	e0bffe17 	ldw	r2,-8(fp)
  8016b4:	10800044 	addi	r2,r2,1
  8016b8:	e0bffe15 	stw	r2,-8(fp)
  8016bc:	e0bffe17 	ldw	r2,-8(fp)
  8016c0:	10800003 	ldbu	r2,0(r2)
  8016c4:	10803fcc 	andi	r2,r2,255
  8016c8:	1080201c 	xori	r2,r2,128
  8016cc:	10bfe004 	addi	r2,r2,-128
  8016d0:	10000726 	beq	r2,zero,8016f0 <chk_chr+0x58>
  8016d4:	e0bffe17 	ldw	r2,-8(fp)
  8016d8:	10800003 	ldbu	r2,0(r2)
  8016dc:	10c03fcc 	andi	r3,r2,255
  8016e0:	18c0201c 	xori	r3,r3,128
  8016e4:	18ffe004 	addi	r3,r3,-128
  8016e8:	e0bfff17 	ldw	r2,-4(fp)
  8016ec:	18bff01e 	bne	r3,r2,8016b0 <__alt_data_end+0xff8016b0>
   return *str;
  8016f0:	e0bffe17 	ldw	r2,-8(fp)
  8016f4:	10800003 	ldbu	r2,0(r2)
  8016f8:	10803fcc 	andi	r2,r2,255
  8016fc:	1080201c 	xori	r2,r2,128
  801700:	10bfe004 	addi	r2,r2,-128
}
  801704:	e037883a 	mov	sp,fp
  801708:	df000017 	ldw	fp,0(sp)
  80170c:	dec00104 	addi	sp,sp,4
  801710:	f800283a 	ret

00801714 <move_window>:
static
FRESULT move_window (
   FATFS *fs,     /* File system object */
   uint32_t sector   /* Sector number to make appearance in the fs->win[] */
)              /* Move to zero only writes back dirty window */
{
  801714:	defffa04 	addi	sp,sp,-24
  801718:	dfc00515 	stw	ra,20(sp)
  80171c:	df000415 	stw	fp,16(sp)
  801720:	df000404 	addi	fp,sp,16
  801724:	e13ffe15 	stw	r4,-8(fp)
  801728:	e17fff15 	stw	r5,-4(fp)
   uint32_t wsect;


   wsect = fs->winsect;
  80172c:	e0bffe17 	ldw	r2,-8(fp)
  801730:	10800b17 	ldw	r2,44(r2)
  801734:	e0bffc15 	stw	r2,-16(fp)
   if (wsect != sector) {  /* Changed current window */
  801738:	e0fffc17 	ldw	r3,-16(fp)
  80173c:	e0bfff17 	ldw	r2,-4(fp)
  801740:	18804526 	beq	r3,r2,801858 <move_window+0x144>
#if !_FS_READONLY
      if (fs->wflag) {  /* Write back dirty window if needed */
  801744:	e0bffe17 	ldw	r2,-8(fp)
  801748:	10800103 	ldbu	r2,4(r2)
  80174c:	10803fcc 	andi	r2,r2,255
  801750:	10002f26 	beq	r2,zero,801810 <move_window+0xfc>
         if (disk_write(fs->drv, fs->win, wsect, 1) != RES_OK)
  801754:	e0bffe17 	ldw	r2,-8(fp)
  801758:	10800043 	ldbu	r2,1(r2)
  80175c:	10c03fcc 	andi	r3,r2,255
  801760:	e0bffe17 	ldw	r2,-8(fp)
  801764:	10800c04 	addi	r2,r2,48
  801768:	1809883a 	mov	r4,r3
  80176c:	100b883a 	mov	r5,r2
  801770:	e1bffc17 	ldw	r6,-16(fp)
  801774:	01c00044 	movi	r7,1
  801778:	0800f080 	call	800f08 <ffs_DiskIOWrite>
  80177c:	10000226 	beq	r2,zero,801788 <move_window+0x74>
            return FR_DISK_ERR;
  801780:	00800044 	movi	r2,1
  801784:	00003506 	br	80185c <move_window+0x148>
         fs->wflag = 0;
  801788:	e0bffe17 	ldw	r2,-8(fp)
  80178c:	10000105 	stb	zero,4(r2)
         if (wsect < (fs->fatbase + fs->fsize)) {  /* In FAT area */
  801790:	e0bffe17 	ldw	r2,-8(fp)
  801794:	10c00817 	ldw	r3,32(r2)
  801798:	e0bffe17 	ldw	r2,-8(fp)
  80179c:	10800717 	ldw	r2,28(r2)
  8017a0:	1885883a 	add	r2,r3,r2
  8017a4:	e0fffc17 	ldw	r3,-16(fp)
  8017a8:	1880192e 	bgeu	r3,r2,801810 <move_window+0xfc>
            uint8_t nf;
            for (nf = fs->n_fats; nf > 1; nf--) {  /* Reflect the change to all FAT copies */
  8017ac:	e0bffe17 	ldw	r2,-8(fp)
  8017b0:	108000c3 	ldbu	r2,3(r2)
  8017b4:	e0bffd05 	stb	r2,-12(fp)
  8017b8:	00001206 	br	801804 <move_window+0xf0>
               wsect += fs->fsize;
  8017bc:	e0bffe17 	ldw	r2,-8(fp)
  8017c0:	10800717 	ldw	r2,28(r2)
  8017c4:	e0fffc17 	ldw	r3,-16(fp)
  8017c8:	1885883a 	add	r2,r3,r2
  8017cc:	e0bffc15 	stw	r2,-16(fp)
               disk_write(fs->drv, fs->win, wsect, 1);
  8017d0:	e0bffe17 	ldw	r2,-8(fp)
  8017d4:	10800043 	ldbu	r2,1(r2)
  8017d8:	10c03fcc 	andi	r3,r2,255
  8017dc:	e0bffe17 	ldw	r2,-8(fp)
  8017e0:	10800c04 	addi	r2,r2,48
  8017e4:	1809883a 	mov	r4,r3
  8017e8:	100b883a 	mov	r5,r2
  8017ec:	e1bffc17 	ldw	r6,-16(fp)
  8017f0:	01c00044 	movi	r7,1
  8017f4:	0800f080 	call	800f08 <ffs_DiskIOWrite>
         if (disk_write(fs->drv, fs->win, wsect, 1) != RES_OK)
            return FR_DISK_ERR;
         fs->wflag = 0;
         if (wsect < (fs->fatbase + fs->fsize)) {  /* In FAT area */
            uint8_t nf;
            for (nf = fs->n_fats; nf > 1; nf--) {  /* Reflect the change to all FAT copies */
  8017f8:	e0bffd03 	ldbu	r2,-12(fp)
  8017fc:	10bfffc4 	addi	r2,r2,-1
  801800:	e0bffd05 	stb	r2,-12(fp)
  801804:	e0bffd03 	ldbu	r2,-12(fp)
  801808:	108000a8 	cmpgeui	r2,r2,2
  80180c:	103feb1e 	bne	r2,zero,8017bc <__alt_data_end+0xff8017bc>
               disk_write(fs->drv, fs->win, wsect, 1);
            }
         }
      }
#endif
      if (sector) {
  801810:	e0bfff17 	ldw	r2,-4(fp)
  801814:	10001026 	beq	r2,zero,801858 <move_window+0x144>
         if (disk_read(fs->drv, fs->win, sector, 1) != RES_OK)
  801818:	e0bffe17 	ldw	r2,-8(fp)
  80181c:	10800043 	ldbu	r2,1(r2)
  801820:	10c03fcc 	andi	r3,r2,255
  801824:	e0bffe17 	ldw	r2,-8(fp)
  801828:	10800c04 	addi	r2,r2,48
  80182c:	1809883a 	mov	r4,r3
  801830:	100b883a 	mov	r5,r2
  801834:	e1bfff17 	ldw	r6,-4(fp)
  801838:	01c00044 	movi	r7,1
  80183c:	0800dec0 	call	800dec <ffs_DiskIORead>
  801840:	10000226 	beq	r2,zero,80184c <move_window+0x138>
            return FR_DISK_ERR;
  801844:	00800044 	movi	r2,1
  801848:	00000406 	br	80185c <move_window+0x148>
         fs->winsect = sector;
  80184c:	e0bffe17 	ldw	r2,-8(fp)
  801850:	e0ffff17 	ldw	r3,-4(fp)
  801854:	10c00b15 	stw	r3,44(r2)
      }
   }

   return FR_OK;
  801858:	0005883a 	mov	r2,zero
}
  80185c:	e037883a 	mov	sp,fp
  801860:	dfc00117 	ldw	ra,4(sp)
  801864:	df000017 	ldw	fp,0(sp)
  801868:	dec00204 	addi	sp,sp,8
  80186c:	f800283a 	ret

00801870 <sync>:
#if !_FS_READONLY
static
FRESULT sync ( /* FR_OK: successful, FR_DISK_ERR: failed */
   FATFS *fs   /* File system object */
)
{
  801870:	defffc04 	addi	sp,sp,-16
  801874:	dfc00315 	stw	ra,12(sp)
  801878:	df000215 	stw	fp,8(sp)
  80187c:	df000204 	addi	fp,sp,8
  801880:	e13fff15 	stw	r4,-4(fp)
   FRESULT res;


   res = move_window(fs, 0);
  801884:	e13fff17 	ldw	r4,-4(fp)
  801888:	000b883a 	mov	r5,zero
  80188c:	08017140 	call	801714 <move_window>
  801890:	e0bffe15 	stw	r2,-8(fp)
   if (res == FR_OK) {
  801894:	e0bffe17 	ldw	r2,-8(fp)
  801898:	1000761e 	bne	r2,zero,801a74 <sync+0x204>
      /* Update FSInfo sector if needed */
      if (fs->fs_type == FS_FAT32 && fs->fsi_flag) {
  80189c:	e0bfff17 	ldw	r2,-4(fp)
  8018a0:	10800003 	ldbu	r2,0(r2)
  8018a4:	10803fcc 	andi	r2,r2,255
  8018a8:	108000d8 	cmpnei	r2,r2,3
  8018ac:	1000671e 	bne	r2,zero,801a4c <sync+0x1dc>
  8018b0:	e0bfff17 	ldw	r2,-4(fp)
  8018b4:	10800143 	ldbu	r2,5(r2)
  8018b8:	10803fcc 	andi	r2,r2,255
  8018bc:	10006326 	beq	r2,zero,801a4c <sync+0x1dc>
         fs->winsect = 0;
  8018c0:	e0bfff17 	ldw	r2,-4(fp)
  8018c4:	10000b15 	stw	zero,44(r2)
         /* Create FSInfo structure */
         mem_set(fs->win, 0, 512);
  8018c8:	e0bfff17 	ldw	r2,-4(fp)
  8018cc:	10800c04 	addi	r2,r2,48
  8018d0:	1009883a 	mov	r4,r2
  8018d4:	000b883a 	mov	r5,zero
  8018d8:	01808004 	movi	r6,512
  8018dc:	08015b40 	call	8015b4 <mem_set>
         ST_WORD(fs->win+BS_55AA, 0xAA55);
  8018e0:	e0bfff17 	ldw	r2,-4(fp)
  8018e4:	00c01544 	movi	r3,85
  8018e8:	10c08b85 	stb	r3,558(r2)
  8018ec:	e0bfff17 	ldw	r2,-4(fp)
  8018f0:	00ffea84 	movi	r3,-86
  8018f4:	10c08bc5 	stb	r3,559(r2)
         ST_DWORD(fs->win+FSI_LeadSig, 0x41615252);
  8018f8:	e0bfff17 	ldw	r2,-4(fp)
  8018fc:	00c01484 	movi	r3,82
  801900:	10c00c05 	stb	r3,48(r2)
  801904:	e0bfff17 	ldw	r2,-4(fp)
  801908:	00c01484 	movi	r3,82
  80190c:	10c00c45 	stb	r3,49(r2)
  801910:	e0bfff17 	ldw	r2,-4(fp)
  801914:	00c01844 	movi	r3,97
  801918:	10c00c85 	stb	r3,50(r2)
  80191c:	e0bfff17 	ldw	r2,-4(fp)
  801920:	00c01044 	movi	r3,65
  801924:	10c00cc5 	stb	r3,51(r2)
         ST_DWORD(fs->win+FSI_StrucSig, 0x61417272);
  801928:	e0bfff17 	ldw	r2,-4(fp)
  80192c:	00c01c84 	movi	r3,114
  801930:	10c08505 	stb	r3,532(r2)
  801934:	e0bfff17 	ldw	r2,-4(fp)
  801938:	00c01c84 	movi	r3,114
  80193c:	10c08545 	stb	r3,533(r2)
  801940:	e0bfff17 	ldw	r2,-4(fp)
  801944:	00c01044 	movi	r3,65
  801948:	10c08585 	stb	r3,534(r2)
  80194c:	e0bfff17 	ldw	r2,-4(fp)
  801950:	00c01844 	movi	r3,97
  801954:	10c085c5 	stb	r3,535(r2)
         ST_DWORD(fs->win+FSI_Free_Count, fs->free_clust);
  801958:	e0bfff17 	ldw	r2,-4(fp)
  80195c:	10800417 	ldw	r2,16(r2)
  801960:	1007883a 	mov	r3,r2
  801964:	e0bfff17 	ldw	r2,-4(fp)
  801968:	10c08605 	stb	r3,536(r2)
  80196c:	e0bfff17 	ldw	r2,-4(fp)
  801970:	10800417 	ldw	r2,16(r2)
  801974:	10bfffcc 	andi	r2,r2,65535
  801978:	1004d23a 	srli	r2,r2,8
  80197c:	1007883a 	mov	r3,r2
  801980:	e0bfff17 	ldw	r2,-4(fp)
  801984:	10c08645 	stb	r3,537(r2)
  801988:	e0bfff17 	ldw	r2,-4(fp)
  80198c:	10800417 	ldw	r2,16(r2)
  801990:	1004d43a 	srli	r2,r2,16
  801994:	1007883a 	mov	r3,r2
  801998:	e0bfff17 	ldw	r2,-4(fp)
  80199c:	10c08685 	stb	r3,538(r2)
  8019a0:	e0bfff17 	ldw	r2,-4(fp)
  8019a4:	10800417 	ldw	r2,16(r2)
  8019a8:	1004d63a 	srli	r2,r2,24
  8019ac:	1007883a 	mov	r3,r2
  8019b0:	e0bfff17 	ldw	r2,-4(fp)
  8019b4:	10c086c5 	stb	r3,539(r2)
         ST_DWORD(fs->win+FSI_Nxt_Free, fs->last_clust);
  8019b8:	e0bfff17 	ldw	r2,-4(fp)
  8019bc:	10800317 	ldw	r2,12(r2)
  8019c0:	1007883a 	mov	r3,r2
  8019c4:	e0bfff17 	ldw	r2,-4(fp)
  8019c8:	10c08705 	stb	r3,540(r2)
  8019cc:	e0bfff17 	ldw	r2,-4(fp)
  8019d0:	10800317 	ldw	r2,12(r2)
  8019d4:	10bfffcc 	andi	r2,r2,65535
  8019d8:	1004d23a 	srli	r2,r2,8
  8019dc:	1007883a 	mov	r3,r2
  8019e0:	e0bfff17 	ldw	r2,-4(fp)
  8019e4:	10c08745 	stb	r3,541(r2)
  8019e8:	e0bfff17 	ldw	r2,-4(fp)
  8019ec:	10800317 	ldw	r2,12(r2)
  8019f0:	1004d43a 	srli	r2,r2,16
  8019f4:	1007883a 	mov	r3,r2
  8019f8:	e0bfff17 	ldw	r2,-4(fp)
  8019fc:	10c08785 	stb	r3,542(r2)
  801a00:	e0bfff17 	ldw	r2,-4(fp)
  801a04:	10800317 	ldw	r2,12(r2)
  801a08:	1004d63a 	srli	r2,r2,24
  801a0c:	1007883a 	mov	r3,r2
  801a10:	e0bfff17 	ldw	r2,-4(fp)
  801a14:	10c087c5 	stb	r3,543(r2)
         /* Write it into the FSInfo sector */
         disk_write(fs->drv, fs->win, fs->fsi_sector, 1);
  801a18:	e0bfff17 	ldw	r2,-4(fp)
  801a1c:	10800043 	ldbu	r2,1(r2)
  801a20:	11003fcc 	andi	r4,r2,255
  801a24:	e0bfff17 	ldw	r2,-4(fp)
  801a28:	10c00c04 	addi	r3,r2,48
  801a2c:	e0bfff17 	ldw	r2,-4(fp)
  801a30:	10800517 	ldw	r2,20(r2)
  801a34:	180b883a 	mov	r5,r3
  801a38:	100d883a 	mov	r6,r2
  801a3c:	01c00044 	movi	r7,1
  801a40:	0800f080 	call	800f08 <ffs_DiskIOWrite>
         fs->fsi_flag = 0;
  801a44:	e0bfff17 	ldw	r2,-4(fp)
  801a48:	10000145 	stb	zero,5(r2)
      }
      /* Make sure that no pending write process in the physical drive */
      if (disk_ioctl(fs->drv, CTRL_SYNC, 0) != RES_OK)
  801a4c:	e0bfff17 	ldw	r2,-4(fp)
  801a50:	10800043 	ldbu	r2,1(r2)
  801a54:	10803fcc 	andi	r2,r2,255
  801a58:	1009883a 	mov	r4,r2
  801a5c:	000b883a 	mov	r5,zero
  801a60:	000d883a 	mov	r6,zero
  801a64:	08010740 	call	801074 <ffs_DiskIOIoctl>
  801a68:	10000226 	beq	r2,zero,801a74 <sync+0x204>
         res = FR_DISK_ERR;
  801a6c:	00800044 	movi	r2,1
  801a70:	e0bffe15 	stw	r2,-8(fp)
   }

   return res;
  801a74:	e0bffe17 	ldw	r2,-8(fp)
}
  801a78:	e037883a 	mov	sp,fp
  801a7c:	dfc00117 	ldw	ra,4(sp)
  801a80:	df000017 	ldw	fp,0(sp)
  801a84:	dec00204 	addi	sp,sp,8
  801a88:	f800283a 	ret

00801a8c <clust2sect>:

uint32_t clust2sect (   /* !=0: Sector number, 0: Failed - invalid cluster# */
   FATFS *fs,     /* File system object */
   uint32_t clst     /* Cluster# to be converted */
)
{
  801a8c:	defffd04 	addi	sp,sp,-12
  801a90:	df000215 	stw	fp,8(sp)
  801a94:	df000204 	addi	fp,sp,8
  801a98:	e13ffe15 	stw	r4,-8(fp)
  801a9c:	e17fff15 	stw	r5,-4(fp)
   clst -= 2;
  801aa0:	e0bfff17 	ldw	r2,-4(fp)
  801aa4:	10bfff84 	addi	r2,r2,-2
  801aa8:	e0bfff15 	stw	r2,-4(fp)
   if (clst >= (fs->n_fatent - 2)) return 0;    /* Invalid cluster# */
  801aac:	e0bffe17 	ldw	r2,-8(fp)
  801ab0:	10800617 	ldw	r2,24(r2)
  801ab4:	10bfff84 	addi	r2,r2,-2
  801ab8:	e0ffff17 	ldw	r3,-4(fp)
  801abc:	18800236 	bltu	r3,r2,801ac8 <clust2sect+0x3c>
  801ac0:	0005883a 	mov	r2,zero
  801ac4:	00000806 	br	801ae8 <clust2sect+0x5c>
   return clst * fs->csize + fs->database;
  801ac8:	e0bffe17 	ldw	r2,-8(fp)
  801acc:	10800083 	ldbu	r2,2(r2)
  801ad0:	10c03fcc 	andi	r3,r2,255
  801ad4:	e0bfff17 	ldw	r2,-4(fp)
  801ad8:	1887383a 	mul	r3,r3,r2
  801adc:	e0bffe17 	ldw	r2,-8(fp)
  801ae0:	10800a17 	ldw	r2,40(r2)
  801ae4:	1885883a 	add	r2,r3,r2
}
  801ae8:	e037883a 	mov	sp,fp
  801aec:	df000017 	ldw	fp,0(sp)
  801af0:	dec00104 	addi	sp,sp,4
  801af4:	f800283a 	ret

00801af8 <get_fat>:

uint32_t get_fat (   /* 0xFFFFFFFF:Disk error, 1:Internal error, Else:Cluster status */
   FATFS *fs,  /* File system object */
   uint32_t clst  /* Cluster# to get the link information */
)
{
  801af8:	defff904 	addi	sp,sp,-28
  801afc:	dfc00615 	stw	ra,24(sp)
  801b00:	df000515 	stw	fp,20(sp)
  801b04:	df000504 	addi	fp,sp,20
  801b08:	e13ffe15 	stw	r4,-8(fp)
  801b0c:	e17fff15 	stw	r5,-4(fp)
   uint32_t wc, bc;
   uint8_t *p;


   if (clst < 2 || clst >= fs->n_fatent)  /* Chack range */
  801b10:	e0bfff17 	ldw	r2,-4(fp)
  801b14:	108000b0 	cmpltui	r2,r2,2
  801b18:	1000041e 	bne	r2,zero,801b2c <get_fat+0x34>
  801b1c:	e0bffe17 	ldw	r2,-8(fp)
  801b20:	10800617 	ldw	r2,24(r2)
  801b24:	e0ffff17 	ldw	r3,-4(fp)
  801b28:	18800236 	bltu	r3,r2,801b34 <get_fat+0x3c>
      return 1;
  801b2c:	00800044 	movi	r2,1
  801b30:	00008d06 	br	801d68 <get_fat+0x270>

   switch (fs->fs_type) {
  801b34:	e0bffe17 	ldw	r2,-8(fp)
  801b38:	10800003 	ldbu	r2,0(r2)
  801b3c:	10803fcc 	andi	r2,r2,255
  801b40:	10c000a0 	cmpeqi	r3,r2,2
  801b44:	18003f1e 	bne	r3,zero,801c44 <get_fat+0x14c>
  801b48:	10c000e0 	cmpeqi	r3,r2,3
  801b4c:	18005a1e 	bne	r3,zero,801cb8 <get_fat+0x1c0>
  801b50:	10800060 	cmpeqi	r2,r2,1
  801b54:	10008326 	beq	r2,zero,801d64 <get_fat+0x26c>
   case FS_FAT12 :
      bc = (uint32_t)clst; bc += bc / 2;
  801b58:	e0bfff17 	ldw	r2,-4(fp)
  801b5c:	e0bffb15 	stw	r2,-20(fp)
  801b60:	e0bffb17 	ldw	r2,-20(fp)
  801b64:	1004d07a 	srli	r2,r2,1
  801b68:	e0fffb17 	ldw	r3,-20(fp)
  801b6c:	1885883a 	add	r2,r3,r2
  801b70:	e0bffb15 	stw	r2,-20(fp)
      if (move_window(fs, fs->fatbase + (bc / SS(fs)))) break;
  801b74:	e0bffe17 	ldw	r2,-8(fp)
  801b78:	10c00817 	ldw	r3,32(r2)
  801b7c:	e0bffb17 	ldw	r2,-20(fp)
  801b80:	1004d27a 	srli	r2,r2,9
  801b84:	1885883a 	add	r2,r3,r2
  801b88:	e13ffe17 	ldw	r4,-8(fp)
  801b8c:	100b883a 	mov	r5,r2
  801b90:	08017140 	call	801714 <move_window>
  801b94:	10000126 	beq	r2,zero,801b9c <get_fat+0xa4>
  801b98:	00007206 	br	801d64 <get_fat+0x26c>
      wc = fs->win[bc % SS(fs)]; bc++;
  801b9c:	e0bffb17 	ldw	r2,-20(fp)
  801ba0:	10807fcc 	andi	r2,r2,511
  801ba4:	e0fffe17 	ldw	r3,-8(fp)
  801ba8:	1885883a 	add	r2,r3,r2
  801bac:	10800c04 	addi	r2,r2,48
  801bb0:	10800003 	ldbu	r2,0(r2)
  801bb4:	10803fcc 	andi	r2,r2,255
  801bb8:	e0bffc15 	stw	r2,-16(fp)
  801bbc:	e0bffb17 	ldw	r2,-20(fp)
  801bc0:	10800044 	addi	r2,r2,1
  801bc4:	e0bffb15 	stw	r2,-20(fp)
      if (move_window(fs, fs->fatbase + (bc / SS(fs)))) break;
  801bc8:	e0bffe17 	ldw	r2,-8(fp)
  801bcc:	10c00817 	ldw	r3,32(r2)
  801bd0:	e0bffb17 	ldw	r2,-20(fp)
  801bd4:	1004d27a 	srli	r2,r2,9
  801bd8:	1885883a 	add	r2,r3,r2
  801bdc:	e13ffe17 	ldw	r4,-8(fp)
  801be0:	100b883a 	mov	r5,r2
  801be4:	08017140 	call	801714 <move_window>
  801be8:	10000126 	beq	r2,zero,801bf0 <get_fat+0xf8>
  801bec:	00005d06 	br	801d64 <get_fat+0x26c>
      wc |= fs->win[bc % SS(fs)] << 8;
  801bf0:	e0bffb17 	ldw	r2,-20(fp)
  801bf4:	10807fcc 	andi	r2,r2,511
  801bf8:	e0fffe17 	ldw	r3,-8(fp)
  801bfc:	1885883a 	add	r2,r3,r2
  801c00:	10800c04 	addi	r2,r2,48
  801c04:	10800003 	ldbu	r2,0(r2)
  801c08:	10803fcc 	andi	r2,r2,255
  801c0c:	1004923a 	slli	r2,r2,8
  801c10:	1007883a 	mov	r3,r2
  801c14:	e0bffc17 	ldw	r2,-16(fp)
  801c18:	10c4b03a 	or	r2,r2,r3
  801c1c:	e0bffc15 	stw	r2,-16(fp)
      return (clst & 1) ? (wc >> 4) : (wc & 0xFFF);
  801c20:	e0bfff17 	ldw	r2,-4(fp)
  801c24:	1080004c 	andi	r2,r2,1
  801c28:	10000326 	beq	r2,zero,801c38 <get_fat+0x140>
  801c2c:	e0bffc17 	ldw	r2,-16(fp)
  801c30:	1004d13a 	srli	r2,r2,4
  801c34:	00004c06 	br	801d68 <get_fat+0x270>
  801c38:	e0bffc17 	ldw	r2,-16(fp)
  801c3c:	1083ffcc 	andi	r2,r2,4095
  801c40:	00004906 	br	801d68 <get_fat+0x270>

   case FS_FAT16 :
      if (move_window(fs, fs->fatbase + (clst / (SS(fs) / 2)))) break;
  801c44:	e0bffe17 	ldw	r2,-8(fp)
  801c48:	10c00817 	ldw	r3,32(r2)
  801c4c:	e0bfff17 	ldw	r2,-4(fp)
  801c50:	1004d23a 	srli	r2,r2,8
  801c54:	1885883a 	add	r2,r3,r2
  801c58:	e13ffe17 	ldw	r4,-8(fp)
  801c5c:	100b883a 	mov	r5,r2
  801c60:	08017140 	call	801714 <move_window>
  801c64:	10000126 	beq	r2,zero,801c6c <get_fat+0x174>
  801c68:	00003e06 	br	801d64 <get_fat+0x26c>
      p = &fs->win[clst * 2 % SS(fs)];
  801c6c:	e0bfff17 	ldw	r2,-4(fp)
  801c70:	1085883a 	add	r2,r2,r2
  801c74:	10807f8c 	andi	r2,r2,510
  801c78:	10800c04 	addi	r2,r2,48
  801c7c:	e0fffe17 	ldw	r3,-8(fp)
  801c80:	1885883a 	add	r2,r3,r2
  801c84:	e0bffd15 	stw	r2,-12(fp)
      return LD_WORD(p);
  801c88:	e0bffd17 	ldw	r2,-12(fp)
  801c8c:	10800044 	addi	r2,r2,1
  801c90:	10800003 	ldbu	r2,0(r2)
  801c94:	10803fcc 	andi	r2,r2,255
  801c98:	1004923a 	slli	r2,r2,8
  801c9c:	1007883a 	mov	r3,r2
  801ca0:	e0bffd17 	ldw	r2,-12(fp)
  801ca4:	10800003 	ldbu	r2,0(r2)
  801ca8:	10803fcc 	andi	r2,r2,255
  801cac:	1884b03a 	or	r2,r3,r2
  801cb0:	10bfffcc 	andi	r2,r2,65535
  801cb4:	00002c06 	br	801d68 <get_fat+0x270>

   case FS_FAT32 :
      if (move_window(fs, fs->fatbase + (clst / (SS(fs) / 4)))) break;
  801cb8:	e0bffe17 	ldw	r2,-8(fp)
  801cbc:	10c00817 	ldw	r3,32(r2)
  801cc0:	e0bfff17 	ldw	r2,-4(fp)
  801cc4:	1004d1fa 	srli	r2,r2,7
  801cc8:	1885883a 	add	r2,r3,r2
  801ccc:	e13ffe17 	ldw	r4,-8(fp)
  801cd0:	100b883a 	mov	r5,r2
  801cd4:	08017140 	call	801714 <move_window>
  801cd8:	10000126 	beq	r2,zero,801ce0 <get_fat+0x1e8>
  801cdc:	00002106 	br	801d64 <get_fat+0x26c>
      p = &fs->win[clst * 4 % SS(fs)];
  801ce0:	e0bfff17 	ldw	r2,-4(fp)
  801ce4:	1085883a 	add	r2,r2,r2
  801ce8:	1085883a 	add	r2,r2,r2
  801cec:	10807f0c 	andi	r2,r2,508
  801cf0:	10800c04 	addi	r2,r2,48
  801cf4:	e0fffe17 	ldw	r3,-8(fp)
  801cf8:	1885883a 	add	r2,r3,r2
  801cfc:	e0bffd15 	stw	r2,-12(fp)
      return LD_DWORD(p) & 0x0FFFFFFF;
  801d00:	e0bffd17 	ldw	r2,-12(fp)
  801d04:	108000c4 	addi	r2,r2,3
  801d08:	10800003 	ldbu	r2,0(r2)
  801d0c:	10803fcc 	andi	r2,r2,255
  801d10:	1006963a 	slli	r3,r2,24
  801d14:	e0bffd17 	ldw	r2,-12(fp)
  801d18:	10800084 	addi	r2,r2,2
  801d1c:	10800003 	ldbu	r2,0(r2)
  801d20:	10803fcc 	andi	r2,r2,255
  801d24:	1004943a 	slli	r2,r2,16
  801d28:	1884b03a 	or	r2,r3,r2
  801d2c:	e0fffd17 	ldw	r3,-12(fp)
  801d30:	18c00044 	addi	r3,r3,1
  801d34:	18c00003 	ldbu	r3,0(r3)
  801d38:	18c03fcc 	andi	r3,r3,255
  801d3c:	1806923a 	slli	r3,r3,8
  801d40:	10c6b03a 	or	r3,r2,r3
  801d44:	e0bffd17 	ldw	r2,-12(fp)
  801d48:	10800003 	ldbu	r2,0(r2)
  801d4c:	10803fcc 	andi	r2,r2,255
  801d50:	1886b03a 	or	r3,r3,r2
  801d54:	00840034 	movhi	r2,4096
  801d58:	10bfffc4 	addi	r2,r2,-1
  801d5c:	1884703a 	and	r2,r3,r2
  801d60:	00000106 	br	801d68 <get_fat+0x270>
   }

   return 0xFFFFFFFF;   /* An error occurred at the disk I/O layer */
  801d64:	00bfffc4 	movi	r2,-1
}
  801d68:	e037883a 	mov	sp,fp
  801d6c:	dfc00117 	ldw	ra,4(sp)
  801d70:	df000017 	ldw	fp,0(sp)
  801d74:	dec00204 	addi	sp,sp,8
  801d78:	f800283a 	ret

00801d7c <put_fat>:
FRESULT put_fat (
   FATFS *fs,  /* File system object */
   uint32_t clst, /* Cluster# to be changed in range of 2 to fs->n_fatent - 1 */
   uint32_t val   /* New value to mark the cluster */
)
{
  801d7c:	defff804 	addi	sp,sp,-32
  801d80:	dfc00715 	stw	ra,28(sp)
  801d84:	df000615 	stw	fp,24(sp)
  801d88:	df000604 	addi	fp,sp,24
  801d8c:	e13ffd15 	stw	r4,-12(fp)
  801d90:	e17ffe15 	stw	r5,-8(fp)
  801d94:	e1bfff15 	stw	r6,-4(fp)
   uint32_t bc;
   uint8_t *p;
   FRESULT res;


   if (clst < 2 || clst >= fs->n_fatent) {   /* Check range */
  801d98:	e0bffe17 	ldw	r2,-8(fp)
  801d9c:	108000b0 	cmpltui	r2,r2,2
  801da0:	1000041e 	bne	r2,zero,801db4 <put_fat+0x38>
  801da4:	e0bffd17 	ldw	r2,-12(fp)
  801da8:	10800617 	ldw	r2,24(r2)
  801dac:	e0fffe17 	ldw	r3,-8(fp)
  801db0:	18800336 	bltu	r3,r2,801dc0 <put_fat+0x44>
      res = FR_INT_ERR;
  801db4:	00800084 	movi	r2,2
  801db8:	e0bffa15 	stw	r2,-24(fp)
  801dbc:	0000c506 	br	8020d4 <put_fat+0x358>

   } else {
      switch (fs->fs_type) {
  801dc0:	e0bffd17 	ldw	r2,-12(fp)
  801dc4:	10800003 	ldbu	r2,0(r2)
  801dc8:	10803fcc 	andi	r2,r2,255
  801dcc:	10c000a0 	cmpeqi	r3,r2,2
  801dd0:	18005b1e 	bne	r3,zero,801f40 <put_fat+0x1c4>
  801dd4:	10c000e0 	cmpeqi	r3,r2,3
  801dd8:	1800771e 	bne	r3,zero,801fb8 <put_fat+0x23c>
  801ddc:	10800060 	cmpeqi	r2,r2,1
  801de0:	1000b726 	beq	r2,zero,8020c0 <put_fat+0x344>
      case FS_FAT12 :
         bc = clst; bc += bc / 2;
  801de4:	e0bffe17 	ldw	r2,-8(fp)
  801de8:	e0bffb15 	stw	r2,-20(fp)
  801dec:	e0bffb17 	ldw	r2,-20(fp)
  801df0:	1004d07a 	srli	r2,r2,1
  801df4:	e0fffb17 	ldw	r3,-20(fp)
  801df8:	1885883a 	add	r2,r3,r2
  801dfc:	e0bffb15 	stw	r2,-20(fp)
         res = move_window(fs, fs->fatbase + (bc / SS(fs)));
  801e00:	e0bffd17 	ldw	r2,-12(fp)
  801e04:	10c00817 	ldw	r3,32(r2)
  801e08:	e0bffb17 	ldw	r2,-20(fp)
  801e0c:	1004d27a 	srli	r2,r2,9
  801e10:	1885883a 	add	r2,r3,r2
  801e14:	e13ffd17 	ldw	r4,-12(fp)
  801e18:	100b883a 	mov	r5,r2
  801e1c:	08017140 	call	801714 <move_window>
  801e20:	e0bffa15 	stw	r2,-24(fp)
         if (res != FR_OK) break;
  801e24:	e0bffa17 	ldw	r2,-24(fp)
  801e28:	10000126 	beq	r2,zero,801e30 <put_fat+0xb4>
  801e2c:	0000a606 	br	8020c8 <put_fat+0x34c>
         p = &fs->win[bc % SS(fs)];
  801e30:	e0bffb17 	ldw	r2,-20(fp)
  801e34:	10807fcc 	andi	r2,r2,511
  801e38:	10800c04 	addi	r2,r2,48
  801e3c:	e0fffd17 	ldw	r3,-12(fp)
  801e40:	1885883a 	add	r2,r3,r2
  801e44:	e0bffc15 	stw	r2,-16(fp)
         *p = (clst & 1) ? ((*p & 0x0F) | ((uint8_t)val << 4)) : (uint8_t)val;
  801e48:	e0bffe17 	ldw	r2,-8(fp)
  801e4c:	1080004c 	andi	r2,r2,1
  801e50:	10000a26 	beq	r2,zero,801e7c <put_fat+0x100>
  801e54:	e0bffc17 	ldw	r2,-16(fp)
  801e58:	10800003 	ldbu	r2,0(r2)
  801e5c:	108003cc 	andi	r2,r2,15
  801e60:	1007883a 	mov	r3,r2
  801e64:	e0bfff17 	ldw	r2,-4(fp)
  801e68:	10803fcc 	andi	r2,r2,255
  801e6c:	1004913a 	slli	r2,r2,4
  801e70:	1884b03a 	or	r2,r3,r2
  801e74:	1007883a 	mov	r3,r2
  801e78:	00000206 	br	801e84 <put_fat+0x108>
  801e7c:	e0bfff17 	ldw	r2,-4(fp)
  801e80:	1007883a 	mov	r3,r2
  801e84:	e0bffc17 	ldw	r2,-16(fp)
  801e88:	10c00005 	stb	r3,0(r2)
         bc++;
  801e8c:	e0bffb17 	ldw	r2,-20(fp)
  801e90:	10800044 	addi	r2,r2,1
  801e94:	e0bffb15 	stw	r2,-20(fp)
         fs->wflag = 1;
  801e98:	e0bffd17 	ldw	r2,-12(fp)
  801e9c:	00c00044 	movi	r3,1
  801ea0:	10c00105 	stb	r3,4(r2)
         res = move_window(fs, fs->fatbase + (bc / SS(fs)));
  801ea4:	e0bffd17 	ldw	r2,-12(fp)
  801ea8:	10c00817 	ldw	r3,32(r2)
  801eac:	e0bffb17 	ldw	r2,-20(fp)
  801eb0:	1004d27a 	srli	r2,r2,9
  801eb4:	1885883a 	add	r2,r3,r2
  801eb8:	e13ffd17 	ldw	r4,-12(fp)
  801ebc:	100b883a 	mov	r5,r2
  801ec0:	08017140 	call	801714 <move_window>
  801ec4:	e0bffa15 	stw	r2,-24(fp)
         if (res != FR_OK) break;
  801ec8:	e0bffa17 	ldw	r2,-24(fp)
  801ecc:	10000126 	beq	r2,zero,801ed4 <put_fat+0x158>
  801ed0:	00007d06 	br	8020c8 <put_fat+0x34c>
         p = &fs->win[bc % SS(fs)];
  801ed4:	e0bffb17 	ldw	r2,-20(fp)
  801ed8:	10807fcc 	andi	r2,r2,511
  801edc:	10800c04 	addi	r2,r2,48
  801ee0:	e0fffd17 	ldw	r3,-12(fp)
  801ee4:	1885883a 	add	r2,r3,r2
  801ee8:	e0bffc15 	stw	r2,-16(fp)
         *p = (clst & 1) ? (uint8_t)(val >> 4) : ((*p & 0xF0) | ((uint8_t)(val >> 8) & 0x0F));
  801eec:	e0bffe17 	ldw	r2,-8(fp)
  801ef0:	1080004c 	andi	r2,r2,1
  801ef4:	10000426 	beq	r2,zero,801f08 <put_fat+0x18c>
  801ef8:	e0bfff17 	ldw	r2,-4(fp)
  801efc:	1004d13a 	srli	r2,r2,4
  801f00:	1007883a 	mov	r3,r2
  801f04:	00000b06 	br	801f34 <put_fat+0x1b8>
  801f08:	e0bffc17 	ldw	r2,-16(fp)
  801f0c:	10800003 	ldbu	r2,0(r2)
  801f10:	1007883a 	mov	r3,r2
  801f14:	00bffc04 	movi	r2,-16
  801f18:	1884703a 	and	r2,r3,r2
  801f1c:	1007883a 	mov	r3,r2
  801f20:	e0bfff17 	ldw	r2,-4(fp)
  801f24:	1004d23a 	srli	r2,r2,8
  801f28:	108003cc 	andi	r2,r2,15
  801f2c:	1884b03a 	or	r2,r3,r2
  801f30:	1007883a 	mov	r3,r2
  801f34:	e0bffc17 	ldw	r2,-16(fp)
  801f38:	10c00005 	stb	r3,0(r2)
         break;
  801f3c:	00006206 	br	8020c8 <put_fat+0x34c>

      case FS_FAT16 :
         res = move_window(fs, fs->fatbase + (clst / (SS(fs) / 2)));
  801f40:	e0bffd17 	ldw	r2,-12(fp)
  801f44:	10c00817 	ldw	r3,32(r2)
  801f48:	e0bffe17 	ldw	r2,-8(fp)
  801f4c:	1004d23a 	srli	r2,r2,8
  801f50:	1885883a 	add	r2,r3,r2
  801f54:	e13ffd17 	ldw	r4,-12(fp)
  801f58:	100b883a 	mov	r5,r2
  801f5c:	08017140 	call	801714 <move_window>
  801f60:	e0bffa15 	stw	r2,-24(fp)
         if (res != FR_OK) break;
  801f64:	e0bffa17 	ldw	r2,-24(fp)
  801f68:	10000126 	beq	r2,zero,801f70 <put_fat+0x1f4>
  801f6c:	00005606 	br	8020c8 <put_fat+0x34c>
         p = &fs->win[clst * 2 % SS(fs)];
  801f70:	e0bffe17 	ldw	r2,-8(fp)
  801f74:	1085883a 	add	r2,r2,r2
  801f78:	10807f8c 	andi	r2,r2,510
  801f7c:	10800c04 	addi	r2,r2,48
  801f80:	e0fffd17 	ldw	r3,-12(fp)
  801f84:	1885883a 	add	r2,r3,r2
  801f88:	e0bffc15 	stw	r2,-16(fp)
         ST_WORD(p, (uint16_t)val);
  801f8c:	e0bfff17 	ldw	r2,-4(fp)
  801f90:	1007883a 	mov	r3,r2
  801f94:	e0bffc17 	ldw	r2,-16(fp)
  801f98:	10c00005 	stb	r3,0(r2)
  801f9c:	e0bffc17 	ldw	r2,-16(fp)
  801fa0:	10800044 	addi	r2,r2,1
  801fa4:	e0ffff17 	ldw	r3,-4(fp)
  801fa8:	18ffffcc 	andi	r3,r3,65535
  801fac:	1806d23a 	srli	r3,r3,8
  801fb0:	10c00005 	stb	r3,0(r2)
         break;
  801fb4:	00004406 	br	8020c8 <put_fat+0x34c>

      case FS_FAT32 :
         res = move_window(fs, fs->fatbase + (clst / (SS(fs) / 4)));
  801fb8:	e0bffd17 	ldw	r2,-12(fp)
  801fbc:	10c00817 	ldw	r3,32(r2)
  801fc0:	e0bffe17 	ldw	r2,-8(fp)
  801fc4:	1004d1fa 	srli	r2,r2,7
  801fc8:	1885883a 	add	r2,r3,r2
  801fcc:	e13ffd17 	ldw	r4,-12(fp)
  801fd0:	100b883a 	mov	r5,r2
  801fd4:	08017140 	call	801714 <move_window>
  801fd8:	e0bffa15 	stw	r2,-24(fp)
         if (res != FR_OK) break;
  801fdc:	e0bffa17 	ldw	r2,-24(fp)
  801fe0:	10000126 	beq	r2,zero,801fe8 <put_fat+0x26c>
  801fe4:	00003806 	br	8020c8 <put_fat+0x34c>
         p = &fs->win[clst * 4 % SS(fs)];
  801fe8:	e0bffe17 	ldw	r2,-8(fp)
  801fec:	1085883a 	add	r2,r2,r2
  801ff0:	1085883a 	add	r2,r2,r2
  801ff4:	10807f0c 	andi	r2,r2,508
  801ff8:	10800c04 	addi	r2,r2,48
  801ffc:	e0fffd17 	ldw	r3,-12(fp)
  802000:	1885883a 	add	r2,r3,r2
  802004:	e0bffc15 	stw	r2,-16(fp)
         val |= LD_DWORD(p) & 0xF0000000;
  802008:	e0bffc17 	ldw	r2,-16(fp)
  80200c:	108000c4 	addi	r2,r2,3
  802010:	10800003 	ldbu	r2,0(r2)
  802014:	10803fcc 	andi	r2,r2,255
  802018:	1006963a 	slli	r3,r2,24
  80201c:	e0bffc17 	ldw	r2,-16(fp)
  802020:	10800084 	addi	r2,r2,2
  802024:	10800003 	ldbu	r2,0(r2)
  802028:	10803fcc 	andi	r2,r2,255
  80202c:	1004943a 	slli	r2,r2,16
  802030:	1884b03a 	or	r2,r3,r2
  802034:	e0fffc17 	ldw	r3,-16(fp)
  802038:	18c00044 	addi	r3,r3,1
  80203c:	18c00003 	ldbu	r3,0(r3)
  802040:	18c03fcc 	andi	r3,r3,255
  802044:	1806923a 	slli	r3,r3,8
  802048:	10c6b03a 	or	r3,r2,r3
  80204c:	e0bffc17 	ldw	r2,-16(fp)
  802050:	10800003 	ldbu	r2,0(r2)
  802054:	10803fcc 	andi	r2,r2,255
  802058:	1884b03a 	or	r2,r3,r2
  80205c:	10bc002c 	andhi	r2,r2,61440
  802060:	e0ffff17 	ldw	r3,-4(fp)
  802064:	1884b03a 	or	r2,r3,r2
  802068:	e0bfff15 	stw	r2,-4(fp)
         ST_DWORD(p, val);
  80206c:	e0bfff17 	ldw	r2,-4(fp)
  802070:	1007883a 	mov	r3,r2
  802074:	e0bffc17 	ldw	r2,-16(fp)
  802078:	10c00005 	stb	r3,0(r2)
  80207c:	e0bffc17 	ldw	r2,-16(fp)
  802080:	10800044 	addi	r2,r2,1
  802084:	e0ffff17 	ldw	r3,-4(fp)
  802088:	18ffffcc 	andi	r3,r3,65535
  80208c:	1806d23a 	srli	r3,r3,8
  802090:	10c00005 	stb	r3,0(r2)
  802094:	e0bffc17 	ldw	r2,-16(fp)
  802098:	10800084 	addi	r2,r2,2
  80209c:	e0ffff17 	ldw	r3,-4(fp)
  8020a0:	1806d43a 	srli	r3,r3,16
  8020a4:	10c00005 	stb	r3,0(r2)
  8020a8:	e0bffc17 	ldw	r2,-16(fp)
  8020ac:	108000c4 	addi	r2,r2,3
  8020b0:	e0ffff17 	ldw	r3,-4(fp)
  8020b4:	1806d63a 	srli	r3,r3,24
  8020b8:	10c00005 	stb	r3,0(r2)
         break;
  8020bc:	00000206 	br	8020c8 <put_fat+0x34c>

      default :
         res = FR_INT_ERR;
  8020c0:	00800084 	movi	r2,2
  8020c4:	e0bffa15 	stw	r2,-24(fp)
      }
      fs->wflag = 1;
  8020c8:	e0bffd17 	ldw	r2,-12(fp)
  8020cc:	00c00044 	movi	r3,1
  8020d0:	10c00105 	stb	r3,4(r2)
   }

   return res;
  8020d4:	e0bffa17 	ldw	r2,-24(fp)
}
  8020d8:	e037883a 	mov	sp,fp
  8020dc:	dfc00117 	ldw	ra,4(sp)
  8020e0:	df000017 	ldw	fp,0(sp)
  8020e4:	dec00204 	addi	sp,sp,8
  8020e8:	f800283a 	ret

008020ec <remove_chain>:
static
FRESULT remove_chain (
   FATFS *fs,        /* File system object */
   uint32_t clst        /* Cluster# to remove a chain from */
)
{
  8020ec:	defffa04 	addi	sp,sp,-24
  8020f0:	dfc00515 	stw	ra,20(sp)
  8020f4:	df000415 	stw	fp,16(sp)
  8020f8:	df000404 	addi	fp,sp,16
  8020fc:	e13ffe15 	stw	r4,-8(fp)
  802100:	e17fff15 	stw	r5,-4(fp)
   uint32_t nxt;
#if _USE_ERASE
   uint32_t scl = clst, ecl = clst, resion[2];
#endif

   if (clst < 2 || clst >= fs->n_fatent) {   /* Check range */
  802104:	e0bfff17 	ldw	r2,-4(fp)
  802108:	108000b0 	cmpltui	r2,r2,2
  80210c:	1000041e 	bne	r2,zero,802120 <remove_chain+0x34>
  802110:	e0bffe17 	ldw	r2,-8(fp)
  802114:	10800617 	ldw	r2,24(r2)
  802118:	e0ffff17 	ldw	r3,-4(fp)
  80211c:	18800336 	bltu	r3,r2,80212c <remove_chain+0x40>
      res = FR_INT_ERR;
  802120:	00800084 	movi	r2,2
  802124:	e0bffc15 	stw	r2,-16(fp)
  802128:	00002f06 	br	8021e8 <remove_chain+0xfc>

   } else {
      res = FR_OK;
  80212c:	e03ffc15 	stw	zero,-16(fp)
      while (clst < fs->n_fatent) {       /* Not a last link? */
  802130:	00002906 	br	8021d8 <remove_chain+0xec>
         nxt = get_fat(fs, clst);         /* Get cluster status */
  802134:	e13ffe17 	ldw	r4,-8(fp)
  802138:	e17fff17 	ldw	r5,-4(fp)
  80213c:	0801af80 	call	801af8 <get_fat>
  802140:	e0bffd15 	stw	r2,-12(fp)
         if (nxt == 0) break;          /* Empty cluster? */
  802144:	e0bffd17 	ldw	r2,-12(fp)
  802148:	1000011e 	bne	r2,zero,802150 <remove_chain+0x64>
  80214c:	00002606 	br	8021e8 <remove_chain+0xfc>
         if (nxt == 1) { res = FR_INT_ERR; break; }   /* Internal error? */
  802150:	e0bffd17 	ldw	r2,-12(fp)
  802154:	10800058 	cmpnei	r2,r2,1
  802158:	1000031e 	bne	r2,zero,802168 <remove_chain+0x7c>
  80215c:	00800084 	movi	r2,2
  802160:	e0bffc15 	stw	r2,-16(fp)
  802164:	00002006 	br	8021e8 <remove_chain+0xfc>
         if (nxt == 0xFFFFFFFF) { res = FR_DISK_ERR; break; }  /* Disk error? */
  802168:	e0bffd17 	ldw	r2,-12(fp)
  80216c:	10bfffd8 	cmpnei	r2,r2,-1
  802170:	1000031e 	bne	r2,zero,802180 <remove_chain+0x94>
  802174:	00800044 	movi	r2,1
  802178:	e0bffc15 	stw	r2,-16(fp)
  80217c:	00001a06 	br	8021e8 <remove_chain+0xfc>
         res = put_fat(fs, clst, 0);         /* Mark the cluster "empty" */
  802180:	e13ffe17 	ldw	r4,-8(fp)
  802184:	e17fff17 	ldw	r5,-4(fp)
  802188:	000d883a 	mov	r6,zero
  80218c:	0801d7c0 	call	801d7c <put_fat>
  802190:	e0bffc15 	stw	r2,-16(fp)
         if (res != FR_OK) break;
  802194:	e0bffc17 	ldw	r2,-16(fp)
  802198:	10000126 	beq	r2,zero,8021a0 <remove_chain+0xb4>
  80219c:	00001206 	br	8021e8 <remove_chain+0xfc>
         if (fs->free_clust != 0xFFFFFFFF) { /* Update FSInfo */
  8021a0:	e0bffe17 	ldw	r2,-8(fp)
  8021a4:	10800417 	ldw	r2,16(r2)
  8021a8:	10bfffe0 	cmpeqi	r2,r2,-1
  8021ac:	1000081e 	bne	r2,zero,8021d0 <remove_chain+0xe4>
            fs->free_clust++;
  8021b0:	e0bffe17 	ldw	r2,-8(fp)
  8021b4:	10800417 	ldw	r2,16(r2)
  8021b8:	10c00044 	addi	r3,r2,1
  8021bc:	e0bffe17 	ldw	r2,-8(fp)
  8021c0:	10c00415 	stw	r3,16(r2)
            fs->fsi_flag = 1;
  8021c4:	e0bffe17 	ldw	r2,-8(fp)
  8021c8:	00c00044 	movi	r3,1
  8021cc:	10c00145 	stb	r3,5(r2)
            resion[1] = clust2sect(fs, ecl) + fs->csize - 1;   /* End sector */
            disk_ioctl(fs->drv, CTRL_ERASE_SECTOR, resion);    /* Erase the block */
            scl = ecl = nxt;
         }
#endif
         clst = nxt; /* Next cluster */
  8021d0:	e0bffd17 	ldw	r2,-12(fp)
  8021d4:	e0bfff15 	stw	r2,-4(fp)
   if (clst < 2 || clst >= fs->n_fatent) {   /* Check range */
      res = FR_INT_ERR;

   } else {
      res = FR_OK;
      while (clst < fs->n_fatent) {       /* Not a last link? */
  8021d8:	e0bffe17 	ldw	r2,-8(fp)
  8021dc:	10800617 	ldw	r2,24(r2)
  8021e0:	e0ffff17 	ldw	r3,-4(fp)
  8021e4:	18bfd336 	bltu	r3,r2,802134 <__alt_data_end+0xff802134>
#endif
         clst = nxt; /* Next cluster */
      }
   }

   return res;
  8021e8:	e0bffc17 	ldw	r2,-16(fp)
}
  8021ec:	e037883a 	mov	sp,fp
  8021f0:	dfc00117 	ldw	ra,4(sp)
  8021f4:	df000017 	ldw	fp,0(sp)
  8021f8:	dec00204 	addi	sp,sp,8
  8021fc:	f800283a 	ret

00802200 <create_chain>:
static
uint32_t create_chain ( /* 0:No free cluster, 1:Internal error, 0xFFFFFFFF:Disk error, >=2:New cluster# */
   FATFS *fs,        /* File system object */
   uint32_t clst        /* Cluster# to stretch. 0 means create a new chain. */
)
{
  802200:	defff804 	addi	sp,sp,-32
  802204:	dfc00715 	stw	ra,28(sp)
  802208:	df000615 	stw	fp,24(sp)
  80220c:	df000604 	addi	fp,sp,24
  802210:	e13ffe15 	stw	r4,-8(fp)
  802214:	e17fff15 	stw	r5,-4(fp)
   uint32_t cs, ncl, scl;
   FRESULT res;


   if (clst == 0) {     /* Create a new chain */
  802218:	e0bfff17 	ldw	r2,-4(fp)
  80221c:	10000c1e 	bne	r2,zero,802250 <create_chain+0x50>
      scl = fs->last_clust;         /* Get suggested start point */
  802220:	e0bffe17 	ldw	r2,-8(fp)
  802224:	10800317 	ldw	r2,12(r2)
  802228:	e0bffb15 	stw	r2,-20(fp)
      if (!scl || scl >= fs->n_fatent) scl = 1;
  80222c:	e0bffb17 	ldw	r2,-20(fp)
  802230:	10000426 	beq	r2,zero,802244 <create_chain+0x44>
  802234:	e0bffe17 	ldw	r2,-8(fp)
  802238:	10800617 	ldw	r2,24(r2)
  80223c:	e0fffb17 	ldw	r3,-20(fp)
  802240:	18801436 	bltu	r3,r2,802294 <create_chain+0x94>
  802244:	00800044 	movi	r2,1
  802248:	e0bffb15 	stw	r2,-20(fp)
  80224c:	00001106 	br	802294 <create_chain+0x94>
   }
   else {               /* Stretch the current chain */
      cs = get_fat(fs, clst);       /* Check the cluster status */
  802250:	e13ffe17 	ldw	r4,-8(fp)
  802254:	e17fff17 	ldw	r5,-4(fp)
  802258:	0801af80 	call	801af8 <get_fat>
  80225c:	e0bffd15 	stw	r2,-12(fp)
      if (cs < 2) return 1;         /* It is an invalid cluster */
  802260:	e0bffd17 	ldw	r2,-12(fp)
  802264:	108000a8 	cmpgeui	r2,r2,2
  802268:	1000021e 	bne	r2,zero,802274 <create_chain+0x74>
  80226c:	00800044 	movi	r2,1
  802270:	00005706 	br	8023d0 <create_chain+0x1d0>
      if (cs < fs->n_fatent) return cs;   /* It is already followed by next cluster */
  802274:	e0bffe17 	ldw	r2,-8(fp)
  802278:	10800617 	ldw	r2,24(r2)
  80227c:	e0fffd17 	ldw	r3,-12(fp)
  802280:	1880022e 	bgeu	r3,r2,80228c <create_chain+0x8c>
  802284:	e0bffd17 	ldw	r2,-12(fp)
  802288:	00005106 	br	8023d0 <create_chain+0x1d0>
      scl = clst;
  80228c:	e0bfff17 	ldw	r2,-4(fp)
  802290:	e0bffb15 	stw	r2,-20(fp)
   }

   ncl = scl;           /* Start cluster */
  802294:	e0bffb17 	ldw	r2,-20(fp)
  802298:	e0bffa15 	stw	r2,-24(fp)
   for (;;) {
      ncl++;                     /* Next cluster */
  80229c:	e0bffa17 	ldw	r2,-24(fp)
  8022a0:	10800044 	addi	r2,r2,1
  8022a4:	e0bffa15 	stw	r2,-24(fp)
      if (ncl >= fs->n_fatent) {    /* Wrap around */
  8022a8:	e0bffe17 	ldw	r2,-8(fp)
  8022ac:	10800617 	ldw	r2,24(r2)
  8022b0:	e0fffa17 	ldw	r3,-24(fp)
  8022b4:	18800736 	bltu	r3,r2,8022d4 <create_chain+0xd4>
         ncl = 2;
  8022b8:	00800084 	movi	r2,2
  8022bc:	e0bffa15 	stw	r2,-24(fp)
         if (ncl > scl) return 0;   /* No free cluster */
  8022c0:	e0bffa17 	ldw	r2,-24(fp)
  8022c4:	e0fffb17 	ldw	r3,-20(fp)
  8022c8:	1880022e 	bgeu	r3,r2,8022d4 <create_chain+0xd4>
  8022cc:	0005883a 	mov	r2,zero
  8022d0:	00003f06 	br	8023d0 <create_chain+0x1d0>
      }
      cs = get_fat(fs, ncl);        /* Get the cluster status */
  8022d4:	e13ffe17 	ldw	r4,-8(fp)
  8022d8:	e17ffa17 	ldw	r5,-24(fp)
  8022dc:	0801af80 	call	801af8 <get_fat>
  8022e0:	e0bffd15 	stw	r2,-12(fp)
      if (cs == 0) break;           /* Found a free cluster */
  8022e4:	e0bffd17 	ldw	r2,-12(fp)
  8022e8:	10000a1e 	bne	r2,zero,802314 <create_chain+0x114>
  8022ec:	0001883a 	nop
      if (cs == 0xFFFFFFFF || cs == 1)/* An error occurred */
         return cs;
      if (ncl == scl) return 0;     /* No free cluster */
   }

   res = put_fat(fs, ncl, 0x0FFFFFFF); /* Mark the new cluster "last link" */
  8022f0:	e13ffe17 	ldw	r4,-8(fp)
  8022f4:	e17ffa17 	ldw	r5,-24(fp)
  8022f8:	01840034 	movhi	r6,4096
  8022fc:	31bfffc4 	addi	r6,r6,-1
  802300:	0801d7c0 	call	801d7c <put_fat>
  802304:	e0bffc15 	stw	r2,-16(fp)
   if (res == FR_OK && clst != 0) {
  802308:	e0bffc17 	ldw	r2,-16(fp)
  80230c:	1000161e 	bne	r2,zero,802368 <create_chain+0x168>
  802310:	00000e06 	br	80234c <create_chain+0x14c>
         ncl = 2;
         if (ncl > scl) return 0;   /* No free cluster */
      }
      cs = get_fat(fs, ncl);        /* Get the cluster status */
      if (cs == 0) break;           /* Found a free cluster */
      if (cs == 0xFFFFFFFF || cs == 1)/* An error occurred */
  802314:	e0bffd17 	ldw	r2,-12(fp)
  802318:	10bfffe0 	cmpeqi	r2,r2,-1
  80231c:	1000031e 	bne	r2,zero,80232c <create_chain+0x12c>
  802320:	e0bffd17 	ldw	r2,-12(fp)
  802324:	10800058 	cmpnei	r2,r2,1
  802328:	1000021e 	bne	r2,zero,802334 <create_chain+0x134>
         return cs;
  80232c:	e0bffd17 	ldw	r2,-12(fp)
  802330:	00002706 	br	8023d0 <create_chain+0x1d0>
      if (ncl == scl) return 0;     /* No free cluster */
  802334:	e0fffa17 	ldw	r3,-24(fp)
  802338:	e0bffb17 	ldw	r2,-20(fp)
  80233c:	1880021e 	bne	r3,r2,802348 <create_chain+0x148>
  802340:	0005883a 	mov	r2,zero
  802344:	00002206 	br	8023d0 <create_chain+0x1d0>
   }
  802348:	003fd406 	br	80229c <__alt_data_end+0xff80229c>

   res = put_fat(fs, ncl, 0x0FFFFFFF); /* Mark the new cluster "last link" */
   if (res == FR_OK && clst != 0) {
  80234c:	e0bfff17 	ldw	r2,-4(fp)
  802350:	10000526 	beq	r2,zero,802368 <create_chain+0x168>
      res = put_fat(fs, clst, ncl); /* Link it to the previous one if needed */
  802354:	e13ffe17 	ldw	r4,-8(fp)
  802358:	e17fff17 	ldw	r5,-4(fp)
  80235c:	e1bffa17 	ldw	r6,-24(fp)
  802360:	0801d7c0 	call	801d7c <put_fat>
  802364:	e0bffc15 	stw	r2,-16(fp)
   }
   if (res == FR_OK) {
  802368:	e0bffc17 	ldw	r2,-16(fp)
  80236c:	1000101e 	bne	r2,zero,8023b0 <create_chain+0x1b0>
      fs->last_clust = ncl;         /* Update FSINFO */
  802370:	e0bffe17 	ldw	r2,-8(fp)
  802374:	e0fffa17 	ldw	r3,-24(fp)
  802378:	10c00315 	stw	r3,12(r2)
      if (fs->free_clust != 0xFFFFFFFF) {
  80237c:	e0bffe17 	ldw	r2,-8(fp)
  802380:	10800417 	ldw	r2,16(r2)
  802384:	10bfffe0 	cmpeqi	r2,r2,-1
  802388:	1000101e 	bne	r2,zero,8023cc <create_chain+0x1cc>
         fs->free_clust--;
  80238c:	e0bffe17 	ldw	r2,-8(fp)
  802390:	10800417 	ldw	r2,16(r2)
  802394:	10ffffc4 	addi	r3,r2,-1
  802398:	e0bffe17 	ldw	r2,-8(fp)
  80239c:	10c00415 	stw	r3,16(r2)
         fs->fsi_flag = 1;
  8023a0:	e0bffe17 	ldw	r2,-8(fp)
  8023a4:	00c00044 	movi	r3,1
  8023a8:	10c00145 	stb	r3,5(r2)
  8023ac:	00000706 	br	8023cc <create_chain+0x1cc>
      }
   } else {
      ncl = (res == FR_DISK_ERR) ? 0xFFFFFFFF : 1;
  8023b0:	e0bffc17 	ldw	r2,-16(fp)
  8023b4:	10800058 	cmpnei	r2,r2,1
  8023b8:	1000021e 	bne	r2,zero,8023c4 <create_chain+0x1c4>
  8023bc:	00bfffc4 	movi	r2,-1
  8023c0:	00000106 	br	8023c8 <create_chain+0x1c8>
  8023c4:	00800044 	movi	r2,1
  8023c8:	e0bffa15 	stw	r2,-24(fp)
   }

   return ncl;    /* Return new cluster number or error code */
  8023cc:	e0bffa17 	ldw	r2,-24(fp)
}
  8023d0:	e037883a 	mov	sp,fp
  8023d4:	dfc00117 	ldw	ra,4(sp)
  8023d8:	df000017 	ldw	fp,0(sp)
  8023dc:	dec00204 	addi	sp,sp,8
  8023e0:	f800283a 	ret

008023e4 <dir_sdi>:
static
FRESULT dir_sdi (
   DIR *dj,    /* Pointer to directory object */
   uint16_t idx    /* Directory index number */
)
{
  8023e4:	defffa04 	addi	sp,sp,-24
  8023e8:	dfc00515 	stw	ra,20(sp)
  8023ec:	df000415 	stw	fp,16(sp)
  8023f0:	df000404 	addi	fp,sp,16
  8023f4:	e13ffe15 	stw	r4,-8(fp)
  8023f8:	2805883a 	mov	r2,r5
  8023fc:	e0bfff0d 	sth	r2,-4(fp)
   uint32_t clst;
   uint16_t ic;


   dj->index = idx;
  802400:	e0bffe17 	ldw	r2,-8(fp)
  802404:	e0ffff0b 	ldhu	r3,-4(fp)
  802408:	10c0018d 	sth	r3,6(r2)
   clst = dj->sclust;
  80240c:	e0bffe17 	ldw	r2,-8(fp)
  802410:	10800217 	ldw	r2,8(r2)
  802414:	e0bffc15 	stw	r2,-16(fp)
   if (clst == 1 || clst >= dj->fs->n_fatent)   /* Check start cluster range */
  802418:	e0bffc17 	ldw	r2,-16(fp)
  80241c:	10800060 	cmpeqi	r2,r2,1
  802420:	1000051e 	bne	r2,zero,802438 <dir_sdi+0x54>
  802424:	e0bffe17 	ldw	r2,-8(fp)
  802428:	10800017 	ldw	r2,0(r2)
  80242c:	10800617 	ldw	r2,24(r2)
  802430:	e0fffc17 	ldw	r3,-16(fp)
  802434:	18800236 	bltu	r3,r2,802440 <dir_sdi+0x5c>
      return FR_INT_ERR;
  802438:	00800084 	movi	r2,2
  80243c:	00005f06 	br	8025bc <dir_sdi+0x1d8>
   if (!clst && dj->fs->fs_type == FS_FAT32) /* Replace cluster# 0 with root cluster# if in FAT32 */
  802440:	e0bffc17 	ldw	r2,-16(fp)
  802444:	10000a1e 	bne	r2,zero,802470 <dir_sdi+0x8c>
  802448:	e0bffe17 	ldw	r2,-8(fp)
  80244c:	10800017 	ldw	r2,0(r2)
  802450:	10800003 	ldbu	r2,0(r2)
  802454:	10803fcc 	andi	r2,r2,255
  802458:	108000d8 	cmpnei	r2,r2,3
  80245c:	1000041e 	bne	r2,zero,802470 <dir_sdi+0x8c>
      clst = dj->fs->dirbase;
  802460:	e0bffe17 	ldw	r2,-8(fp)
  802464:	10800017 	ldw	r2,0(r2)
  802468:	10800917 	ldw	r2,36(r2)
  80246c:	e0bffc15 	stw	r2,-16(fp)

   if (clst == 0) {  /* Static table (root-dir in FAT12/16) */
  802470:	e0bffc17 	ldw	r2,-16(fp)
  802474:	1000151e 	bne	r2,zero,8024cc <dir_sdi+0xe8>
      dj->clust = clst;
  802478:	e0bffe17 	ldw	r2,-8(fp)
  80247c:	e0fffc17 	ldw	r3,-16(fp)
  802480:	10c00315 	stw	r3,12(r2)
      if (idx >= dj->fs->n_rootdir)    /* Index is out of range */
  802484:	e0bffe17 	ldw	r2,-8(fp)
  802488:	10800017 	ldw	r2,0(r2)
  80248c:	1080020b 	ldhu	r2,8(r2)
  802490:	10bfffcc 	andi	r2,r2,65535
  802494:	e0ffff0b 	ldhu	r3,-4(fp)
  802498:	18800236 	bltu	r3,r2,8024a4 <dir_sdi+0xc0>
         return FR_INT_ERR;
  80249c:	00800084 	movi	r2,2
  8024a0:	00004606 	br	8025bc <dir_sdi+0x1d8>
      dj->sect = dj->fs->dirbase + idx / (SS(dj->fs) / SZ_DIR);   /* Sector# */
  8024a4:	e0bffe17 	ldw	r2,-8(fp)
  8024a8:	10800017 	ldw	r2,0(r2)
  8024ac:	10c00917 	ldw	r3,36(r2)
  8024b0:	e0bfff0b 	ldhu	r2,-4(fp)
  8024b4:	1004d13a 	srli	r2,r2,4
  8024b8:	10bfffcc 	andi	r2,r2,65535
  8024bc:	1887883a 	add	r3,r3,r2
  8024c0:	e0bffe17 	ldw	r2,-8(fp)
  8024c4:	10c00415 	stw	r3,16(r2)
  8024c8:	00003206 	br	802594 <dir_sdi+0x1b0>
   }
   else {            /* Dynamic table (sub-dirs or root-dir in FAT32) */
      ic = SS(dj->fs) / SZ_DIR * dj->fs->csize; /* Entries per cluster */
  8024cc:	e0bffe17 	ldw	r2,-8(fp)
  8024d0:	10800017 	ldw	r2,0(r2)
  8024d4:	10800083 	ldbu	r2,2(r2)
  8024d8:	10803fcc 	andi	r2,r2,255
  8024dc:	1004913a 	slli	r2,r2,4
  8024e0:	e0bffd0d 	sth	r2,-12(fp)
      while (idx >= ic) {  /* Follow cluster chain */
  8024e4:	00001906 	br	80254c <dir_sdi+0x168>
         clst = get_fat(dj->fs, clst);          /* Get next cluster */
  8024e8:	e0bffe17 	ldw	r2,-8(fp)
  8024ec:	10800017 	ldw	r2,0(r2)
  8024f0:	1009883a 	mov	r4,r2
  8024f4:	e17ffc17 	ldw	r5,-16(fp)
  8024f8:	0801af80 	call	801af8 <get_fat>
  8024fc:	e0bffc15 	stw	r2,-16(fp)
         if (clst == 0xFFFFFFFF) return FR_DISK_ERR;  /* Disk error */
  802500:	e0bffc17 	ldw	r2,-16(fp)
  802504:	10bfffd8 	cmpnei	r2,r2,-1
  802508:	1000021e 	bne	r2,zero,802514 <dir_sdi+0x130>
  80250c:	00800044 	movi	r2,1
  802510:	00002a06 	br	8025bc <dir_sdi+0x1d8>
         if (clst < 2 || clst >= dj->fs->n_fatent) /* Reached to end of table or int error */
  802514:	e0bffc17 	ldw	r2,-16(fp)
  802518:	108000b0 	cmpltui	r2,r2,2
  80251c:	1000051e 	bne	r2,zero,802534 <dir_sdi+0x150>
  802520:	e0bffe17 	ldw	r2,-8(fp)
  802524:	10800017 	ldw	r2,0(r2)
  802528:	10800617 	ldw	r2,24(r2)
  80252c:	e0fffc17 	ldw	r3,-16(fp)
  802530:	18800236 	bltu	r3,r2,80253c <dir_sdi+0x158>
            return FR_INT_ERR;
  802534:	00800084 	movi	r2,2
  802538:	00002006 	br	8025bc <dir_sdi+0x1d8>
         idx -= ic;
  80253c:	e0ffff0b 	ldhu	r3,-4(fp)
  802540:	e0bffd0b 	ldhu	r2,-12(fp)
  802544:	1885c83a 	sub	r2,r3,r2
  802548:	e0bfff0d 	sth	r2,-4(fp)
         return FR_INT_ERR;
      dj->sect = dj->fs->dirbase + idx / (SS(dj->fs) / SZ_DIR);   /* Sector# */
   }
   else {            /* Dynamic table (sub-dirs or root-dir in FAT32) */
      ic = SS(dj->fs) / SZ_DIR * dj->fs->csize; /* Entries per cluster */
      while (idx >= ic) {  /* Follow cluster chain */
  80254c:	e0ffff0b 	ldhu	r3,-4(fp)
  802550:	e0bffd0b 	ldhu	r2,-12(fp)
  802554:	18bfe42e 	bgeu	r3,r2,8024e8 <__alt_data_end+0xff8024e8>
         if (clst == 0xFFFFFFFF) return FR_DISK_ERR;  /* Disk error */
         if (clst < 2 || clst >= dj->fs->n_fatent) /* Reached to end of table or int error */
            return FR_INT_ERR;
         idx -= ic;
      }
      dj->clust = clst;
  802558:	e0bffe17 	ldw	r2,-8(fp)
  80255c:	e0fffc17 	ldw	r3,-16(fp)
  802560:	10c00315 	stw	r3,12(r2)
      dj->sect = clust2sect(dj->fs, clst) + idx / (SS(dj->fs) / SZ_DIR);   /* Sector# */
  802564:	e0bffe17 	ldw	r2,-8(fp)
  802568:	10800017 	ldw	r2,0(r2)
  80256c:	1009883a 	mov	r4,r2
  802570:	e17ffc17 	ldw	r5,-16(fp)
  802574:	0801a8c0 	call	801a8c <clust2sect>
  802578:	1007883a 	mov	r3,r2
  80257c:	e0bfff0b 	ldhu	r2,-4(fp)
  802580:	1004d13a 	srli	r2,r2,4
  802584:	10bfffcc 	andi	r2,r2,65535
  802588:	1887883a 	add	r3,r3,r2
  80258c:	e0bffe17 	ldw	r2,-8(fp)
  802590:	10c00415 	stw	r3,16(r2)
   }

   dj->dir = dj->fs->win + (idx % (SS(dj->fs) / SZ_DIR)) * SZ_DIR;   /* Ptr to the entry in the sector */
  802594:	e0bffe17 	ldw	r2,-8(fp)
  802598:	10c00017 	ldw	r3,0(r2)
  80259c:	e0bfff0b 	ldhu	r2,-4(fp)
  8025a0:	108003cc 	andi	r2,r2,15
  8025a4:	1004917a 	slli	r2,r2,5
  8025a8:	10800c04 	addi	r2,r2,48
  8025ac:	1887883a 	add	r3,r3,r2
  8025b0:	e0bffe17 	ldw	r2,-8(fp)
  8025b4:	10c00515 	stw	r3,20(r2)

   return FR_OK;  /* Seek succeeded */
  8025b8:	0005883a 	mov	r2,zero
}
  8025bc:	e037883a 	mov	sp,fp
  8025c0:	dfc00117 	ldw	ra,4(sp)
  8025c4:	df000017 	ldw	fp,0(sp)
  8025c8:	dec00204 	addi	sp,sp,8
  8025cc:	f800283a 	ret

008025d0 <dir_next>:
static
FRESULT dir_next (   /* FR_OK:Succeeded, FR_NO_FILE:End of table, FR_DENIED:EOT and could not stretch */
   DIR *dj,    /* Pointer to directory object */
   int stretch    /* 0: Do not stretch table, 1: Stretch table if needed */
)
{
  8025d0:	defff904 	addi	sp,sp,-28
  8025d4:	dfc00615 	stw	ra,24(sp)
  8025d8:	df000515 	stw	fp,20(sp)
  8025dc:	dc000415 	stw	r16,16(sp)
  8025e0:	df000504 	addi	fp,sp,20
  8025e4:	e13ffd15 	stw	r4,-12(fp)
  8025e8:	e17ffe15 	stw	r5,-8(fp)
   uint16_t i;



   stretch = stretch;      /* To suppress warning on read-only cfg. */
   i = dj->index + 1;
  8025ec:	e0bffd17 	ldw	r2,-12(fp)
  8025f0:	1080018b 	ldhu	r2,6(r2)
  8025f4:	10800044 	addi	r2,r2,1
  8025f8:	e0bffc8d 	sth	r2,-14(fp)
   if (!i || !dj->sect) /* Report EOT when index has reached 65535 */
  8025fc:	e0bffc8b 	ldhu	r2,-14(fp)
  802600:	10000326 	beq	r2,zero,802610 <dir_next+0x40>
  802604:	e0bffd17 	ldw	r2,-12(fp)
  802608:	10800417 	ldw	r2,16(r2)
  80260c:	1000021e 	bne	r2,zero,802618 <dir_next+0x48>
      return FR_NO_FILE;
  802610:	00800104 	movi	r2,4
  802614:	0000a206 	br	8028a0 <dir_next+0x2d0>

   if (!(i % (SS(dj->fs) / SZ_DIR))) { /* Sector changed? */
  802618:	e0bffc8b 	ldhu	r2,-14(fp)
  80261c:	108003cc 	andi	r2,r2,15
  802620:	10bfffcc 	andi	r2,r2,65535
  802624:	1000911e 	bne	r2,zero,80286c <dir_next+0x29c>
      dj->sect++;             /* Next sector */
  802628:	e0bffd17 	ldw	r2,-12(fp)
  80262c:	10800417 	ldw	r2,16(r2)
  802630:	10c00044 	addi	r3,r2,1
  802634:	e0bffd17 	ldw	r2,-12(fp)
  802638:	10c00415 	stw	r3,16(r2)

      if (dj->clust == 0) {   /* Static table */
  80263c:	e0bffd17 	ldw	r2,-12(fp)
  802640:	10800317 	ldw	r2,12(r2)
  802644:	1000081e 	bne	r2,zero,802668 <dir_next+0x98>
         if (i >= dj->fs->n_rootdir)   /* Report EOT when end of table */
  802648:	e0bffd17 	ldw	r2,-12(fp)
  80264c:	10800017 	ldw	r2,0(r2)
  802650:	1080020b 	ldhu	r2,8(r2)
  802654:	10bfffcc 	andi	r2,r2,65535
  802658:	e0fffc8b 	ldhu	r3,-14(fp)
  80265c:	18808336 	bltu	r3,r2,80286c <dir_next+0x29c>
            return FR_NO_FILE;
  802660:	00800104 	movi	r2,4
  802664:	00008e06 	br	8028a0 <dir_next+0x2d0>
      }
      else {               /* Dynamic table */
         if (((i / (SS(dj->fs) / SZ_DIR)) & (dj->fs->csize - 1)) == 0) {   /* Cluster changed? */
  802668:	e0bffc8b 	ldhu	r2,-14(fp)
  80266c:	1004d13a 	srli	r2,r2,4
  802670:	10bfffcc 	andi	r2,r2,65535
  802674:	e0fffd17 	ldw	r3,-12(fp)
  802678:	18c00017 	ldw	r3,0(r3)
  80267c:	18c00083 	ldbu	r3,2(r3)
  802680:	18c03fcc 	andi	r3,r3,255
  802684:	18ffffc4 	addi	r3,r3,-1
  802688:	10c4703a 	and	r2,r2,r3
  80268c:	1000771e 	bne	r2,zero,80286c <dir_next+0x29c>
            clst = get_fat(dj->fs, dj->clust);           /* Get next cluster */
  802690:	e0bffd17 	ldw	r2,-12(fp)
  802694:	10c00017 	ldw	r3,0(r2)
  802698:	e0bffd17 	ldw	r2,-12(fp)
  80269c:	10800317 	ldw	r2,12(r2)
  8026a0:	1809883a 	mov	r4,r3
  8026a4:	100b883a 	mov	r5,r2
  8026a8:	0801af80 	call	801af8 <get_fat>
  8026ac:	e0bffb15 	stw	r2,-20(fp)
            if (clst <= 1) return FR_INT_ERR;
  8026b0:	e0bffb17 	ldw	r2,-20(fp)
  8026b4:	108000a8 	cmpgeui	r2,r2,2
  8026b8:	1000021e 	bne	r2,zero,8026c4 <dir_next+0xf4>
  8026bc:	00800084 	movi	r2,2
  8026c0:	00007706 	br	8028a0 <dir_next+0x2d0>
            if (clst == 0xFFFFFFFF) return FR_DISK_ERR;
  8026c4:	e0bffb17 	ldw	r2,-20(fp)
  8026c8:	10bfffd8 	cmpnei	r2,r2,-1
  8026cc:	1000021e 	bne	r2,zero,8026d8 <dir_next+0x108>
  8026d0:	00800044 	movi	r2,1
  8026d4:	00007206 	br	8028a0 <dir_next+0x2d0>
            if (clst >= dj->fs->n_fatent) {              /* When it reached end of dynamic table */
  8026d8:	e0bffd17 	ldw	r2,-12(fp)
  8026dc:	10800017 	ldw	r2,0(r2)
  8026e0:	10800617 	ldw	r2,24(r2)
  8026e4:	e0fffb17 	ldw	r3,-20(fp)
  8026e8:	18805536 	bltu	r3,r2,802840 <dir_next+0x270>
#if !_FS_READONLY
               uint8_t c;
               if (!stretch) return FR_NO_FILE;       /* When do not stretch, report EOT */
  8026ec:	e0bffe17 	ldw	r2,-8(fp)
  8026f0:	1000021e 	bne	r2,zero,8026fc <dir_next+0x12c>
  8026f4:	00800104 	movi	r2,4
  8026f8:	00006906 	br	8028a0 <dir_next+0x2d0>
               clst = create_chain(dj->fs, dj->clust);      /* Stretch cluster chain */
  8026fc:	e0bffd17 	ldw	r2,-12(fp)
  802700:	10c00017 	ldw	r3,0(r2)
  802704:	e0bffd17 	ldw	r2,-12(fp)
  802708:	10800317 	ldw	r2,12(r2)
  80270c:	1809883a 	mov	r4,r3
  802710:	100b883a 	mov	r5,r2
  802714:	08022000 	call	802200 <create_chain>
  802718:	e0bffb15 	stw	r2,-20(fp)
               if (clst == 0) return FR_DENIED;       /* No free cluster */
  80271c:	e0bffb17 	ldw	r2,-20(fp)
  802720:	1000021e 	bne	r2,zero,80272c <dir_next+0x15c>
  802724:	008001c4 	movi	r2,7
  802728:	00005d06 	br	8028a0 <dir_next+0x2d0>
               if (clst == 1) return FR_INT_ERR;
  80272c:	e0bffb17 	ldw	r2,-20(fp)
  802730:	10800058 	cmpnei	r2,r2,1
  802734:	1000021e 	bne	r2,zero,802740 <dir_next+0x170>
  802738:	00800084 	movi	r2,2
  80273c:	00005806 	br	8028a0 <dir_next+0x2d0>
               if (clst == 0xFFFFFFFF) return FR_DISK_ERR;
  802740:	e0bffb17 	ldw	r2,-20(fp)
  802744:	10bfffd8 	cmpnei	r2,r2,-1
  802748:	1000021e 	bne	r2,zero,802754 <dir_next+0x184>
  80274c:	00800044 	movi	r2,1
  802750:	00005306 	br	8028a0 <dir_next+0x2d0>
               /* Clean-up stretched table */
               if (move_window(dj->fs, 0)) return FR_DISK_ERR; /* Flush active window */
  802754:	e0bffd17 	ldw	r2,-12(fp)
  802758:	10800017 	ldw	r2,0(r2)
  80275c:	1009883a 	mov	r4,r2
  802760:	000b883a 	mov	r5,zero
  802764:	08017140 	call	801714 <move_window>
  802768:	10000226 	beq	r2,zero,802774 <dir_next+0x1a4>
  80276c:	00800044 	movi	r2,1
  802770:	00004b06 	br	8028a0 <dir_next+0x2d0>
               mem_set(dj->fs->win, 0, SS(dj->fs));         /* Clear window buffer */
  802774:	e0bffd17 	ldw	r2,-12(fp)
  802778:	10800017 	ldw	r2,0(r2)
  80277c:	10800c04 	addi	r2,r2,48
  802780:	1009883a 	mov	r4,r2
  802784:	000b883a 	mov	r5,zero
  802788:	01808004 	movi	r6,512
  80278c:	08015b40 	call	8015b4 <mem_set>
               dj->fs->winsect = clust2sect(dj->fs, clst);  /* Cluster start sector */
  802790:	e0bffd17 	ldw	r2,-12(fp)
  802794:	14000017 	ldw	r16,0(r2)
  802798:	e0bffd17 	ldw	r2,-12(fp)
  80279c:	10800017 	ldw	r2,0(r2)
  8027a0:	1009883a 	mov	r4,r2
  8027a4:	e17ffb17 	ldw	r5,-20(fp)
  8027a8:	0801a8c0 	call	801a8c <clust2sect>
  8027ac:	80800b15 	stw	r2,44(r16)
               for (c = 0; c < dj->fs->csize; c++) {     /* Fill the new cluster with 0 */
  8027b0:	e03ffc05 	stb	zero,-16(fp)
  8027b4:	00001406 	br	802808 <dir_next+0x238>
                  dj->fs->wflag = 1;
  8027b8:	e0bffd17 	ldw	r2,-12(fp)
  8027bc:	10800017 	ldw	r2,0(r2)
  8027c0:	00c00044 	movi	r3,1
  8027c4:	10c00105 	stb	r3,4(r2)
                  if (move_window(dj->fs, 0)) return FR_DISK_ERR;
  8027c8:	e0bffd17 	ldw	r2,-12(fp)
  8027cc:	10800017 	ldw	r2,0(r2)
  8027d0:	1009883a 	mov	r4,r2
  8027d4:	000b883a 	mov	r5,zero
  8027d8:	08017140 	call	801714 <move_window>
  8027dc:	10000226 	beq	r2,zero,8027e8 <dir_next+0x218>
  8027e0:	00800044 	movi	r2,1
  8027e4:	00002e06 	br	8028a0 <dir_next+0x2d0>
                  dj->fs->winsect++;
  8027e8:	e0bffd17 	ldw	r2,-12(fp)
  8027ec:	10800017 	ldw	r2,0(r2)
  8027f0:	10c00b17 	ldw	r3,44(r2)
  8027f4:	18c00044 	addi	r3,r3,1
  8027f8:	10c00b15 	stw	r3,44(r2)
               if (clst == 0xFFFFFFFF) return FR_DISK_ERR;
               /* Clean-up stretched table */
               if (move_window(dj->fs, 0)) return FR_DISK_ERR; /* Flush active window */
               mem_set(dj->fs->win, 0, SS(dj->fs));         /* Clear window buffer */
               dj->fs->winsect = clust2sect(dj->fs, clst);  /* Cluster start sector */
               for (c = 0; c < dj->fs->csize; c++) {     /* Fill the new cluster with 0 */
  8027fc:	e0bffc03 	ldbu	r2,-16(fp)
  802800:	10800044 	addi	r2,r2,1
  802804:	e0bffc05 	stb	r2,-16(fp)
  802808:	e0bffd17 	ldw	r2,-12(fp)
  80280c:	10800017 	ldw	r2,0(r2)
  802810:	10800083 	ldbu	r2,2(r2)
  802814:	10803fcc 	andi	r2,r2,255
  802818:	e0fffc03 	ldbu	r3,-16(fp)
  80281c:	18bfe636 	bltu	r3,r2,8027b8 <__alt_data_end+0xff8027b8>
                  dj->fs->wflag = 1;
                  if (move_window(dj->fs, 0)) return FR_DISK_ERR;
                  dj->fs->winsect++;
               }
               dj->fs->winsect -= c;                  /* Rewind window address */
  802820:	e0bffd17 	ldw	r2,-12(fp)
  802824:	10800017 	ldw	r2,0(r2)
  802828:	e0fffd17 	ldw	r3,-12(fp)
  80282c:	18c00017 	ldw	r3,0(r3)
  802830:	19000b17 	ldw	r4,44(r3)
  802834:	e0fffc03 	ldbu	r3,-16(fp)
  802838:	20c7c83a 	sub	r3,r4,r3
  80283c:	10c00b15 	stw	r3,44(r2)
#else
               return FR_NO_FILE;         /* Report EOT */
#endif
            }
            dj->clust = clst;          /* Initialize data for new cluster */
  802840:	e0bffd17 	ldw	r2,-12(fp)
  802844:	e0fffb17 	ldw	r3,-20(fp)
  802848:	10c00315 	stw	r3,12(r2)
            dj->sect = clust2sect(dj->fs, clst);
  80284c:	e0bffd17 	ldw	r2,-12(fp)
  802850:	10800017 	ldw	r2,0(r2)
  802854:	1009883a 	mov	r4,r2
  802858:	e17ffb17 	ldw	r5,-20(fp)
  80285c:	0801a8c0 	call	801a8c <clust2sect>
  802860:	1007883a 	mov	r3,r2
  802864:	e0bffd17 	ldw	r2,-12(fp)
  802868:	10c00415 	stw	r3,16(r2)
         }
      }
   }

   dj->index = i;
  80286c:	e0bffd17 	ldw	r2,-12(fp)
  802870:	e0fffc8b 	ldhu	r3,-14(fp)
  802874:	10c0018d 	sth	r3,6(r2)
   dj->dir = dj->fs->win + (i % (SS(dj->fs) / SZ_DIR)) * SZ_DIR;
  802878:	e0bffd17 	ldw	r2,-12(fp)
  80287c:	10c00017 	ldw	r3,0(r2)
  802880:	e0bffc8b 	ldhu	r2,-14(fp)
  802884:	108003cc 	andi	r2,r2,15
  802888:	1004917a 	slli	r2,r2,5
  80288c:	10800c04 	addi	r2,r2,48
  802890:	1887883a 	add	r3,r3,r2
  802894:	e0bffd17 	ldw	r2,-12(fp)
  802898:	10c00515 	stw	r3,20(r2)

   return FR_OK;
  80289c:	0005883a 	mov	r2,zero
}
  8028a0:	e6ffff04 	addi	sp,fp,-4
  8028a4:	dfc00217 	ldw	ra,8(sp)
  8028a8:	df000117 	ldw	fp,4(sp)
  8028ac:	dc000017 	ldw	r16,0(sp)
  8028b0:	dec00304 	addi	sp,sp,12
  8028b4:	f800283a 	ret

008028b8 <dir_find>:

static
FRESULT dir_find (
   DIR *dj        /* Pointer to the directory object linked to the file name */
)
{
  8028b8:	defffa04 	addi	sp,sp,-24
  8028bc:	dfc00515 	stw	ra,20(sp)
  8028c0:	df000415 	stw	fp,16(sp)
  8028c4:	df000404 	addi	fp,sp,16
  8028c8:	e13fff15 	stw	r4,-4(fp)
   uint8_t c, *dir;
#if _USE_LFN
   uint8_t a, ord, sum;
#endif

   res = dir_sdi(dj, 0);         /* Rewind directory object */
  8028cc:	e13fff17 	ldw	r4,-4(fp)
  8028d0:	000b883a 	mov	r5,zero
  8028d4:	08023e40 	call	8023e4 <dir_sdi>
  8028d8:	e0bffc15 	stw	r2,-16(fp)
   if (res != FR_OK) return res;
  8028dc:	e0bffc17 	ldw	r2,-16(fp)
  8028e0:	10000226 	beq	r2,zero,8028ec <dir_find+0x34>
  8028e4:	e0bffc17 	ldw	r2,-16(fp)
  8028e8:	00002b06 	br	802998 <dir_find+0xe0>

#if _USE_LFN
   ord = sum = 0xFF;
#endif
   do {
      res = move_window(dj->fs, dj->sect);
  8028ec:	e0bfff17 	ldw	r2,-4(fp)
  8028f0:	10c00017 	ldw	r3,0(r2)
  8028f4:	e0bfff17 	ldw	r2,-4(fp)
  8028f8:	10800417 	ldw	r2,16(r2)
  8028fc:	1809883a 	mov	r4,r3
  802900:	100b883a 	mov	r5,r2
  802904:	08017140 	call	801714 <move_window>
  802908:	e0bffc15 	stw	r2,-16(fp)
      if (res != FR_OK) break;
  80290c:	e0bffc17 	ldw	r2,-16(fp)
  802910:	10000126 	beq	r2,zero,802918 <dir_find+0x60>
  802914:	00001f06 	br	802994 <dir_find+0xdc>
      dir = dj->dir;             /* Ptr to the directory entry of current index */
  802918:	e0bfff17 	ldw	r2,-4(fp)
  80291c:	10800517 	ldw	r2,20(r2)
  802920:	e0bffd15 	stw	r2,-12(fp)
      c = dir[DIR_Name];
  802924:	e0bffd17 	ldw	r2,-12(fp)
  802928:	10800003 	ldbu	r2,0(r2)
  80292c:	e0bffe05 	stb	r2,-8(fp)
      if (c == 0) { res = FR_NO_FILE; break; }  /* Reached to end of table */
  802930:	e0bffe03 	ldbu	r2,-8(fp)
  802934:	1000031e 	bne	r2,zero,802944 <dir_find+0x8c>
  802938:	00800104 	movi	r2,4
  80293c:	e0bffc15 	stw	r2,-16(fp)
  802940:	00001406 	br	802994 <dir_find+0xdc>
            ord = 0xFF; dj->lfn_idx = 0xFFFF;   /* Reset LFN sequence */
            if (!(dj->fn[NS] & NS_LOSS) && !mem_cmp(dir, dj->fn, 11)) break;  /* SFN matched? */
         }
      }
#else    /* Non LFN configuration */
      if (!(dir[DIR_Attr] & AM_VOL) && !mem_cmp(dir, dj->fn, 11)) /* Is it a valid entry? */
  802944:	e0bffd17 	ldw	r2,-12(fp)
  802948:	108002c4 	addi	r2,r2,11
  80294c:	10800003 	ldbu	r2,0(r2)
  802950:	10803fcc 	andi	r2,r2,255
  802954:	1080020c 	andi	r2,r2,8
  802958:	1000081e 	bne	r2,zero,80297c <dir_find+0xc4>
  80295c:	e0bfff17 	ldw	r2,-4(fp)
  802960:	10800617 	ldw	r2,24(r2)
  802964:	e13ffd17 	ldw	r4,-12(fp)
  802968:	100b883a 	mov	r5,r2
  80296c:	018002c4 	movi	r6,11
  802970:	080160c0 	call	80160c <mem_cmp>
  802974:	1000011e 	bne	r2,zero,80297c <dir_find+0xc4>
         break;
  802978:	00000606 	br	802994 <dir_find+0xdc>
#endif
      res = dir_next(dj, 0);     /* Next entry */
  80297c:	e13fff17 	ldw	r4,-4(fp)
  802980:	000b883a 	mov	r5,zero
  802984:	08025d00 	call	8025d0 <dir_next>
  802988:	e0bffc15 	stw	r2,-16(fp)
   } while (res == FR_OK);
  80298c:	e0bffc17 	ldw	r2,-16(fp)
  802990:	103fd626 	beq	r2,zero,8028ec <__alt_data_end+0xff8028ec>

   return res;
  802994:	e0bffc17 	ldw	r2,-16(fp)
}
  802998:	e037883a 	mov	sp,fp
  80299c:	dfc00117 	ldw	ra,4(sp)
  8029a0:	df000017 	ldw	fp,0(sp)
  8029a4:	dec00204 	addi	sp,sp,8
  8029a8:	f800283a 	ret

008029ac <dir_read>:
#if _FS_MINIMIZE <= 1
static
FRESULT dir_read (
   DIR *dj        /* Pointer to the directory object that pointing the entry to be read */
)
{
  8029ac:	defffa04 	addi	sp,sp,-24
  8029b0:	dfc00515 	stw	ra,20(sp)
  8029b4:	df000415 	stw	fp,16(sp)
  8029b8:	df000404 	addi	fp,sp,16
  8029bc:	e13fff15 	stw	r4,-4(fp)
   uint8_t c, *dir;
#if _USE_LFN
   uint8_t a, ord = 0xFF, sum = 0xFF;
#endif

   res = FR_NO_FILE;
  8029c0:	00800104 	movi	r2,4
  8029c4:	e0bffc15 	stw	r2,-16(fp)
   while (dj->sect) {
  8029c8:	00002a06 	br	802a74 <dir_read+0xc8>
      res = move_window(dj->fs, dj->sect);
  8029cc:	e0bfff17 	ldw	r2,-4(fp)
  8029d0:	10c00017 	ldw	r3,0(r2)
  8029d4:	e0bfff17 	ldw	r2,-4(fp)
  8029d8:	10800417 	ldw	r2,16(r2)
  8029dc:	1809883a 	mov	r4,r3
  8029e0:	100b883a 	mov	r5,r2
  8029e4:	08017140 	call	801714 <move_window>
  8029e8:	e0bffc15 	stw	r2,-16(fp)
      if (res != FR_OK) break;
  8029ec:	e0bffc17 	ldw	r2,-16(fp)
  8029f0:	10000126 	beq	r2,zero,8029f8 <dir_read+0x4c>
  8029f4:	00002206 	br	802a80 <dir_read+0xd4>
      dir = dj->dir;             /* Ptr to the directory entry of current index */
  8029f8:	e0bfff17 	ldw	r2,-4(fp)
  8029fc:	10800517 	ldw	r2,20(r2)
  802a00:	e0bffd15 	stw	r2,-12(fp)
      c = dir[DIR_Name];
  802a04:	e0bffd17 	ldw	r2,-12(fp)
  802a08:	10800003 	ldbu	r2,0(r2)
  802a0c:	e0bffe05 	stb	r2,-8(fp)
      if (c == 0) { res = FR_NO_FILE; break; }  /* Reached to end of table */
  802a10:	e0bffe03 	ldbu	r2,-8(fp)
  802a14:	1000031e 	bne	r2,zero,802a24 <dir_read+0x78>
  802a18:	00800104 	movi	r2,4
  802a1c:	e0bffc15 	stw	r2,-16(fp)
  802a20:	00001706 	br	802a80 <dir_read+0xd4>
               dj->lfn_idx = 0xFFFF;      /* It has no LFN. */
            break;
         }
      }
#else    /* Non LFN configuration */
      if (c != DDE && (_FS_RPATH || c != '.') && !(dir[DIR_Attr] & AM_VOL))   /* Is it a valid entry? */
  802a24:	e0bffe03 	ldbu	r2,-8(fp)
  802a28:	10803960 	cmpeqi	r2,r2,229
  802a2c:	10000a1e 	bne	r2,zero,802a58 <dir_read+0xac>
  802a30:	e0bffe03 	ldbu	r2,-8(fp)
  802a34:	10800ba0 	cmpeqi	r2,r2,46
  802a38:	1000071e 	bne	r2,zero,802a58 <dir_read+0xac>
  802a3c:	e0bffd17 	ldw	r2,-12(fp)
  802a40:	108002c4 	addi	r2,r2,11
  802a44:	10800003 	ldbu	r2,0(r2)
  802a48:	10803fcc 	andi	r2,r2,255
  802a4c:	1080020c 	andi	r2,r2,8
  802a50:	1000011e 	bne	r2,zero,802a58 <dir_read+0xac>
         break;
  802a54:	00000a06 	br	802a80 <dir_read+0xd4>
#endif
      res = dir_next(dj, 0);           /* Next entry */
  802a58:	e13fff17 	ldw	r4,-4(fp)
  802a5c:	000b883a 	mov	r5,zero
  802a60:	08025d00 	call	8025d0 <dir_next>
  802a64:	e0bffc15 	stw	r2,-16(fp)
      if (res != FR_OK) break;
  802a68:	e0bffc17 	ldw	r2,-16(fp)
  802a6c:	10000126 	beq	r2,zero,802a74 <dir_read+0xc8>
  802a70:	00000306 	br	802a80 <dir_read+0xd4>
#if _USE_LFN
   uint8_t a, ord = 0xFF, sum = 0xFF;
#endif

   res = FR_NO_FILE;
   while (dj->sect) {
  802a74:	e0bfff17 	ldw	r2,-4(fp)
  802a78:	10800417 	ldw	r2,16(r2)
  802a7c:	103fd31e 	bne	r2,zero,8029cc <__alt_data_end+0xff8029cc>
#endif
      res = dir_next(dj, 0);           /* Next entry */
      if (res != FR_OK) break;
   }

   if (res != FR_OK) dj->sect = 0;
  802a80:	e0bffc17 	ldw	r2,-16(fp)
  802a84:	10000226 	beq	r2,zero,802a90 <dir_read+0xe4>
  802a88:	e0bfff17 	ldw	r2,-4(fp)
  802a8c:	10000415 	stw	zero,16(r2)

   return res;
  802a90:	e0bffc17 	ldw	r2,-16(fp)
}
  802a94:	e037883a 	mov	sp,fp
  802a98:	dfc00117 	ldw	ra,4(sp)
  802a9c:	df000017 	ldw	fp,0(sp)
  802aa0:	dec00204 	addi	sp,sp,8
  802aa4:	f800283a 	ret

00802aa8 <dir_register>:
#if !_FS_READONLY
static
FRESULT dir_register (  /* FR_OK:Successful, FR_DENIED:No free entry or too many SFN collision, FR_DISK_ERR:Disk error */
   DIR *dj           /* Target directory with object name to be created */
)
{
  802aa8:	defffa04 	addi	sp,sp,-24
  802aac:	dfc00515 	stw	ra,20(sp)
  802ab0:	df000415 	stw	fp,16(sp)
  802ab4:	df000404 	addi	fp,sp,16
  802ab8:	e13fff15 	stw	r4,-4(fp)
         } while (res == FR_OK && --ne);
      }
   }

#else /* Non LFN configuration */
   res = dir_sdi(dj, 0);
  802abc:	e13fff17 	ldw	r4,-4(fp)
  802ac0:	000b883a 	mov	r5,zero
  802ac4:	08023e40 	call	8023e4 <dir_sdi>
  802ac8:	e0bffc15 	stw	r2,-16(fp)
   if (res == FR_OK) {
  802acc:	e0bffc17 	ldw	r2,-16(fp)
  802ad0:	10001a1e 	bne	r2,zero,802b3c <dir_register+0x94>
      do {  /* Find a blank entry for the SFN */
         res = move_window(dj->fs, dj->sect);
  802ad4:	e0bfff17 	ldw	r2,-4(fp)
  802ad8:	10c00017 	ldw	r3,0(r2)
  802adc:	e0bfff17 	ldw	r2,-4(fp)
  802ae0:	10800417 	ldw	r2,16(r2)
  802ae4:	1809883a 	mov	r4,r3
  802ae8:	100b883a 	mov	r5,r2
  802aec:	08017140 	call	801714 <move_window>
  802af0:	e0bffc15 	stw	r2,-16(fp)
         if (res != FR_OK) break;
  802af4:	e0bffc17 	ldw	r2,-16(fp)
  802af8:	10000126 	beq	r2,zero,802b00 <dir_register+0x58>
  802afc:	00000f06 	br	802b3c <dir_register+0x94>
         c = *dj->dir;
  802b00:	e0bfff17 	ldw	r2,-4(fp)
  802b04:	10800517 	ldw	r2,20(r2)
  802b08:	10800003 	ldbu	r2,0(r2)
  802b0c:	e0bffd05 	stb	r2,-12(fp)
         if (c == DDE || c == 0) break;   /* Is it a blank entry? */
  802b10:	e0bffd03 	ldbu	r2,-12(fp)
  802b14:	10803960 	cmpeqi	r2,r2,229
  802b18:	1000081e 	bne	r2,zero,802b3c <dir_register+0x94>
  802b1c:	e0bffd03 	ldbu	r2,-12(fp)
  802b20:	10000626 	beq	r2,zero,802b3c <dir_register+0x94>
         res = dir_next(dj, 1);        /* Next entry with table stretch */
  802b24:	e13fff17 	ldw	r4,-4(fp)
  802b28:	01400044 	movi	r5,1
  802b2c:	08025d00 	call	8025d0 <dir_next>
  802b30:	e0bffc15 	stw	r2,-16(fp)
      } while (res == FR_OK);
  802b34:	e0bffc17 	ldw	r2,-16(fp)
  802b38:	103fe626 	beq	r2,zero,802ad4 <__alt_data_end+0xff802ad4>
   }
#endif

   if (res == FR_OK) {     /* Initialize the SFN entry */
  802b3c:	e0bffc17 	ldw	r2,-16(fp)
  802b40:	10001b1e 	bne	r2,zero,802bb0 <dir_register+0x108>
      res = move_window(dj->fs, dj->sect);
  802b44:	e0bfff17 	ldw	r2,-4(fp)
  802b48:	10c00017 	ldw	r3,0(r2)
  802b4c:	e0bfff17 	ldw	r2,-4(fp)
  802b50:	10800417 	ldw	r2,16(r2)
  802b54:	1809883a 	mov	r4,r3
  802b58:	100b883a 	mov	r5,r2
  802b5c:	08017140 	call	801714 <move_window>
  802b60:	e0bffc15 	stw	r2,-16(fp)
      if (res == FR_OK) {
  802b64:	e0bffc17 	ldw	r2,-16(fp)
  802b68:	1000111e 	bne	r2,zero,802bb0 <dir_register+0x108>
         dir = dj->dir;
  802b6c:	e0bfff17 	ldw	r2,-4(fp)
  802b70:	10800517 	ldw	r2,20(r2)
  802b74:	e0bffe15 	stw	r2,-8(fp)
         mem_set(dir, 0, SZ_DIR);   /* Clean the entry */
  802b78:	e13ffe17 	ldw	r4,-8(fp)
  802b7c:	000b883a 	mov	r5,zero
  802b80:	01800804 	movi	r6,32
  802b84:	08015b40 	call	8015b4 <mem_set>
         mem_cpy(dir, dj->fn, 11);  /* Put SFN */
  802b88:	e0bfff17 	ldw	r2,-4(fp)
  802b8c:	10800617 	ldw	r2,24(r2)
  802b90:	e13ffe17 	ldw	r4,-8(fp)
  802b94:	100b883a 	mov	r5,r2
  802b98:	018002c4 	movi	r6,11
  802b9c:	08015480 	call	801548 <mem_cpy>
#if _USE_LFN
         dir[DIR_NTres] = *(dj->fn+NS) & (NS_BODY | NS_EXT);   /* Put NT flag */
#endif
         dj->fs->wflag = 1;
  802ba0:	e0bfff17 	ldw	r2,-4(fp)
  802ba4:	10800017 	ldw	r2,0(r2)
  802ba8:	00c00044 	movi	r3,1
  802bac:	10c00105 	stb	r3,4(r2)
      }
   }

   return res;
  802bb0:	e0bffc17 	ldw	r2,-16(fp)
}
  802bb4:	e037883a 	mov	sp,fp
  802bb8:	dfc00117 	ldw	ra,4(sp)
  802bbc:	df000017 	ldw	fp,0(sp)
  802bc0:	dec00204 	addi	sp,sp,8
  802bc4:	f800283a 	ret

00802bc8 <dir_remove>:
#if !_FS_READONLY && !_FS_MINIMIZE
static
FRESULT dir_remove ( /* FR_OK: Successful, FR_DISK_ERR: A disk error */
   DIR *dj           /* Directory object pointing the entry to be removed */
)
{
  802bc8:	defffc04 	addi	sp,sp,-16
  802bcc:	dfc00315 	stw	ra,12(sp)
  802bd0:	df000215 	stw	fp,8(sp)
  802bd4:	df000204 	addi	fp,sp,8
  802bd8:	e13fff15 	stw	r4,-4(fp)
      } while (res == FR_OK);
      if (res == FR_NO_FILE) res = FR_INT_ERR;
   }

#else       /* Non LFN configuration */
   res = dir_sdi(dj, dj->index);
  802bdc:	e0bfff17 	ldw	r2,-4(fp)
  802be0:	1080018b 	ldhu	r2,6(r2)
  802be4:	10bfffcc 	andi	r2,r2,65535
  802be8:	e13fff17 	ldw	r4,-4(fp)
  802bec:	100b883a 	mov	r5,r2
  802bf0:	08023e40 	call	8023e4 <dir_sdi>
  802bf4:	e0bffe15 	stw	r2,-8(fp)
   if (res == FR_OK) {
  802bf8:	e0bffe17 	ldw	r2,-8(fp)
  802bfc:	1000121e 	bne	r2,zero,802c48 <dir_remove+0x80>
      res = move_window(dj->fs, dj->sect);
  802c00:	e0bfff17 	ldw	r2,-4(fp)
  802c04:	10c00017 	ldw	r3,0(r2)
  802c08:	e0bfff17 	ldw	r2,-4(fp)
  802c0c:	10800417 	ldw	r2,16(r2)
  802c10:	1809883a 	mov	r4,r3
  802c14:	100b883a 	mov	r5,r2
  802c18:	08017140 	call	801714 <move_window>
  802c1c:	e0bffe15 	stw	r2,-8(fp)
      if (res == FR_OK) {
  802c20:	e0bffe17 	ldw	r2,-8(fp)
  802c24:	1000081e 	bne	r2,zero,802c48 <dir_remove+0x80>
         *dj->dir = DDE;         /* Mark the entry "deleted" */
  802c28:	e0bfff17 	ldw	r2,-4(fp)
  802c2c:	10800517 	ldw	r2,20(r2)
  802c30:	00fff944 	movi	r3,-27
  802c34:	10c00005 	stb	r3,0(r2)
         dj->fs->wflag = 1;
  802c38:	e0bfff17 	ldw	r2,-4(fp)
  802c3c:	10800017 	ldw	r2,0(r2)
  802c40:	00c00044 	movi	r3,1
  802c44:	10c00105 	stb	r3,4(r2)
      }
   }
#endif

   return res;
  802c48:	e0bffe17 	ldw	r2,-8(fp)
}
  802c4c:	e037883a 	mov	sp,fp
  802c50:	dfc00117 	ldw	ra,4(sp)
  802c54:	df000017 	ldw	fp,0(sp)
  802c58:	dec00204 	addi	sp,sp,8
  802c5c:	f800283a 	ret

00802c60 <create_name>:
static
FRESULT create_name (
   DIR *dj,       /* Pointer to the directory object */
   const TCHAR **path   /* Pointer to pointer to the segment in the path string */
)
{
  802c60:	defff604 	addi	sp,sp,-40
  802c64:	dfc00915 	stw	ra,36(sp)
  802c68:	df000815 	stw	fp,32(sp)
  802c6c:	df000804 	addi	fp,sp,32
  802c70:	e13ffe15 	stw	r4,-8(fp)
  802c74:	e17fff15 	stw	r5,-4(fp)
   uint8_t b, c, d, *sfn;
   uint32_t ni, si, i;
   const char *p;

   /* Create file name in directory form */
   for (p = *path; *p == '/' || *p == '\\'; p++) ; /* Strip duplicated separator */
  802c78:	e0bfff17 	ldw	r2,-4(fp)
  802c7c:	10800017 	ldw	r2,0(r2)
  802c80:	e0bffc15 	stw	r2,-16(fp)
  802c84:	00000306 	br	802c94 <create_name+0x34>
  802c88:	e0bffc17 	ldw	r2,-16(fp)
  802c8c:	10800044 	addi	r2,r2,1
  802c90:	e0bffc15 	stw	r2,-16(fp)
  802c94:	e0bffc17 	ldw	r2,-16(fp)
  802c98:	10800003 	ldbu	r2,0(r2)
  802c9c:	10803fcc 	andi	r2,r2,255
  802ca0:	1080201c 	xori	r2,r2,128
  802ca4:	10bfe004 	addi	r2,r2,-128
  802ca8:	10800be0 	cmpeqi	r2,r2,47
  802cac:	103ff61e 	bne	r2,zero,802c88 <__alt_data_end+0xff802c88>
  802cb0:	e0bffc17 	ldw	r2,-16(fp)
  802cb4:	10800003 	ldbu	r2,0(r2)
  802cb8:	10803fcc 	andi	r2,r2,255
  802cbc:	1080201c 	xori	r2,r2,128
  802cc0:	10bfe004 	addi	r2,r2,-128
  802cc4:	10801720 	cmpeqi	r2,r2,92
  802cc8:	103fef1e 	bne	r2,zero,802c88 <__alt_data_end+0xff802c88>
   sfn = dj->fn;
  802ccc:	e0bffe17 	ldw	r2,-8(fp)
  802cd0:	10800617 	ldw	r2,24(r2)
  802cd4:	e0bffd15 	stw	r2,-12(fp)
   mem_set(sfn, ' ', 11);
  802cd8:	e13ffd17 	ldw	r4,-12(fp)
  802cdc:	01400804 	movi	r5,32
  802ce0:	018002c4 	movi	r6,11
  802ce4:	08015b40 	call	8015b4 <mem_set>
   si = i = b = 0; ni = 8;
  802ce8:	e03ff805 	stb	zero,-32(fp)
  802cec:	e03ffb15 	stw	zero,-20(fp)
  802cf0:	e0bffb17 	ldw	r2,-20(fp)
  802cf4:	e0bffa15 	stw	r2,-24(fp)
  802cf8:	00800204 	movi	r2,8
  802cfc:	e0bff915 	stw	r2,-28(fp)
      sfn[NS] = (c <= ' ') ? NS_LAST | NS_DOT : NS_DOT;  /* Set last segment flag if end of path */
      return FR_OK;
   }
#endif
   for (;;) {
      c = (uint8_t)p[si++];
  802d00:	e0bffa17 	ldw	r2,-24(fp)
  802d04:	10c00044 	addi	r3,r2,1
  802d08:	e0fffa15 	stw	r3,-24(fp)
  802d0c:	e0fffc17 	ldw	r3,-16(fp)
  802d10:	1885883a 	add	r2,r3,r2
  802d14:	10800003 	ldbu	r2,0(r2)
  802d18:	e0bff845 	stb	r2,-31(fp)
      if (c <= ' ' || c == '/' || c == '\\') break;   /* Break on end of segment */
  802d1c:	e0bff843 	ldbu	r2,-31(fp)
  802d20:	10800870 	cmpltui	r2,r2,33
  802d24:	1000521e 	bne	r2,zero,802e70 <create_name+0x210>
  802d28:	e0bff843 	ldbu	r2,-31(fp)
  802d2c:	10800be0 	cmpeqi	r2,r2,47
  802d30:	10004f1e 	bne	r2,zero,802e70 <create_name+0x210>
  802d34:	e0bff843 	ldbu	r2,-31(fp)
  802d38:	10801720 	cmpeqi	r2,r2,92
  802d3c:	10004c1e 	bne	r2,zero,802e70 <create_name+0x210>
      if (c == '.' || i >= ni) {
  802d40:	e0bff843 	ldbu	r2,-31(fp)
  802d44:	10800ba0 	cmpeqi	r2,r2,46
  802d48:	1000031e 	bne	r2,zero,802d58 <create_name+0xf8>
  802d4c:	e0fffb17 	ldw	r3,-20(fp)
  802d50:	e0bff917 	ldw	r2,-28(fp)
  802d54:	18801136 	bltu	r3,r2,802d9c <create_name+0x13c>
         if (ni != 8 || c != '.') return FR_INVALID_NAME;
  802d58:	e0bff917 	ldw	r2,-28(fp)
  802d5c:	10800218 	cmpnei	r2,r2,8
  802d60:	1000031e 	bne	r2,zero,802d70 <create_name+0x110>
  802d64:	e0bff843 	ldbu	r2,-31(fp)
  802d68:	10800ba0 	cmpeqi	r2,r2,46
  802d6c:	1000021e 	bne	r2,zero,802d78 <create_name+0x118>
  802d70:	00800184 	movi	r2,6
  802d74:	00007006 	br	802f38 <create_name+0x2d8>
         i = 8; ni = 11;
  802d78:	00800204 	movi	r2,8
  802d7c:	e0bffb15 	stw	r2,-20(fp)
  802d80:	008002c4 	movi	r2,11
  802d84:	e0bff915 	stw	r2,-28(fp)
         b <<= 2; continue;
  802d88:	e0bff803 	ldbu	r2,-32(fp)
  802d8c:	1085883a 	add	r2,r2,r2
  802d90:	1085883a 	add	r2,r2,r2
  802d94:	e0bff805 	stb	r2,-32(fp)
  802d98:	00003406 	br	802e6c <create_name+0x20c>
      }
      if (c >= 0x80) {           /* Extended char? */
  802d9c:	e0bff843 	ldbu	r2,-31(fp)
  802da0:	10803fcc 	andi	r2,r2,255
  802da4:	1080201c 	xori	r2,r2,128
  802da8:	10bfe004 	addi	r2,r2,-128
  802dac:	10000a0e 	bge	r2,zero,802dd8 <create_name+0x178>
         b |= 3;                 /* Eliminate NT flag */
  802db0:	e0bff803 	ldbu	r2,-32(fp)
  802db4:	108000d4 	ori	r2,r2,3
  802db8:	e0bff805 	stb	r2,-32(fp)
#ifdef _EXCVT
         c = excvt[c-0x80];         /* Upper conversion (SBCS) */
  802dbc:	e0bff843 	ldbu	r2,-31(fp)
  802dc0:	10ffe004 	addi	r3,r2,-128
  802dc4:	00802074 	movhi	r2,129
  802dc8:	10844504 	addi	r2,r2,4372
  802dcc:	10c5883a 	add	r2,r2,r3
  802dd0:	10800003 	ldbu	r2,0(r2)
  802dd4:	e0bff845 	stb	r2,-31(fp)
         if (!IsDBCS2(d) || i >= ni - 1)  /* Reject invalid DBC */
            return FR_INVALID_NAME;
         sfn[i++] = c;
         sfn[i++] = d;
      } else {                /* Single byte code */
         if (chk_chr("\"*+,:;<=>\?[]|\x7F", c)) /* Reject illegal chrs for SFN */
  802dd8:	e0bff843 	ldbu	r2,-31(fp)
  802ddc:	01002074 	movhi	r4,129
  802de0:	21043404 	addi	r4,r4,4304
  802de4:	100b883a 	mov	r5,r2
  802de8:	08016980 	call	801698 <chk_chr>
  802dec:	10000226 	beq	r2,zero,802df8 <create_name+0x198>
            return FR_INVALID_NAME;
  802df0:	00800184 	movi	r2,6
  802df4:	00005006 	br	802f38 <create_name+0x2d8>
         if (IsUpper(c)) {       /* ASCII large capital? */
  802df8:	e0bff843 	ldbu	r2,-31(fp)
  802dfc:	10801070 	cmpltui	r2,r2,65
  802e00:	1000071e 	bne	r2,zero,802e20 <create_name+0x1c0>
  802e04:	e0bff843 	ldbu	r2,-31(fp)
  802e08:	108016e8 	cmpgeui	r2,r2,91
  802e0c:	1000041e 	bne	r2,zero,802e20 <create_name+0x1c0>
            b |= 2;
  802e10:	e0bff803 	ldbu	r2,-32(fp)
  802e14:	10800094 	ori	r2,r2,2
  802e18:	e0bff805 	stb	r2,-32(fp)
  802e1c:	00000c06 	br	802e50 <create_name+0x1f0>
         } else {
            if (IsLower(c)) {    /* ASCII small capital? */
  802e20:	e0bff843 	ldbu	r2,-31(fp)
  802e24:	10801870 	cmpltui	r2,r2,97
  802e28:	1000091e 	bne	r2,zero,802e50 <create_name+0x1f0>
  802e2c:	e0bff843 	ldbu	r2,-31(fp)
  802e30:	10801ee8 	cmpgeui	r2,r2,123
  802e34:	1000061e 	bne	r2,zero,802e50 <create_name+0x1f0>
               b |= 1; c -= 0x20;
  802e38:	e0bff803 	ldbu	r2,-32(fp)
  802e3c:	10800054 	ori	r2,r2,1
  802e40:	e0bff805 	stb	r2,-32(fp)
  802e44:	e0bff843 	ldbu	r2,-31(fp)
  802e48:	10bff804 	addi	r2,r2,-32
  802e4c:	e0bff845 	stb	r2,-31(fp)
            }
         }
         sfn[i++] = c;
  802e50:	e0bffb17 	ldw	r2,-20(fp)
  802e54:	10c00044 	addi	r3,r2,1
  802e58:	e0fffb15 	stw	r3,-20(fp)
  802e5c:	e0fffd17 	ldw	r3,-12(fp)
  802e60:	1885883a 	add	r2,r3,r2
  802e64:	e0fff843 	ldbu	r3,-31(fp)
  802e68:	10c00005 	stb	r3,0(r2)
      }
   }
  802e6c:	003fa406 	br	802d00 <__alt_data_end+0xff802d00>
   *path = &p[si];                  /* Return pointer to the next segment */
  802e70:	e0fffc17 	ldw	r3,-16(fp)
  802e74:	e0bffa17 	ldw	r2,-24(fp)
  802e78:	1887883a 	add	r3,r3,r2
  802e7c:	e0bfff17 	ldw	r2,-4(fp)
  802e80:	10c00015 	stw	r3,0(r2)
   c = (c <= ' ') ? NS_LAST : 0;    /* Set last segment flag if end of path */
  802e84:	e0bff843 	ldbu	r2,-31(fp)
  802e88:	10800868 	cmpgeui	r2,r2,33
  802e8c:	1000021e 	bne	r2,zero,802e98 <create_name+0x238>
  802e90:	00800104 	movi	r2,4
  802e94:	00000106 	br	802e9c <create_name+0x23c>
  802e98:	0005883a 	mov	r2,zero
  802e9c:	e0bff845 	stb	r2,-31(fp)

   if (!i) return FR_INVALID_NAME;     /* Reject nul string */
  802ea0:	e0bffb17 	ldw	r2,-20(fp)
  802ea4:	1000021e 	bne	r2,zero,802eb0 <create_name+0x250>
  802ea8:	00800184 	movi	r2,6
  802eac:	00002206 	br	802f38 <create_name+0x2d8>
   if (sfn[0] == DDE) sfn[0] = NDDE;   /* When first char collides with DDE, replace it with 0x05 */
  802eb0:	e0bffd17 	ldw	r2,-12(fp)
  802eb4:	10800003 	ldbu	r2,0(r2)
  802eb8:	10803fcc 	andi	r2,r2,255
  802ebc:	10803958 	cmpnei	r2,r2,229
  802ec0:	1000031e 	bne	r2,zero,802ed0 <create_name+0x270>
  802ec4:	e0bffd17 	ldw	r2,-12(fp)
  802ec8:	00c00144 	movi	r3,5
  802ecc:	10c00005 	stb	r3,0(r2)

   if (ni == 8) b <<= 2;
  802ed0:	e0bff917 	ldw	r2,-28(fp)
  802ed4:	10800218 	cmpnei	r2,r2,8
  802ed8:	1000041e 	bne	r2,zero,802eec <create_name+0x28c>
  802edc:	e0bff803 	ldbu	r2,-32(fp)
  802ee0:	1085883a 	add	r2,r2,r2
  802ee4:	1085883a 	add	r2,r2,r2
  802ee8:	e0bff805 	stb	r2,-32(fp)
   if ((b & 0x03) == 0x01) c |= NS_EXT;   /* NT flag (Name extension has only small capital) */
  802eec:	e0bff803 	ldbu	r2,-32(fp)
  802ef0:	108000cc 	andi	r2,r2,3
  802ef4:	10800058 	cmpnei	r2,r2,1
  802ef8:	1000031e 	bne	r2,zero,802f08 <create_name+0x2a8>
  802efc:	e0bff843 	ldbu	r2,-31(fp)
  802f00:	10800414 	ori	r2,r2,16
  802f04:	e0bff845 	stb	r2,-31(fp)
   if ((b & 0x0C) == 0x04) c |= NS_BODY;  /* NT flag (Name body has only small capital) */
  802f08:	e0bff803 	ldbu	r2,-32(fp)
  802f0c:	1080030c 	andi	r2,r2,12
  802f10:	10800118 	cmpnei	r2,r2,4
  802f14:	1000031e 	bne	r2,zero,802f24 <create_name+0x2c4>
  802f18:	e0bff843 	ldbu	r2,-31(fp)
  802f1c:	10800214 	ori	r2,r2,8
  802f20:	e0bff845 	stb	r2,-31(fp)

   sfn[NS] = c;      /* Store NT flag, File name is created */
  802f24:	e0bffd17 	ldw	r2,-12(fp)
  802f28:	108002c4 	addi	r2,r2,11
  802f2c:	e0fff843 	ldbu	r3,-31(fp)
  802f30:	10c00005 	stb	r3,0(r2)

   return FR_OK;
  802f34:	0005883a 	mov	r2,zero
#endif
}
  802f38:	e037883a 	mov	sp,fp
  802f3c:	dfc00117 	ldw	ra,4(sp)
  802f40:	df000017 	ldw	fp,0(sp)
  802f44:	dec00204 	addi	sp,sp,8
  802f48:	f800283a 	ret

00802f4c <get_fileinfo>:
static
void get_fileinfo (     /* No return code */
   DIR *dj,       /* Pointer to the directory object */
   FILINFO *fno      /* Pointer to the file information to be filled */
)
{
  802f4c:	defff804 	addi	sp,sp,-32
  802f50:	df000715 	stw	fp,28(sp)
  802f54:	df000704 	addi	fp,sp,28
  802f58:	e13ffe15 	stw	r4,-8(fp)
  802f5c:	e17fff15 	stw	r5,-4(fp)
   uint32_t i;
   uint8_t nt, *dir;
   TCHAR *p, c;


   p = fno->fname;
  802f60:	e0bfff17 	ldw	r2,-4(fp)
  802f64:	10800244 	addi	r2,r2,9
  802f68:	e0bffa15 	stw	r2,-24(fp)
   if (dj->sect) {
  802f6c:	e0bffe17 	ldw	r2,-8(fp)
  802f70:	10800417 	ldw	r2,16(r2)
  802f74:	10007b26 	beq	r2,zero,803164 <get_fileinfo+0x218>
      dir = dj->dir;
  802f78:	e0bffe17 	ldw	r2,-8(fp)
  802f7c:	10800517 	ldw	r2,20(r2)
  802f80:	e0bffc15 	stw	r2,-16(fp)
      nt = dir[DIR_NTres];    /* NT flag */
  802f84:	e0bffc17 	ldw	r2,-16(fp)
  802f88:	10800303 	ldbu	r2,12(r2)
  802f8c:	e0bffd05 	stb	r2,-12(fp)
      for (i = 0; i < 8; i++) {  /* Copy name body */
  802f90:	e03ff915 	stw	zero,-28(fp)
  802f94:	00001606 	br	802ff0 <get_fileinfo+0xa4>
         c = dir[i];
  802f98:	e0fffc17 	ldw	r3,-16(fp)
  802f9c:	e0bff917 	ldw	r2,-28(fp)
  802fa0:	1885883a 	add	r2,r3,r2
  802fa4:	10800003 	ldbu	r2,0(r2)
  802fa8:	e0bffb05 	stb	r2,-20(fp)
         if (c == ' ') break;
  802fac:	e0bffb07 	ldb	r2,-20(fp)
  802fb0:	10800818 	cmpnei	r2,r2,32
  802fb4:	1000011e 	bne	r2,zero,802fbc <get_fileinfo+0x70>
  802fb8:	00001006 	br	802ffc <get_fileinfo+0xb0>
         if (c == NDDE) c = (TCHAR)DDE;
  802fbc:	e0bffb07 	ldb	r2,-20(fp)
  802fc0:	10800158 	cmpnei	r2,r2,5
  802fc4:	1000021e 	bne	r2,zero,802fd0 <get_fileinfo+0x84>
  802fc8:	00bff944 	movi	r2,-27
  802fcc:	e0bffb05 	stb	r2,-20(fp)
         if (IsDBCS1(c) && i < 7 && IsDBCS2(dir[i+1]))
            c = (c << 8) | dir[++i];
         c = ff_convert(c, 1);
         if (!c) c = '?';
#endif
         *p++ = c;
  802fd0:	e0bffa17 	ldw	r2,-24(fp)
  802fd4:	10c00044 	addi	r3,r2,1
  802fd8:	e0fffa15 	stw	r3,-24(fp)
  802fdc:	e0fffb03 	ldbu	r3,-20(fp)
  802fe0:	10c00005 	stb	r3,0(r2)

   p = fno->fname;
   if (dj->sect) {
      dir = dj->dir;
      nt = dir[DIR_NTres];    /* NT flag */
      for (i = 0; i < 8; i++) {  /* Copy name body */
  802fe4:	e0bff917 	ldw	r2,-28(fp)
  802fe8:	10800044 	addi	r2,r2,1
  802fec:	e0bff915 	stw	r2,-28(fp)
  802ff0:	e0bff917 	ldw	r2,-28(fp)
  802ff4:	10800230 	cmpltui	r2,r2,8
  802ff8:	103fe71e 	bne	r2,zero,802f98 <__alt_data_end+0xff802f98>
         c = ff_convert(c, 1);
         if (!c) c = '?';
#endif
         *p++ = c;
      }
      if (dir[8] != ' ') {    /* Copy name extension */
  802ffc:	e0bffc17 	ldw	r2,-16(fp)
  803000:	10800204 	addi	r2,r2,8
  803004:	10800003 	ldbu	r2,0(r2)
  803008:	10803fcc 	andi	r2,r2,255
  80300c:	10800820 	cmpeqi	r2,r2,32
  803010:	10001c1e 	bne	r2,zero,803084 <get_fileinfo+0x138>
         *p++ = '.';
  803014:	e0bffa17 	ldw	r2,-24(fp)
  803018:	10c00044 	addi	r3,r2,1
  80301c:	e0fffa15 	stw	r3,-24(fp)
  803020:	00c00b84 	movi	r3,46
  803024:	10c00005 	stb	r3,0(r2)
         for (i = 8; i < 11; i++) {
  803028:	00800204 	movi	r2,8
  80302c:	e0bff915 	stw	r2,-28(fp)
  803030:	00001106 	br	803078 <get_fileinfo+0x12c>
            c = dir[i];
  803034:	e0fffc17 	ldw	r3,-16(fp)
  803038:	e0bff917 	ldw	r2,-28(fp)
  80303c:	1885883a 	add	r2,r3,r2
  803040:	10800003 	ldbu	r2,0(r2)
  803044:	e0bffb05 	stb	r2,-20(fp)
            if (c == ' ') break;
  803048:	e0bffb07 	ldb	r2,-20(fp)
  80304c:	10800818 	cmpnei	r2,r2,32
  803050:	1000011e 	bne	r2,zero,803058 <get_fileinfo+0x10c>
  803054:	00000b06 	br	803084 <get_fileinfo+0x138>
            if (IsDBCS1(c) && i < 10 && IsDBCS2(dir[i+1]))
               c = (c << 8) | dir[++i];
            c = ff_convert(c, 1);
            if (!c) c = '?';
#endif
            *p++ = c;
  803058:	e0bffa17 	ldw	r2,-24(fp)
  80305c:	10c00044 	addi	r3,r2,1
  803060:	e0fffa15 	stw	r3,-24(fp)
  803064:	e0fffb03 	ldbu	r3,-20(fp)
  803068:	10c00005 	stb	r3,0(r2)
#endif
         *p++ = c;
      }
      if (dir[8] != ' ') {    /* Copy name extension */
         *p++ = '.';
         for (i = 8; i < 11; i++) {
  80306c:	e0bff917 	ldw	r2,-28(fp)
  803070:	10800044 	addi	r2,r2,1
  803074:	e0bff915 	stw	r2,-28(fp)
  803078:	e0bff917 	ldw	r2,-28(fp)
  80307c:	108002f0 	cmpltui	r2,r2,11
  803080:	103fec1e 	bne	r2,zero,803034 <__alt_data_end+0xff803034>
            if (!c) c = '?';
#endif
            *p++ = c;
         }
      }
      fno->fattrib = dir[DIR_Attr];          /* Attribute */
  803084:	e0bffc17 	ldw	r2,-16(fp)
  803088:	10c002c3 	ldbu	r3,11(r2)
  80308c:	e0bfff17 	ldw	r2,-4(fp)
  803090:	10c00205 	stb	r3,8(r2)
      fno->fsize = LD_DWORD(dir+DIR_FileSize);  /* Size */
  803094:	e0bffc17 	ldw	r2,-16(fp)
  803098:	108007c4 	addi	r2,r2,31
  80309c:	10800003 	ldbu	r2,0(r2)
  8030a0:	10803fcc 	andi	r2,r2,255
  8030a4:	1006963a 	slli	r3,r2,24
  8030a8:	e0bffc17 	ldw	r2,-16(fp)
  8030ac:	10800784 	addi	r2,r2,30
  8030b0:	10800003 	ldbu	r2,0(r2)
  8030b4:	10803fcc 	andi	r2,r2,255
  8030b8:	1004943a 	slli	r2,r2,16
  8030bc:	1884b03a 	or	r2,r3,r2
  8030c0:	e0fffc17 	ldw	r3,-16(fp)
  8030c4:	18c00744 	addi	r3,r3,29
  8030c8:	18c00003 	ldbu	r3,0(r3)
  8030cc:	18c03fcc 	andi	r3,r3,255
  8030d0:	1806923a 	slli	r3,r3,8
  8030d4:	10c6b03a 	or	r3,r2,r3
  8030d8:	e0bffc17 	ldw	r2,-16(fp)
  8030dc:	10800704 	addi	r2,r2,28
  8030e0:	10800003 	ldbu	r2,0(r2)
  8030e4:	10803fcc 	andi	r2,r2,255
  8030e8:	1886b03a 	or	r3,r3,r2
  8030ec:	e0bfff17 	ldw	r2,-4(fp)
  8030f0:	10c00015 	stw	r3,0(r2)
      fno->fdate = LD_WORD(dir+DIR_WrtDate);    /* Date */
  8030f4:	e0bffc17 	ldw	r2,-16(fp)
  8030f8:	10800644 	addi	r2,r2,25
  8030fc:	10800003 	ldbu	r2,0(r2)
  803100:	10803fcc 	andi	r2,r2,255
  803104:	1004923a 	slli	r2,r2,8
  803108:	1007883a 	mov	r3,r2
  80310c:	e0bffc17 	ldw	r2,-16(fp)
  803110:	10800604 	addi	r2,r2,24
  803114:	10800003 	ldbu	r2,0(r2)
  803118:	10803fcc 	andi	r2,r2,255
  80311c:	1884b03a 	or	r2,r3,r2
  803120:	1007883a 	mov	r3,r2
  803124:	e0bfff17 	ldw	r2,-4(fp)
  803128:	10c0010d 	sth	r3,4(r2)
      fno->ftime = LD_WORD(dir+DIR_WrtTime);    /* Time */
  80312c:	e0bffc17 	ldw	r2,-16(fp)
  803130:	108005c4 	addi	r2,r2,23
  803134:	10800003 	ldbu	r2,0(r2)
  803138:	10803fcc 	andi	r2,r2,255
  80313c:	1004923a 	slli	r2,r2,8
  803140:	1007883a 	mov	r3,r2
  803144:	e0bffc17 	ldw	r2,-16(fp)
  803148:	10800584 	addi	r2,r2,22
  80314c:	10800003 	ldbu	r2,0(r2)
  803150:	10803fcc 	andi	r2,r2,255
  803154:	1884b03a 	or	r2,r3,r2
  803158:	1007883a 	mov	r3,r2
  80315c:	e0bfff17 	ldw	r2,-4(fp)
  803160:	10c0018d 	sth	r3,6(r2)
   }
   *p = 0;     /* Terminate SFN str by a \0 */
  803164:	e0bffa17 	ldw	r2,-24(fp)
  803168:	10000005 	stb	zero,0(r2)
         }
      }
      tp[i] = 0;  /* Terminate the LFN str by a \0 */
   }
#endif
}
  80316c:	e037883a 	mov	sp,fp
  803170:	df000017 	ldw	fp,0(sp)
  803174:	dec00104 	addi	sp,sp,4
  803178:	f800283a 	ret

0080317c <follow_path>:
static
FRESULT follow_path (   /* FR_OK(0): successful, !=0: error code */
   DIR *dj,       /* Directory object to return last directory and found object */
   const TCHAR *path /* Full-path string to find a file or directory */
)
{
  80317c:	defff904 	addi	sp,sp,-28
  803180:	dfc00615 	stw	ra,24(sp)
  803184:	df000515 	stw	fp,20(sp)
  803188:	df000504 	addi	fp,sp,20
  80318c:	e13ffe15 	stw	r4,-8(fp)
  803190:	e17fff15 	stw	r5,-4(fp)
      path++;  dj->sclust = 0;      /* Strip it and start from the root dir */
   } else {                   /* No heading separator */
      dj->sclust = dj->fs->cdir; /* Start from the current dir */
   }
#else
   if (*path == '/' || *path == '\\')  /* Strip heading separator if exist */
  803194:	e0bfff17 	ldw	r2,-4(fp)
  803198:	10800003 	ldbu	r2,0(r2)
  80319c:	10803fcc 	andi	r2,r2,255
  8031a0:	1080201c 	xori	r2,r2,128
  8031a4:	10bfe004 	addi	r2,r2,-128
  8031a8:	10800be0 	cmpeqi	r2,r2,47
  8031ac:	1000071e 	bne	r2,zero,8031cc <follow_path+0x50>
  8031b0:	e0bfff17 	ldw	r2,-4(fp)
  8031b4:	10800003 	ldbu	r2,0(r2)
  8031b8:	10803fcc 	andi	r2,r2,255
  8031bc:	1080201c 	xori	r2,r2,128
  8031c0:	10bfe004 	addi	r2,r2,-128
  8031c4:	10801718 	cmpnei	r2,r2,92
  8031c8:	1000031e 	bne	r2,zero,8031d8 <follow_path+0x5c>
      path++;
  8031cc:	e0bfff17 	ldw	r2,-4(fp)
  8031d0:	10800044 	addi	r2,r2,1
  8031d4:	e0bfff15 	stw	r2,-4(fp)
   dj->sclust = 0;                  /* Start from the root dir */
  8031d8:	e0bffe17 	ldw	r2,-8(fp)
  8031dc:	10000215 	stw	zero,8(r2)
#endif

   if ((uint32_t)*path < ' ') {         /* Nul path means the start directory itself */
  8031e0:	e0bfff17 	ldw	r2,-4(fp)
  8031e4:	10800003 	ldbu	r2,0(r2)
  8031e8:	10803fcc 	andi	r2,r2,255
  8031ec:	10800828 	cmpgeui	r2,r2,32
  8031f0:	1000071e 	bne	r2,zero,803210 <follow_path+0x94>
      res = dir_sdi(dj, 0);
  8031f4:	e13ffe17 	ldw	r4,-8(fp)
  8031f8:	000b883a 	mov	r5,zero
  8031fc:	08023e40 	call	8023e4 <dir_sdi>
  803200:	e0bffb15 	stw	r2,-20(fp)
      dj->dir = 0;
  803204:	e0bffe17 	ldw	r2,-8(fp)
  803208:	10000515 	stw	zero,20(r2)
  80320c:	00004906 	br	803334 <follow_path+0x1b8>

   } else {                   /* Follow path */
      for (;;) {
         res = create_name(dj, &path); /* Get a segment */
  803210:	e0bfff04 	addi	r2,fp,-4
  803214:	e13ffe17 	ldw	r4,-8(fp)
  803218:	100b883a 	mov	r5,r2
  80321c:	0802c600 	call	802c60 <create_name>
  803220:	e0bffb15 	stw	r2,-20(fp)
         if (res != FR_OK) break;
  803224:	e0bffb17 	ldw	r2,-20(fp)
  803228:	10000126 	beq	r2,zero,803230 <follow_path+0xb4>
  80322c:	00004106 	br	803334 <follow_path+0x1b8>
         res = dir_find(dj);           /* Find it */
  803230:	e13ffe17 	ldw	r4,-8(fp)
  803234:	08028b80 	call	8028b8 <dir_find>
  803238:	e0bffb15 	stw	r2,-20(fp)
         ns = *(dj->fn+NS);
  80323c:	e0bffe17 	ldw	r2,-8(fp)
  803240:	10800617 	ldw	r2,24(r2)
  803244:	108002c3 	ldbu	r2,11(r2)
  803248:	e0bffc05 	stb	r2,-16(fp)
         if (res != FR_OK) {           /* Failed to find the object */
  80324c:	e0bffb17 	ldw	r2,-20(fp)
  803250:	10000b26 	beq	r2,zero,803280 <follow_path+0x104>
            if (res != FR_NO_FILE) break; /* Abort if any hard error occured */
  803254:	e0bffb17 	ldw	r2,-20(fp)
  803258:	10800120 	cmpeqi	r2,r2,4
  80325c:	1000011e 	bne	r2,zero,803264 <follow_path+0xe8>
  803260:	00003406 	br	803334 <follow_path+0x1b8>
            if (_FS_RPATH && (ns & NS_DOT)) {   /* If dot entry is not exit */
               dj->sclust = 0; dj->dir = 0;  /* It is the root dir */
               res = FR_OK;
               if (!(ns & NS_LAST)) continue;
            } else {                   /* Could not find the object */
               if (!(ns & NS_LAST)) res = FR_NO_PATH;
  803264:	e0bffc03 	ldbu	r2,-16(fp)
  803268:	1080010c 	andi	r2,r2,4
  80326c:	1000031e 	bne	r2,zero,80327c <follow_path+0x100>
  803270:	00800144 	movi	r2,5
  803274:	e0bffb15 	stw	r2,-20(fp)
            }
            break;
  803278:	00002e06 	br	803334 <follow_path+0x1b8>
  80327c:	00002d06 	br	803334 <follow_path+0x1b8>
         }
         if (ns & NS_LAST) break;         /* Last segment match. Function completed. */
  803280:	e0bffc03 	ldbu	r2,-16(fp)
  803284:	1080010c 	andi	r2,r2,4
  803288:	10000126 	beq	r2,zero,803290 <follow_path+0x114>
  80328c:	00002906 	br	803334 <follow_path+0x1b8>
         dir = dj->dir;                /* There is next segment. Follow the sub directory */
  803290:	e0bffe17 	ldw	r2,-8(fp)
  803294:	10800517 	ldw	r2,20(r2)
  803298:	e0bffd15 	stw	r2,-12(fp)
         if (!(dir[DIR_Attr] & AM_DIR)) { /* Cannot follow because it is a file */
  80329c:	e0bffd17 	ldw	r2,-12(fp)
  8032a0:	108002c4 	addi	r2,r2,11
  8032a4:	10800003 	ldbu	r2,0(r2)
  8032a8:	10803fcc 	andi	r2,r2,255
  8032ac:	1080040c 	andi	r2,r2,16
  8032b0:	1000031e 	bne	r2,zero,8032c0 <follow_path+0x144>
            res = FR_NO_PATH; break;
  8032b4:	00800144 	movi	r2,5
  8032b8:	e0bffb15 	stw	r2,-20(fp)
  8032bc:	00001d06 	br	803334 <follow_path+0x1b8>
         }
         dj->sclust = LD_CLUST(dir);
  8032c0:	e0bffd17 	ldw	r2,-12(fp)
  8032c4:	10800544 	addi	r2,r2,21
  8032c8:	10800003 	ldbu	r2,0(r2)
  8032cc:	10803fcc 	andi	r2,r2,255
  8032d0:	1004923a 	slli	r2,r2,8
  8032d4:	1007883a 	mov	r3,r2
  8032d8:	e0bffd17 	ldw	r2,-12(fp)
  8032dc:	10800504 	addi	r2,r2,20
  8032e0:	10800003 	ldbu	r2,0(r2)
  8032e4:	10803fcc 	andi	r2,r2,255
  8032e8:	1884b03a 	or	r2,r3,r2
  8032ec:	10bfffcc 	andi	r2,r2,65535
  8032f0:	1006943a 	slli	r3,r2,16
  8032f4:	e0bffd17 	ldw	r2,-12(fp)
  8032f8:	108006c4 	addi	r2,r2,27
  8032fc:	10800003 	ldbu	r2,0(r2)
  803300:	10803fcc 	andi	r2,r2,255
  803304:	1004923a 	slli	r2,r2,8
  803308:	1009883a 	mov	r4,r2
  80330c:	e0bffd17 	ldw	r2,-12(fp)
  803310:	10800684 	addi	r2,r2,26
  803314:	10800003 	ldbu	r2,0(r2)
  803318:	10803fcc 	andi	r2,r2,255
  80331c:	2084b03a 	or	r2,r4,r2
  803320:	10bfffcc 	andi	r2,r2,65535
  803324:	1886b03a 	or	r3,r3,r2
  803328:	e0bffe17 	ldw	r2,-8(fp)
  80332c:	10c00215 	stw	r3,8(r2)
      }
  803330:	003fb706 	br	803210 <__alt_data_end+0xff803210>
   }

   return res;
  803334:	e0bffb17 	ldw	r2,-20(fp)
}
  803338:	e037883a 	mov	sp,fp
  80333c:	dfc00117 	ldw	ra,4(sp)
  803340:	df000017 	ldw	fp,0(sp)
  803344:	dec00204 	addi	sp,sp,8
  803348:	f800283a 	ret

0080334c <check_fs>:
static
uint8_t check_fs (   /* 0:FAT-VBR, 1:Valid BR but not FAT, 2:Not a BR, 3:Disk error */
   FATFS *fs,  /* File system object */
   uint32_t sect  /* Sector# (lba) to check if it is an FAT boot record or not */
)
{
  80334c:	defffc04 	addi	sp,sp,-16
  803350:	dfc00315 	stw	ra,12(sp)
  803354:	df000215 	stw	fp,8(sp)
  803358:	df000204 	addi	fp,sp,8
  80335c:	e13ffe15 	stw	r4,-8(fp)
  803360:	e17fff15 	stw	r5,-4(fp)
   if (disk_read(fs->drv, fs->win, sect, 1) != RES_OK)   /* Load boot record */
  803364:	e0bffe17 	ldw	r2,-8(fp)
  803368:	10800043 	ldbu	r2,1(r2)
  80336c:	10c03fcc 	andi	r3,r2,255
  803370:	e0bffe17 	ldw	r2,-8(fp)
  803374:	10800c04 	addi	r2,r2,48
  803378:	1809883a 	mov	r4,r3
  80337c:	100b883a 	mov	r5,r2
  803380:	e1bfff17 	ldw	r6,-4(fp)
  803384:	01c00044 	movi	r7,1
  803388:	0800dec0 	call	800dec <ffs_DiskIORead>
  80338c:	10000226 	beq	r2,zero,803398 <check_fs+0x4c>
      return 3;
  803390:	008000c4 	movi	r2,3
  803394:	00004506 	br	8034ac <check_fs+0x160>
   if (LD_WORD(&fs->win[BS_55AA]) != 0xAA55)    /* Check record signature (always placed at offset 510 even if the sector size is >512) */
  803398:	e0bffe17 	ldw	r2,-8(fp)
  80339c:	10808bc3 	ldbu	r2,559(r2)
  8033a0:	10803fcc 	andi	r2,r2,255
  8033a4:	1004923a 	slli	r2,r2,8
  8033a8:	1007883a 	mov	r3,r2
  8033ac:	e0bffe17 	ldw	r2,-8(fp)
  8033b0:	10808b83 	ldbu	r2,558(r2)
  8033b4:	10803fcc 	andi	r2,r2,255
  8033b8:	1884b03a 	or	r2,r3,r2
  8033bc:	10bfffcc 	andi	r2,r2,65535
  8033c0:	10a0001c 	xori	r2,r2,32768
  8033c4:	10a00004 	addi	r2,r2,-32768
  8033c8:	10aa9560 	cmpeqi	r2,r2,-21931
  8033cc:	1000021e 	bne	r2,zero,8033d8 <check_fs+0x8c>
      return 2;
  8033d0:	00800084 	movi	r2,2
  8033d4:	00003506 	br	8034ac <check_fs+0x160>

   if ((LD_DWORD(&fs->win[BS_FilSysType]) & 0xFFFFFF) == 0x544146)   /* Check "FAT" string */
  8033d8:	e0bffe17 	ldw	r2,-8(fp)
  8033dc:	10801a43 	ldbu	r2,105(r2)
  8033e0:	10803fcc 	andi	r2,r2,255
  8033e4:	1006963a 	slli	r3,r2,24
  8033e8:	e0bffe17 	ldw	r2,-8(fp)
  8033ec:	10801a03 	ldbu	r2,104(r2)
  8033f0:	10803fcc 	andi	r2,r2,255
  8033f4:	1004943a 	slli	r2,r2,16
  8033f8:	1884b03a 	or	r2,r3,r2
  8033fc:	e0fffe17 	ldw	r3,-8(fp)
  803400:	18c019c3 	ldbu	r3,103(r3)
  803404:	18c03fcc 	andi	r3,r3,255
  803408:	1806923a 	slli	r3,r3,8
  80340c:	10c6b03a 	or	r3,r2,r3
  803410:	e0bffe17 	ldw	r2,-8(fp)
  803414:	10801983 	ldbu	r2,102(r2)
  803418:	10803fcc 	andi	r2,r2,255
  80341c:	1886b03a 	or	r3,r3,r2
  803420:	00804034 	movhi	r2,256
  803424:	10bfffc4 	addi	r2,r2,-1
  803428:	1886703a 	and	r3,r3,r2
  80342c:	00801534 	movhi	r2,84
  803430:	10905184 	addi	r2,r2,16710
  803434:	1880021e 	bne	r3,r2,803440 <check_fs+0xf4>
      return 0;
  803438:	0005883a 	mov	r2,zero
  80343c:	00001b06 	br	8034ac <check_fs+0x160>
   if ((LD_DWORD(&fs->win[BS_FilSysType32]) & 0xFFFFFF) == 0x544146)
  803440:	e0bffe17 	ldw	r2,-8(fp)
  803444:	10802143 	ldbu	r2,133(r2)
  803448:	10803fcc 	andi	r2,r2,255
  80344c:	1006963a 	slli	r3,r2,24
  803450:	e0bffe17 	ldw	r2,-8(fp)
  803454:	10802103 	ldbu	r2,132(r2)
  803458:	10803fcc 	andi	r2,r2,255
  80345c:	1004943a 	slli	r2,r2,16
  803460:	1884b03a 	or	r2,r3,r2
  803464:	e0fffe17 	ldw	r3,-8(fp)
  803468:	18c020c3 	ldbu	r3,131(r3)
  80346c:	18c03fcc 	andi	r3,r3,255
  803470:	1806923a 	slli	r3,r3,8
  803474:	10c6b03a 	or	r3,r2,r3
  803478:	e0bffe17 	ldw	r2,-8(fp)
  80347c:	10802083 	ldbu	r2,130(r2)
  803480:	10803fcc 	andi	r2,r2,255
  803484:	1886b03a 	or	r3,r3,r2
  803488:	00804034 	movhi	r2,256
  80348c:	10bfffc4 	addi	r2,r2,-1
  803490:	1886703a 	and	r3,r3,r2
  803494:	00801534 	movhi	r2,84
  803498:	10905184 	addi	r2,r2,16710
  80349c:	1880021e 	bne	r3,r2,8034a8 <check_fs+0x15c>
      return 0;
  8034a0:	0005883a 	mov	r2,zero
  8034a4:	00000106 	br	8034ac <check_fs+0x160>

   return 1;
  8034a8:	00800044 	movi	r2,1
}
  8034ac:	e037883a 	mov	sp,fp
  8034b0:	dfc00117 	ldw	ra,4(sp)
  8034b4:	df000017 	ldw	fp,0(sp)
  8034b8:	dec00204 	addi	sp,sp,8
  8034bc:	f800283a 	ret

008034c0 <chk_mounted>:
FRESULT chk_mounted (   /* FR_OK(0): successful, !=0: any error occurred */
   const TCHAR **path,  /* Pointer to pointer to the path name (drive number) */
   FATFS **rfs,      /* Pointer to pointer to the found file system object */
   uint8_t chk_wp       /* !=0: Check media write protection for write access */
)
{
  8034c0:	deffee04 	addi	sp,sp,-72
  8034c4:	dfc01115 	stw	ra,68(sp)
  8034c8:	df001015 	stw	fp,64(sp)
  8034cc:	df001004 	addi	fp,sp,64
  8034d0:	e13ffd15 	stw	r4,-12(fp)
  8034d4:	e17ffe15 	stw	r5,-8(fp)
  8034d8:	3005883a 	mov	r2,r6
  8034dc:	e0bfff05 	stb	r2,-4(fp)
   uint8_t fmt, b, pi, *tbl;
   uint32_t vol;
   DSTATUS stat;
   uint32_t bsect, fasize, tsect, sysect, nclst, szbfat;
   uint16_t nrsv;
   const TCHAR *p = *path;
  8034e0:	e0bffd17 	ldw	r2,-12(fp)
  8034e4:	10800017 	ldw	r2,0(r2)
  8034e8:	e0bff615 	stw	r2,-40(fp)
   FATFS *fs;

   /* Get logical drive number from the path name */
   vol = p[0] - '0';             /* Is there a drive number? */
  8034ec:	e0bff617 	ldw	r2,-40(fp)
  8034f0:	10800003 	ldbu	r2,0(r2)
  8034f4:	10803fcc 	andi	r2,r2,255
  8034f8:	1080201c 	xori	r2,r2,128
  8034fc:	10bfe004 	addi	r2,r2,-128
  803500:	10bff404 	addi	r2,r2,-48
  803504:	e0bff115 	stw	r2,-60(fp)
   if (vol <= 9 && p[1] == ':') {      /* Found a drive number, get and strip it */
  803508:	e0bff117 	ldw	r2,-60(fp)
  80350c:	108002a8 	cmpgeui	r2,r2,10
  803510:	10000f1e 	bne	r2,zero,803550 <chk_mounted+0x90>
  803514:	e0bff617 	ldw	r2,-40(fp)
  803518:	10800044 	addi	r2,r2,1
  80351c:	10800003 	ldbu	r2,0(r2)
  803520:	10803fcc 	andi	r2,r2,255
  803524:	1080201c 	xori	r2,r2,128
  803528:	10bfe004 	addi	r2,r2,-128
  80352c:	10800e98 	cmpnei	r2,r2,58
  803530:	1000071e 	bne	r2,zero,803550 <chk_mounted+0x90>
      p += 2; *path = p;            /* Return pointer to the path name */
  803534:	e0bff617 	ldw	r2,-40(fp)
  803538:	10800084 	addi	r2,r2,2
  80353c:	e0bff615 	stw	r2,-40(fp)
  803540:	e0bffd17 	ldw	r2,-12(fp)
  803544:	e0fff617 	ldw	r3,-40(fp)
  803548:	10c00015 	stw	r3,0(r2)
  80354c:	00000106 	br	803554 <chk_mounted+0x94>
   } else {                   /* No drive number is given */
#if _FS_RPATH
      vol = CurrVol;             /* Use current drive */
#else
      vol = 0;                /* Use drive 0 */
  803550:	e03ff115 	stw	zero,-60(fp)
#endif
   }

   /* Check if the file system object is valid or not */
   if (vol >= _VOLUMES)             /* Is the drive number valid? */
  803554:	e0bff117 	ldw	r2,-60(fp)
  803558:	10000226 	beq	r2,zero,803564 <chk_mounted+0xa4>
      return FR_INVALID_DRIVE;
  80355c:	008002c4 	movi	r2,11
  803560:	00022106 	br	803de8 <chk_mounted+0x928>
   *rfs = fs = FatFs[vol];          /* Return pointer to the corresponding file system object */
  803564:	e0bff117 	ldw	r2,-60(fp)
  803568:	1085883a 	add	r2,r2,r2
  80356c:	1087883a 	add	r3,r2,r2
  803570:	d0a74604 	addi	r2,gp,-25320
  803574:	1885883a 	add	r2,r3,r2
  803578:	10800017 	ldw	r2,0(r2)
  80357c:	e0bff715 	stw	r2,-36(fp)
  803580:	e0bffe17 	ldw	r2,-8(fp)
  803584:	e0fff717 	ldw	r3,-36(fp)
  803588:	10c00015 	stw	r3,0(r2)
   if (!fs) return FR_NOT_ENABLED;     /* Is the file system object available? */
  80358c:	e0bff717 	ldw	r2,-36(fp)
  803590:	1000021e 	bne	r2,zero,80359c <chk_mounted+0xdc>
  803594:	00800304 	movi	r2,12
  803598:	00021306 	br	803de8 <chk_mounted+0x928>

   ENTER_FF(fs);                 /* Lock file system */

   if (fs->fs_type) {               /* If the logical drive has been mounted */
  80359c:	e0bff717 	ldw	r2,-36(fp)
  8035a0:	10800003 	ldbu	r2,0(r2)
  8035a4:	10803fcc 	andi	r2,r2,255
  8035a8:	10001226 	beq	r2,zero,8035f4 <chk_mounted+0x134>
      stat = disk_status(fs->drv);
  8035ac:	e0bff717 	ldw	r2,-36(fp)
  8035b0:	10800043 	ldbu	r2,1(r2)
  8035b4:	10803fcc 	andi	r2,r2,255
  8035b8:	1009883a 	mov	r4,r2
  8035bc:	0800dc40 	call	800dc4 <ffs_DiskIOStatus>
  8035c0:	e0bff805 	stb	r2,-32(fp)
      if (!(stat & STA_NOINIT)) {      /* and the physical drive is kept initialized (has not been changed), */
  8035c4:	e0bff803 	ldbu	r2,-32(fp)
  8035c8:	1080004c 	andi	r2,r2,1
  8035cc:	1000091e 	bne	r2,zero,8035f4 <chk_mounted+0x134>
         if (!_FS_READONLY && chk_wp && (stat & STA_PROTECT))  /* Check write protection if needed */
  8035d0:	e0bfff03 	ldbu	r2,-4(fp)
  8035d4:	10000526 	beq	r2,zero,8035ec <chk_mounted+0x12c>
  8035d8:	e0bff803 	ldbu	r2,-32(fp)
  8035dc:	1080010c 	andi	r2,r2,4
  8035e0:	10000226 	beq	r2,zero,8035ec <chk_mounted+0x12c>
            return FR_WRITE_PROTECTED;
  8035e4:	00800284 	movi	r2,10
  8035e8:	0001ff06 	br	803de8 <chk_mounted+0x928>
         return FR_OK;           /* The file system object is valid */
  8035ec:	0005883a 	mov	r2,zero
  8035f0:	0001fd06 	br	803de8 <chk_mounted+0x928>
   }

   /* The file system object is not valid. */
   /* Following code attempts to mount the volume. (analyze BPB and initialize the fs object) */

   fs->fs_type = 0;              /* Clear the file system object */
  8035f4:	e0bff717 	ldw	r2,-36(fp)
  8035f8:	10000005 	stb	zero,0(r2)
   fs->drv = LD2PD(vol);            /* Bind the logical drive and a physical drive */
  8035fc:	e0bff117 	ldw	r2,-60(fp)
  803600:	1007883a 	mov	r3,r2
  803604:	e0bff717 	ldw	r2,-36(fp)
  803608:	10c00045 	stb	r3,1(r2)
   stat = disk_initialize(fs->drv); /* Initialize low level disk I/O layer */
  80360c:	e0bff717 	ldw	r2,-36(fp)
  803610:	10800043 	ldbu	r2,1(r2)
  803614:	10803fcc 	andi	r2,r2,255
  803618:	1009883a 	mov	r4,r2
  80361c:	0800b680 	call	800b68 <ffs_DiskIOInitialize>
  803620:	e0bff805 	stb	r2,-32(fp)
   if (stat & STA_NOINIT)           /* Check if the initialization succeeded */
  803624:	e0bff803 	ldbu	r2,-32(fp)
  803628:	1080004c 	andi	r2,r2,1
  80362c:	10000226 	beq	r2,zero,803638 <chk_mounted+0x178>
      return FR_NOT_READY;       /* Failed to initialize due to no media or hard error */
  803630:	008000c4 	movi	r2,3
  803634:	0001ec06 	br	803de8 <chk_mounted+0x928>
   if (!_FS_READONLY && chk_wp && (stat & STA_PROTECT))  /* Check disk write protection if needed */
  803638:	e0bfff03 	ldbu	r2,-4(fp)
  80363c:	10000526 	beq	r2,zero,803654 <chk_mounted+0x194>
  803640:	e0bff803 	ldbu	r2,-32(fp)
  803644:	1080010c 	andi	r2,r2,4
  803648:	10000226 	beq	r2,zero,803654 <chk_mounted+0x194>
      return FR_WRITE_PROTECTED;
  80364c:	00800284 	movi	r2,10
  803650:	0001e506 	br	803de8 <chk_mounted+0x928>
#if _MAX_SS != 512                  /* Get disk sector size (variable sector size cfg only) */
   if (disk_ioctl(fs->drv, GET_SECTOR_SIZE, &fs->ssize) != RES_OK)
      return FR_DISK_ERR;
#endif
   /* Search FAT partition on the drive. Supports only generic partitionings, FDISK and SFD. */
   fmt = check_fs(fs, bsect = 0);      /* Load sector 0 and check if it is an FAT-VBR (in SFD) */
  803654:	e03ff215 	stw	zero,-56(fp)
  803658:	e13ff717 	ldw	r4,-36(fp)
  80365c:	e17ff217 	ldw	r5,-56(fp)
  803660:	080334c0 	call	80334c <check_fs>
  803664:	e0bff005 	stb	r2,-64(fp)
   if (LD2PT(vol) && !fmt) fmt = 1; /* Force non-SFD if the volume is forced partition */
   if (fmt == 1) {                  /* Not an FAT-VBR, the physical drive can be partitioned */
  803668:	e0bff003 	ldbu	r2,-64(fp)
  80366c:	10800058 	cmpnei	r2,r2,1
  803670:	10002d1e 	bne	r2,zero,803728 <chk_mounted+0x268>
      /* Check the partition listed in the partition table */
      pi = LD2PT(vol);
  803674:	e03ff045 	stb	zero,-63(fp)
      if (pi) pi--;
  803678:	e0bff043 	ldbu	r2,-63(fp)
  80367c:	10000326 	beq	r2,zero,80368c <chk_mounted+0x1cc>
  803680:	e0bff043 	ldbu	r2,-63(fp)
  803684:	10bfffc4 	addi	r2,r2,-1
  803688:	e0bff045 	stb	r2,-63(fp)
      tbl = &fs->win[MBR_Table + pi * SZ_PTE];/* Partition table */
  80368c:	e0bff043 	ldbu	r2,-63(fp)
  803690:	1004913a 	slli	r2,r2,4
  803694:	10806f84 	addi	r2,r2,446
  803698:	10800c04 	addi	r2,r2,48
  80369c:	e0fff717 	ldw	r3,-36(fp)
  8036a0:	1885883a 	add	r2,r3,r2
  8036a4:	e0bff915 	stw	r2,-28(fp)
      if (tbl[4]) {                 /* Is the partition existing? */
  8036a8:	e0bff917 	ldw	r2,-28(fp)
  8036ac:	10800104 	addi	r2,r2,4
  8036b0:	10800003 	ldbu	r2,0(r2)
  8036b4:	10803fcc 	andi	r2,r2,255
  8036b8:	10001b26 	beq	r2,zero,803728 <chk_mounted+0x268>
         bsect = LD_DWORD(&tbl[8]);    /* Partition offset in LBA */
  8036bc:	e0bff917 	ldw	r2,-28(fp)
  8036c0:	108002c4 	addi	r2,r2,11
  8036c4:	10800003 	ldbu	r2,0(r2)
  8036c8:	10803fcc 	andi	r2,r2,255
  8036cc:	1006963a 	slli	r3,r2,24
  8036d0:	e0bff917 	ldw	r2,-28(fp)
  8036d4:	10800284 	addi	r2,r2,10
  8036d8:	10800003 	ldbu	r2,0(r2)
  8036dc:	10803fcc 	andi	r2,r2,255
  8036e0:	1004943a 	slli	r2,r2,16
  8036e4:	1884b03a 	or	r2,r3,r2
  8036e8:	e0fff917 	ldw	r3,-28(fp)
  8036ec:	18c00244 	addi	r3,r3,9
  8036f0:	18c00003 	ldbu	r3,0(r3)
  8036f4:	18c03fcc 	andi	r3,r3,255
  8036f8:	1806923a 	slli	r3,r3,8
  8036fc:	10c6b03a 	or	r3,r2,r3
  803700:	e0bff917 	ldw	r2,-28(fp)
  803704:	10800204 	addi	r2,r2,8
  803708:	10800003 	ldbu	r2,0(r2)
  80370c:	10803fcc 	andi	r2,r2,255
  803710:	1884b03a 	or	r2,r3,r2
  803714:	e0bff215 	stw	r2,-56(fp)
         fmt = check_fs(fs, bsect);    /* Check the partition */
  803718:	e13ff717 	ldw	r4,-36(fp)
  80371c:	e17ff217 	ldw	r5,-56(fp)
  803720:	080334c0 	call	80334c <check_fs>
  803724:	e0bff005 	stb	r2,-64(fp)
      }
   }
   if (fmt == 3) return FR_DISK_ERR;
  803728:	e0bff003 	ldbu	r2,-64(fp)
  80372c:	108000d8 	cmpnei	r2,r2,3
  803730:	1000021e 	bne	r2,zero,80373c <chk_mounted+0x27c>
  803734:	00800044 	movi	r2,1
  803738:	0001ab06 	br	803de8 <chk_mounted+0x928>
   if (fmt) return FR_NO_FILESYSTEM;      /* No FAT volume is found */
  80373c:	e0bff003 	ldbu	r2,-64(fp)
  803740:	10000226 	beq	r2,zero,80374c <chk_mounted+0x28c>
  803744:	00800344 	movi	r2,13
  803748:	0001a706 	br	803de8 <chk_mounted+0x928>

   /* An FAT volume is found. Following code initializes the file system object */

   if (LD_WORD(fs->win+BPB_BytsPerSec) != SS(fs))     /* (BPB_BytsPerSec must be equal to the physical sector size) */
  80374c:	e0bff717 	ldw	r2,-36(fp)
  803750:	10800f03 	ldbu	r2,60(r2)
  803754:	10803fcc 	andi	r2,r2,255
  803758:	1004923a 	slli	r2,r2,8
  80375c:	1007883a 	mov	r3,r2
  803760:	e0bff717 	ldw	r2,-36(fp)
  803764:	10800ec3 	ldbu	r2,59(r2)
  803768:	10803fcc 	andi	r2,r2,255
  80376c:	1884b03a 	or	r2,r3,r2
  803770:	10bfffcc 	andi	r2,r2,65535
  803774:	10a0001c 	xori	r2,r2,32768
  803778:	10a00004 	addi	r2,r2,-32768
  80377c:	10808020 	cmpeqi	r2,r2,512
  803780:	1000021e 	bne	r2,zero,80378c <chk_mounted+0x2cc>
      return FR_NO_FILESYSTEM;
  803784:	00800344 	movi	r2,13
  803788:	00019706 	br	803de8 <chk_mounted+0x928>

   fasize = LD_WORD(fs->win+BPB_FATSz16);          /* Number of sectors per FAT */
  80378c:	e0bff717 	ldw	r2,-36(fp)
  803790:	108011c3 	ldbu	r2,71(r2)
  803794:	10803fcc 	andi	r2,r2,255
  803798:	1004923a 	slli	r2,r2,8
  80379c:	1007883a 	mov	r3,r2
  8037a0:	e0bff717 	ldw	r2,-36(fp)
  8037a4:	10801183 	ldbu	r2,70(r2)
  8037a8:	10803fcc 	andi	r2,r2,255
  8037ac:	1884b03a 	or	r2,r3,r2
  8037b0:	10bfffcc 	andi	r2,r2,65535
  8037b4:	e0bff315 	stw	r2,-52(fp)
   if (!fasize) fasize = LD_DWORD(fs->win+BPB_FATSz32);
  8037b8:	e0bff317 	ldw	r2,-52(fp)
  8037bc:	1000131e 	bne	r2,zero,80380c <chk_mounted+0x34c>
  8037c0:	e0bff717 	ldw	r2,-36(fp)
  8037c4:	108015c3 	ldbu	r2,87(r2)
  8037c8:	10803fcc 	andi	r2,r2,255
  8037cc:	1006963a 	slli	r3,r2,24
  8037d0:	e0bff717 	ldw	r2,-36(fp)
  8037d4:	10801583 	ldbu	r2,86(r2)
  8037d8:	10803fcc 	andi	r2,r2,255
  8037dc:	1004943a 	slli	r2,r2,16
  8037e0:	1884b03a 	or	r2,r3,r2
  8037e4:	e0fff717 	ldw	r3,-36(fp)
  8037e8:	18c01543 	ldbu	r3,85(r3)
  8037ec:	18c03fcc 	andi	r3,r3,255
  8037f0:	1806923a 	slli	r3,r3,8
  8037f4:	10c6b03a 	or	r3,r2,r3
  8037f8:	e0bff717 	ldw	r2,-36(fp)
  8037fc:	10801503 	ldbu	r2,84(r2)
  803800:	10803fcc 	andi	r2,r2,255
  803804:	1884b03a 	or	r2,r3,r2
  803808:	e0bff315 	stw	r2,-52(fp)
   fs->fsize = fasize;
  80380c:	e0bff717 	ldw	r2,-36(fp)
  803810:	e0fff317 	ldw	r3,-52(fp)
  803814:	10c00715 	stw	r3,28(r2)

   fs->n_fats = b = fs->win[BPB_NumFATs];          /* Number of FAT copies */
  803818:	e0bff717 	ldw	r2,-36(fp)
  80381c:	10801003 	ldbu	r2,64(r2)
  803820:	e0bffa05 	stb	r2,-24(fp)
  803824:	e0bff717 	ldw	r2,-36(fp)
  803828:	e0fffa03 	ldbu	r3,-24(fp)
  80382c:	10c000c5 	stb	r3,3(r2)
   if (b != 1 && b != 2) return FR_NO_FILESYSTEM;     /* (Must be 1 or 2) */
  803830:	e0bffa03 	ldbu	r2,-24(fp)
  803834:	10800060 	cmpeqi	r2,r2,1
  803838:	1000051e 	bne	r2,zero,803850 <chk_mounted+0x390>
  80383c:	e0bffa03 	ldbu	r2,-24(fp)
  803840:	108000a0 	cmpeqi	r2,r2,2
  803844:	1000021e 	bne	r2,zero,803850 <chk_mounted+0x390>
  803848:	00800344 	movi	r2,13
  80384c:	00016606 	br	803de8 <chk_mounted+0x928>
   fasize *= b;                              /* Number of sectors for FAT area */
  803850:	e0bffa03 	ldbu	r2,-24(fp)
  803854:	e0fff317 	ldw	r3,-52(fp)
  803858:	1885383a 	mul	r2,r3,r2
  80385c:	e0bff315 	stw	r2,-52(fp)

   fs->csize = b = fs->win[BPB_SecPerClus];        /* Number of sectors per cluster */
  803860:	e0bff717 	ldw	r2,-36(fp)
  803864:	10800f43 	ldbu	r2,61(r2)
  803868:	e0bffa05 	stb	r2,-24(fp)
  80386c:	e0bff717 	ldw	r2,-36(fp)
  803870:	e0fffa03 	ldbu	r3,-24(fp)
  803874:	10c00085 	stb	r3,2(r2)
   if (!b || (b & (b - 1))) return FR_NO_FILESYSTEM;  /* (Must be power of 2) */
  803878:	e0bffa03 	ldbu	r2,-24(fp)
  80387c:	10000526 	beq	r2,zero,803894 <chk_mounted+0x3d4>
  803880:	e0fffa03 	ldbu	r3,-24(fp)
  803884:	e0bffa03 	ldbu	r2,-24(fp)
  803888:	10bfffc4 	addi	r2,r2,-1
  80388c:	1884703a 	and	r2,r3,r2
  803890:	10000226 	beq	r2,zero,80389c <chk_mounted+0x3dc>
  803894:	00800344 	movi	r2,13
  803898:	00015306 	br	803de8 <chk_mounted+0x928>

   fs->n_rootdir = LD_WORD(fs->win+BPB_RootEntCnt);   /* Number of root directory entries */
  80389c:	e0bff717 	ldw	r2,-36(fp)
  8038a0:	10801083 	ldbu	r2,66(r2)
  8038a4:	10803fcc 	andi	r2,r2,255
  8038a8:	1004923a 	slli	r2,r2,8
  8038ac:	1007883a 	mov	r3,r2
  8038b0:	e0bff717 	ldw	r2,-36(fp)
  8038b4:	10801043 	ldbu	r2,65(r2)
  8038b8:	10803fcc 	andi	r2,r2,255
  8038bc:	1884b03a 	or	r2,r3,r2
  8038c0:	1007883a 	mov	r3,r2
  8038c4:	e0bff717 	ldw	r2,-36(fp)
  8038c8:	10c0020d 	sth	r3,8(r2)
   if (fs->n_rootdir % (SS(fs) / SZ_DIR)) return FR_NO_FILESYSTEM;   /* (BPB_RootEntCnt must be sector aligned) */
  8038cc:	e0bff717 	ldw	r2,-36(fp)
  8038d0:	1080020b 	ldhu	r2,8(r2)
  8038d4:	108003cc 	andi	r2,r2,15
  8038d8:	10bfffcc 	andi	r2,r2,65535
  8038dc:	10000226 	beq	r2,zero,8038e8 <chk_mounted+0x428>
  8038e0:	00800344 	movi	r2,13
  8038e4:	00014006 	br	803de8 <chk_mounted+0x928>

   tsect = LD_WORD(fs->win+BPB_TotSec16);          /* Number of sectors on the volume */
  8038e8:	e0bff717 	ldw	r2,-36(fp)
  8038ec:	10801103 	ldbu	r2,68(r2)
  8038f0:	10803fcc 	andi	r2,r2,255
  8038f4:	1004923a 	slli	r2,r2,8
  8038f8:	1007883a 	mov	r3,r2
  8038fc:	e0bff717 	ldw	r2,-36(fp)
  803900:	108010c3 	ldbu	r2,67(r2)
  803904:	10803fcc 	andi	r2,r2,255
  803908:	1884b03a 	or	r2,r3,r2
  80390c:	10bfffcc 	andi	r2,r2,65535
  803910:	e0bff415 	stw	r2,-48(fp)
   if (!tsect) tsect = LD_DWORD(fs->win+BPB_TotSec32);
  803914:	e0bff417 	ldw	r2,-48(fp)
  803918:	1000131e 	bne	r2,zero,803968 <chk_mounted+0x4a8>
  80391c:	e0bff717 	ldw	r2,-36(fp)
  803920:	108014c3 	ldbu	r2,83(r2)
  803924:	10803fcc 	andi	r2,r2,255
  803928:	1006963a 	slli	r3,r2,24
  80392c:	e0bff717 	ldw	r2,-36(fp)
  803930:	10801483 	ldbu	r2,82(r2)
  803934:	10803fcc 	andi	r2,r2,255
  803938:	1004943a 	slli	r2,r2,16
  80393c:	1884b03a 	or	r2,r3,r2
  803940:	e0fff717 	ldw	r3,-36(fp)
  803944:	18c01443 	ldbu	r3,81(r3)
  803948:	18c03fcc 	andi	r3,r3,255
  80394c:	1806923a 	slli	r3,r3,8
  803950:	10c6b03a 	or	r3,r2,r3
  803954:	e0bff717 	ldw	r2,-36(fp)
  803958:	10801403 	ldbu	r2,80(r2)
  80395c:	10803fcc 	andi	r2,r2,255
  803960:	1884b03a 	or	r2,r3,r2
  803964:	e0bff415 	stw	r2,-48(fp)

   nrsv = LD_WORD(fs->win+BPB_RsvdSecCnt);            /* Number of reserved sectors */
  803968:	e0bff717 	ldw	r2,-36(fp)
  80396c:	10800fc3 	ldbu	r2,63(r2)
  803970:	10803fcc 	andi	r2,r2,255
  803974:	1004923a 	slli	r2,r2,8
  803978:	1007883a 	mov	r3,r2
  80397c:	e0bff717 	ldw	r2,-36(fp)
  803980:	10800f83 	ldbu	r2,62(r2)
  803984:	10803fcc 	andi	r2,r2,255
  803988:	1884b03a 	or	r2,r3,r2
  80398c:	e0bffa8d 	sth	r2,-22(fp)
   if (!nrsv) return FR_NO_FILESYSTEM;             /* (BPB_RsvdSecCnt must not be 0) */
  803990:	e0bffa8b 	ldhu	r2,-22(fp)
  803994:	1000021e 	bne	r2,zero,8039a0 <chk_mounted+0x4e0>
  803998:	00800344 	movi	r2,13
  80399c:	00011206 	br	803de8 <chk_mounted+0x928>

   /* Determine the FAT sub type */
   sysect = nrsv + fasize + fs->n_rootdir / (SS(fs) / SZ_DIR); /* RSV+FAT+DIR */
  8039a0:	e0fffa8b 	ldhu	r3,-22(fp)
  8039a4:	e0bff317 	ldw	r2,-52(fp)
  8039a8:	1887883a 	add	r3,r3,r2
  8039ac:	e0bff717 	ldw	r2,-36(fp)
  8039b0:	1080020b 	ldhu	r2,8(r2)
  8039b4:	10bfffcc 	andi	r2,r2,65535
  8039b8:	1004d13a 	srli	r2,r2,4
  8039bc:	10bfffcc 	andi	r2,r2,65535
  8039c0:	1885883a 	add	r2,r3,r2
  8039c4:	e0bffb15 	stw	r2,-20(fp)
   if (tsect < sysect) return FR_NO_FILESYSTEM;    /* (Invalid volume size) */
  8039c8:	e0fff417 	ldw	r3,-48(fp)
  8039cc:	e0bffb17 	ldw	r2,-20(fp)
  8039d0:	1880022e 	bgeu	r3,r2,8039dc <chk_mounted+0x51c>
  8039d4:	00800344 	movi	r2,13
  8039d8:	00010306 	br	803de8 <chk_mounted+0x928>
   nclst = (tsect - sysect) / fs->csize;           /* Number of clusters */
  8039dc:	e0fff417 	ldw	r3,-48(fp)
  8039e0:	e0bffb17 	ldw	r2,-20(fp)
  8039e4:	1887c83a 	sub	r3,r3,r2
  8039e8:	e0bff717 	ldw	r2,-36(fp)
  8039ec:	10800083 	ldbu	r2,2(r2)
  8039f0:	10803fcc 	andi	r2,r2,255
  8039f4:	1809883a 	mov	r4,r3
  8039f8:	100b883a 	mov	r5,r2
  8039fc:	080a0e40 	call	80a0e4 <__udivsi3>
  803a00:	e0bffc15 	stw	r2,-16(fp)
   if (!nclst) return FR_NO_FILESYSTEM;            /* (Invalid volume size) */
  803a04:	e0bffc17 	ldw	r2,-16(fp)
  803a08:	1000021e 	bne	r2,zero,803a14 <chk_mounted+0x554>
  803a0c:	00800344 	movi	r2,13
  803a10:	0000f506 	br	803de8 <chk_mounted+0x928>
   fmt = FS_FAT12;
  803a14:	00800044 	movi	r2,1
  803a18:	e0bff005 	stb	r2,-64(fp)
   if (nclst >= MIN_FAT16) fmt = FS_FAT16;
  803a1c:	e0bffc17 	ldw	r2,-16(fp)
  803a20:	1083fdb0 	cmpltui	r2,r2,4086
  803a24:	1000021e 	bne	r2,zero,803a30 <chk_mounted+0x570>
  803a28:	00800084 	movi	r2,2
  803a2c:	e0bff005 	stb	r2,-64(fp)
   if (nclst >= MIN_FAT32) fmt = FS_FAT32;
  803a30:	e0bffc17 	ldw	r2,-16(fp)
  803a34:	10bffdb0 	cmpltui	r2,r2,65526
  803a38:	1000021e 	bne	r2,zero,803a44 <chk_mounted+0x584>
  803a3c:	008000c4 	movi	r2,3
  803a40:	e0bff005 	stb	r2,-64(fp)

   /* Boundaries and Limits */
   fs->n_fatent = nclst + 2;                    /* Number of FAT entries */
  803a44:	e0bffc17 	ldw	r2,-16(fp)
  803a48:	10c00084 	addi	r3,r2,2
  803a4c:	e0bff717 	ldw	r2,-36(fp)
  803a50:	10c00615 	stw	r3,24(r2)
   fs->database = bsect + sysect;                  /* Data start sector */
  803a54:	e0fff217 	ldw	r3,-56(fp)
  803a58:	e0bffb17 	ldw	r2,-20(fp)
  803a5c:	1887883a 	add	r3,r3,r2
  803a60:	e0bff717 	ldw	r2,-36(fp)
  803a64:	10c00a15 	stw	r3,40(r2)
   fs->fatbase = bsect + nrsv;                  /* FAT start sector */
  803a68:	e0fffa8b 	ldhu	r3,-22(fp)
  803a6c:	e0bff217 	ldw	r2,-56(fp)
  803a70:	1887883a 	add	r3,r3,r2
  803a74:	e0bff717 	ldw	r2,-36(fp)
  803a78:	10c00815 	stw	r3,32(r2)
   if (fmt == FS_FAT32) {
  803a7c:	e0bff003 	ldbu	r2,-64(fp)
  803a80:	108000d8 	cmpnei	r2,r2,3
  803a84:	1000201e 	bne	r2,zero,803b08 <chk_mounted+0x648>
      if (fs->n_rootdir) return FR_NO_FILESYSTEM;     /* (BPB_RootEntCnt must be 0) */
  803a88:	e0bff717 	ldw	r2,-36(fp)
  803a8c:	1080020b 	ldhu	r2,8(r2)
  803a90:	10bfffcc 	andi	r2,r2,65535
  803a94:	10000226 	beq	r2,zero,803aa0 <chk_mounted+0x5e0>
  803a98:	00800344 	movi	r2,13
  803a9c:	0000d206 	br	803de8 <chk_mounted+0x928>
      fs->dirbase = LD_DWORD(fs->win+BPB_RootClus);   /* Root directory start cluster */
  803aa0:	e0bff717 	ldw	r2,-36(fp)
  803aa4:	108017c3 	ldbu	r2,95(r2)
  803aa8:	10803fcc 	andi	r2,r2,255
  803aac:	1006963a 	slli	r3,r2,24
  803ab0:	e0bff717 	ldw	r2,-36(fp)
  803ab4:	10801783 	ldbu	r2,94(r2)
  803ab8:	10803fcc 	andi	r2,r2,255
  803abc:	1004943a 	slli	r2,r2,16
  803ac0:	1884b03a 	or	r2,r3,r2
  803ac4:	e0fff717 	ldw	r3,-36(fp)
  803ac8:	18c01743 	ldbu	r3,93(r3)
  803acc:	18c03fcc 	andi	r3,r3,255
  803ad0:	1806923a 	slli	r3,r3,8
  803ad4:	10c6b03a 	or	r3,r2,r3
  803ad8:	e0bff717 	ldw	r2,-36(fp)
  803adc:	10801703 	ldbu	r2,92(r2)
  803ae0:	10803fcc 	andi	r2,r2,255
  803ae4:	1886b03a 	or	r3,r3,r2
  803ae8:	e0bff717 	ldw	r2,-36(fp)
  803aec:	10c00915 	stw	r3,36(r2)
      szbfat = fs->n_fatent * 4;                /* (Required FAT size) */
  803af0:	e0bff717 	ldw	r2,-36(fp)
  803af4:	10800617 	ldw	r2,24(r2)
  803af8:	1085883a 	add	r2,r2,r2
  803afc:	1085883a 	add	r2,r2,r2
  803b00:	e0bff515 	stw	r2,-44(fp)
  803b04:	00001e06 	br	803b80 <chk_mounted+0x6c0>
   } else {
      if (!fs->n_rootdir)  return FR_NO_FILESYSTEM;   /* (BPB_RootEntCnt must not be 0) */
  803b08:	e0bff717 	ldw	r2,-36(fp)
  803b0c:	1080020b 	ldhu	r2,8(r2)
  803b10:	10bfffcc 	andi	r2,r2,65535
  803b14:	1000021e 	bne	r2,zero,803b20 <chk_mounted+0x660>
  803b18:	00800344 	movi	r2,13
  803b1c:	0000b206 	br	803de8 <chk_mounted+0x928>
      fs->dirbase = fs->fatbase + fasize;          /* Root directory start sector */
  803b20:	e0bff717 	ldw	r2,-36(fp)
  803b24:	10c00817 	ldw	r3,32(r2)
  803b28:	e0bff317 	ldw	r2,-52(fp)
  803b2c:	1887883a 	add	r3,r3,r2
  803b30:	e0bff717 	ldw	r2,-36(fp)
  803b34:	10c00915 	stw	r3,36(r2)
      szbfat = (fmt == FS_FAT16) ?              /* (Required FAT size) */
         fs->n_fatent * 2 : fs->n_fatent * 3 / 2 + (fs->n_fatent & 1);
  803b38:	e0bff003 	ldbu	r2,-64(fp)
  803b3c:	10800098 	cmpnei	r2,r2,2
  803b40:	1000041e 	bne	r2,zero,803b54 <chk_mounted+0x694>
  803b44:	e0bff717 	ldw	r2,-36(fp)
  803b48:	10800617 	ldw	r2,24(r2)
  803b4c:	1085883a 	add	r2,r2,r2
  803b50:	00000a06 	br	803b7c <chk_mounted+0x6bc>
  803b54:	e0bff717 	ldw	r2,-36(fp)
  803b58:	10c00617 	ldw	r3,24(r2)
  803b5c:	1805883a 	mov	r2,r3
  803b60:	1085883a 	add	r2,r2,r2
  803b64:	10c5883a 	add	r2,r2,r3
  803b68:	1006d07a 	srli	r3,r2,1
  803b6c:	e0bff717 	ldw	r2,-36(fp)
  803b70:	10800617 	ldw	r2,24(r2)
  803b74:	1080004c 	andi	r2,r2,1
  803b78:	1885883a 	add	r2,r3,r2
      fs->dirbase = LD_DWORD(fs->win+BPB_RootClus);   /* Root directory start cluster */
      szbfat = fs->n_fatent * 4;                /* (Required FAT size) */
   } else {
      if (!fs->n_rootdir)  return FR_NO_FILESYSTEM;   /* (BPB_RootEntCnt must not be 0) */
      fs->dirbase = fs->fatbase + fasize;          /* Root directory start sector */
      szbfat = (fmt == FS_FAT16) ?              /* (Required FAT size) */
  803b7c:	e0bff515 	stw	r2,-44(fp)
         fs->n_fatent * 2 : fs->n_fatent * 3 / 2 + (fs->n_fatent & 1);
   }
   if (fs->fsize < (szbfat + (SS(fs) - 1)) / SS(fs))  /* (BPB_FATSz must not be less than required) */
  803b80:	e0bff717 	ldw	r2,-36(fp)
  803b84:	10c00717 	ldw	r3,28(r2)
  803b88:	e0bff517 	ldw	r2,-44(fp)
  803b8c:	10807fc4 	addi	r2,r2,511
  803b90:	1004d27a 	srli	r2,r2,9
  803b94:	1880022e 	bgeu	r3,r2,803ba0 <chk_mounted+0x6e0>
      return FR_NO_FILESYSTEM;
  803b98:	00800344 	movi	r2,13
  803b9c:	00009206 	br	803de8 <chk_mounted+0x928>

#if !_FS_READONLY
   /* Initialize cluster allocation information */
   fs->free_clust = 0xFFFFFFFF;
  803ba0:	e0bff717 	ldw	r2,-36(fp)
  803ba4:	00ffffc4 	movi	r3,-1
  803ba8:	10c00415 	stw	r3,16(r2)
   fs->last_clust = 0;
  803bac:	e0bff717 	ldw	r2,-36(fp)
  803bb0:	10000315 	stw	zero,12(r2)

   /* Get fsinfo if available */
   if (fmt == FS_FAT32) {
  803bb4:	e0bff003 	ldbu	r2,-64(fp)
  803bb8:	108000d8 	cmpnei	r2,r2,3
  803bbc:	10007c1e 	bne	r2,zero,803db0 <chk_mounted+0x8f0>
      fs->fsi_flag = 0;
  803bc0:	e0bff717 	ldw	r2,-36(fp)
  803bc4:	10000145 	stb	zero,5(r2)
      fs->fsi_sector = bsect + LD_WORD(fs->win+BPB_FSInfo);
  803bc8:	e0bff717 	ldw	r2,-36(fp)
  803bcc:	10801843 	ldbu	r2,97(r2)
  803bd0:	10803fcc 	andi	r2,r2,255
  803bd4:	1004923a 	slli	r2,r2,8
  803bd8:	1007883a 	mov	r3,r2
  803bdc:	e0bff717 	ldw	r2,-36(fp)
  803be0:	10801803 	ldbu	r2,96(r2)
  803be4:	10803fcc 	andi	r2,r2,255
  803be8:	1884b03a 	or	r2,r3,r2
  803bec:	10ffffcc 	andi	r3,r2,65535
  803bf0:	e0bff217 	ldw	r2,-56(fp)
  803bf4:	1887883a 	add	r3,r3,r2
  803bf8:	e0bff717 	ldw	r2,-36(fp)
  803bfc:	10c00515 	stw	r3,20(r2)
      if (disk_read(fs->drv, fs->win, fs->fsi_sector, 1) == RES_OK &&
  803c00:	e0bff717 	ldw	r2,-36(fp)
  803c04:	10800043 	ldbu	r2,1(r2)
  803c08:	11003fcc 	andi	r4,r2,255
  803c0c:	e0bff717 	ldw	r2,-36(fp)
  803c10:	10c00c04 	addi	r3,r2,48
  803c14:	e0bff717 	ldw	r2,-36(fp)
  803c18:	10800517 	ldw	r2,20(r2)
  803c1c:	180b883a 	mov	r5,r3
  803c20:	100d883a 	mov	r6,r2
  803c24:	01c00044 	movi	r7,1
  803c28:	0800dec0 	call	800dec <ffs_DiskIORead>
  803c2c:	1000601e 	bne	r2,zero,803db0 <chk_mounted+0x8f0>
         LD_WORD(fs->win+BS_55AA) == 0xAA55 &&
  803c30:	e0bff717 	ldw	r2,-36(fp)
  803c34:	10808bc3 	ldbu	r2,559(r2)
  803c38:	10803fcc 	andi	r2,r2,255
  803c3c:	1004923a 	slli	r2,r2,8
  803c40:	1007883a 	mov	r3,r2
  803c44:	e0bff717 	ldw	r2,-36(fp)
  803c48:	10808b83 	ldbu	r2,558(r2)
  803c4c:	10803fcc 	andi	r2,r2,255
  803c50:	1884b03a 	or	r2,r3,r2

   /* Get fsinfo if available */
   if (fmt == FS_FAT32) {
      fs->fsi_flag = 0;
      fs->fsi_sector = bsect + LD_WORD(fs->win+BPB_FSInfo);
      if (disk_read(fs->drv, fs->win, fs->fsi_sector, 1) == RES_OK &&
  803c54:	10bfffcc 	andi	r2,r2,65535
  803c58:	10a0001c 	xori	r2,r2,32768
  803c5c:	10a00004 	addi	r2,r2,-32768
  803c60:	10aa9558 	cmpnei	r2,r2,-21931
  803c64:	1000521e 	bne	r2,zero,803db0 <chk_mounted+0x8f0>
         LD_WORD(fs->win+BS_55AA) == 0xAA55 &&
         LD_DWORD(fs->win+FSI_LeadSig) == 0x41615252 &&
  803c68:	e0bff717 	ldw	r2,-36(fp)
  803c6c:	10800cc3 	ldbu	r2,51(r2)
  803c70:	10803fcc 	andi	r2,r2,255
  803c74:	1006963a 	slli	r3,r2,24
  803c78:	e0bff717 	ldw	r2,-36(fp)
  803c7c:	10800c83 	ldbu	r2,50(r2)
  803c80:	10803fcc 	andi	r2,r2,255
  803c84:	1004943a 	slli	r2,r2,16
  803c88:	1884b03a 	or	r2,r3,r2
  803c8c:	e0fff717 	ldw	r3,-36(fp)
  803c90:	18c00c43 	ldbu	r3,49(r3)
  803c94:	18c03fcc 	andi	r3,r3,255
  803c98:	1806923a 	slli	r3,r3,8
  803c9c:	10c6b03a 	or	r3,r2,r3
  803ca0:	e0bff717 	ldw	r2,-36(fp)
  803ca4:	10800c03 	ldbu	r2,48(r2)
  803ca8:	10803fcc 	andi	r2,r2,255
  803cac:	1886b03a 	or	r3,r3,r2
   /* Get fsinfo if available */
   if (fmt == FS_FAT32) {
      fs->fsi_flag = 0;
      fs->fsi_sector = bsect + LD_WORD(fs->win+BPB_FSInfo);
      if (disk_read(fs->drv, fs->win, fs->fsi_sector, 1) == RES_OK &&
         LD_WORD(fs->win+BS_55AA) == 0xAA55 &&
  803cb0:	00905874 	movhi	r2,16737
  803cb4:	10949484 	addi	r2,r2,21074
  803cb8:	18803d1e 	bne	r3,r2,803db0 <chk_mounted+0x8f0>
         LD_DWORD(fs->win+FSI_LeadSig) == 0x41615252 &&
         LD_DWORD(fs->win+FSI_StrucSig) == 0x61417272) {
  803cbc:	e0bff717 	ldw	r2,-36(fp)
  803cc0:	108085c3 	ldbu	r2,535(r2)
  803cc4:	10803fcc 	andi	r2,r2,255
  803cc8:	1006963a 	slli	r3,r2,24
  803ccc:	e0bff717 	ldw	r2,-36(fp)
  803cd0:	10808583 	ldbu	r2,534(r2)
  803cd4:	10803fcc 	andi	r2,r2,255
  803cd8:	1004943a 	slli	r2,r2,16
  803cdc:	1884b03a 	or	r2,r3,r2
  803ce0:	e0fff717 	ldw	r3,-36(fp)
  803ce4:	18c08543 	ldbu	r3,533(r3)
  803ce8:	18c03fcc 	andi	r3,r3,255
  803cec:	1806923a 	slli	r3,r3,8
  803cf0:	10c6b03a 	or	r3,r2,r3
  803cf4:	e0bff717 	ldw	r2,-36(fp)
  803cf8:	10808503 	ldbu	r2,532(r2)
  803cfc:	10803fcc 	andi	r2,r2,255
  803d00:	1886b03a 	or	r3,r3,r2
   if (fmt == FS_FAT32) {
      fs->fsi_flag = 0;
      fs->fsi_sector = bsect + LD_WORD(fs->win+BPB_FSInfo);
      if (disk_read(fs->drv, fs->win, fs->fsi_sector, 1) == RES_OK &&
         LD_WORD(fs->win+BS_55AA) == 0xAA55 &&
         LD_DWORD(fs->win+FSI_LeadSig) == 0x41615252 &&
  803d04:	00985074 	movhi	r2,24897
  803d08:	109c9c84 	addi	r2,r2,29298
  803d0c:	1880281e 	bne	r3,r2,803db0 <chk_mounted+0x8f0>
         LD_DWORD(fs->win+FSI_StrucSig) == 0x61417272) {
            fs->last_clust = LD_DWORD(fs->win+FSI_Nxt_Free);
  803d10:	e0bff717 	ldw	r2,-36(fp)
  803d14:	108087c3 	ldbu	r2,543(r2)
  803d18:	10803fcc 	andi	r2,r2,255
  803d1c:	1006963a 	slli	r3,r2,24
  803d20:	e0bff717 	ldw	r2,-36(fp)
  803d24:	10808783 	ldbu	r2,542(r2)
  803d28:	10803fcc 	andi	r2,r2,255
  803d2c:	1004943a 	slli	r2,r2,16
  803d30:	1884b03a 	or	r2,r3,r2
  803d34:	e0fff717 	ldw	r3,-36(fp)
  803d38:	18c08743 	ldbu	r3,541(r3)
  803d3c:	18c03fcc 	andi	r3,r3,255
  803d40:	1806923a 	slli	r3,r3,8
  803d44:	10c6b03a 	or	r3,r2,r3
  803d48:	e0bff717 	ldw	r2,-36(fp)
  803d4c:	10808703 	ldbu	r2,540(r2)
  803d50:	10803fcc 	andi	r2,r2,255
  803d54:	1886b03a 	or	r3,r3,r2
  803d58:	e0bff717 	ldw	r2,-36(fp)
  803d5c:	10c00315 	stw	r3,12(r2)
            fs->free_clust = LD_DWORD(fs->win+FSI_Free_Count);
  803d60:	e0bff717 	ldw	r2,-36(fp)
  803d64:	108086c3 	ldbu	r2,539(r2)
  803d68:	10803fcc 	andi	r2,r2,255
  803d6c:	1006963a 	slli	r3,r2,24
  803d70:	e0bff717 	ldw	r2,-36(fp)
  803d74:	10808683 	ldbu	r2,538(r2)
  803d78:	10803fcc 	andi	r2,r2,255
  803d7c:	1004943a 	slli	r2,r2,16
  803d80:	1884b03a 	or	r2,r3,r2
  803d84:	e0fff717 	ldw	r3,-36(fp)
  803d88:	18c08643 	ldbu	r3,537(r3)
  803d8c:	18c03fcc 	andi	r3,r3,255
  803d90:	1806923a 	slli	r3,r3,8
  803d94:	10c6b03a 	or	r3,r2,r3
  803d98:	e0bff717 	ldw	r2,-36(fp)
  803d9c:	10808603 	ldbu	r2,536(r2)
  803da0:	10803fcc 	andi	r2,r2,255
  803da4:	1886b03a 	or	r3,r3,r2
  803da8:	e0bff717 	ldw	r2,-36(fp)
  803dac:	10c00415 	stw	r3,16(r2)
      }
   }
#endif
   fs->fs_type = fmt;      /* FAT sub-type */
  803db0:	e0bff717 	ldw	r2,-36(fp)
  803db4:	e0fff003 	ldbu	r3,-64(fp)
  803db8:	10c00005 	stb	r3,0(r2)
   fs->id = ++Fsid;     /* File system mount ID */
  803dbc:	d0a7470b 	ldhu	r2,-25316(gp)
  803dc0:	10800044 	addi	r2,r2,1
  803dc4:	d0a7470d 	sth	r2,-25316(gp)
  803dc8:	d0e7470b 	ldhu	r3,-25316(gp)
  803dcc:	e0bff717 	ldw	r2,-36(fp)
  803dd0:	10c0018d 	sth	r3,6(r2)
   fs->winsect = 0;     /* Invalidate sector cache */
  803dd4:	e0bff717 	ldw	r2,-36(fp)
  803dd8:	10000b15 	stw	zero,44(r2)
   fs->wflag = 0;
  803ddc:	e0bff717 	ldw	r2,-36(fp)
  803de0:	10000105 	stb	zero,4(r2)
#endif
#if _FS_SHARE           /* Clear file lock semaphores */
   clear_lock(fs);
#endif

   return FR_OK;
  803de4:	0005883a 	mov	r2,zero
}
  803de8:	e037883a 	mov	sp,fp
  803dec:	dfc00117 	ldw	ra,4(sp)
  803df0:	df000017 	ldw	fp,0(sp)
  803df4:	dec00204 	addi	sp,sp,8
  803df8:	f800283a 	ret

00803dfc <validate>:
static
FRESULT validate (   /* FR_OK(0): The object is valid, !=0: Invalid */
   FATFS *fs,     /* Pointer to the file system object */
   uint16_t id        /* Member id of the target object to be checked */
)
{
  803dfc:	defffc04 	addi	sp,sp,-16
  803e00:	dfc00315 	stw	ra,12(sp)
  803e04:	df000215 	stw	fp,8(sp)
  803e08:	df000204 	addi	fp,sp,8
  803e0c:	e13ffe15 	stw	r4,-8(fp)
  803e10:	2805883a 	mov	r2,r5
  803e14:	e0bfff0d 	sth	r2,-4(fp)
   if (!fs || !fs->fs_type || fs->id != id)
  803e18:	e0bffe17 	ldw	r2,-8(fp)
  803e1c:	10000926 	beq	r2,zero,803e44 <validate+0x48>
  803e20:	e0bffe17 	ldw	r2,-8(fp)
  803e24:	10800003 	ldbu	r2,0(r2)
  803e28:	10803fcc 	andi	r2,r2,255
  803e2c:	10000526 	beq	r2,zero,803e44 <validate+0x48>
  803e30:	e0bffe17 	ldw	r2,-8(fp)
  803e34:	1080018b 	ldhu	r2,6(r2)
  803e38:	10ffffcc 	andi	r3,r2,65535
  803e3c:	e0bfff0b 	ldhu	r2,-4(fp)
  803e40:	18800226 	beq	r3,r2,803e4c <validate+0x50>
      return FR_INVALID_OBJECT;
  803e44:	00800244 	movi	r2,9
  803e48:	00000b06 	br	803e78 <validate+0x7c>

   ENTER_FF(fs);     /* Lock file system */

   if (disk_status(fs->drv) & STA_NOINIT)
  803e4c:	e0bffe17 	ldw	r2,-8(fp)
  803e50:	10800043 	ldbu	r2,1(r2)
  803e54:	10803fcc 	andi	r2,r2,255
  803e58:	1009883a 	mov	r4,r2
  803e5c:	0800dc40 	call	800dc4 <ffs_DiskIOStatus>
  803e60:	10803fcc 	andi	r2,r2,255
  803e64:	1080004c 	andi	r2,r2,1
  803e68:	10000226 	beq	r2,zero,803e74 <validate+0x78>
      return FR_NOT_READY;
  803e6c:	008000c4 	movi	r2,3
  803e70:	00000106 	br	803e78 <validate+0x7c>

   return FR_OK;
  803e74:	0005883a 	mov	r2,zero
}
  803e78:	e037883a 	mov	sp,fp
  803e7c:	dfc00117 	ldw	ra,4(sp)
  803e80:	df000017 	ldw	fp,0(sp)
  803e84:	dec00204 	addi	sp,sp,8
  803e88:	f800283a 	ret

00803e8c <f_mount>:

FRESULT f_mount (
   uint8_t vol,      /* Logical drive number to be mounted/unmounted */
   FATFS *fs      /* Pointer to new file system object (NULL for unmount)*/
)
{
  803e8c:	defffc04 	addi	sp,sp,-16
  803e90:	df000315 	stw	fp,12(sp)
  803e94:	df000304 	addi	fp,sp,12
  803e98:	2005883a 	mov	r2,r4
  803e9c:	e17fff15 	stw	r5,-4(fp)
  803ea0:	e0bffe05 	stb	r2,-8(fp)
   FATFS *rfs;


   if (vol >= _VOLUMES)    /* Check if the drive number is valid */
  803ea4:	e0bffe03 	ldbu	r2,-8(fp)
  803ea8:	10000226 	beq	r2,zero,803eb4 <f_mount+0x28>
      return FR_INVALID_DRIVE;
  803eac:	008002c4 	movi	r2,11
  803eb0:	00001706 	br	803f10 <f_mount+0x84>
   rfs = FatFs[vol];       /* Get current fs object */
  803eb4:	e0bffe03 	ldbu	r2,-8(fp)
  803eb8:	1085883a 	add	r2,r2,r2
  803ebc:	1087883a 	add	r3,r2,r2
  803ec0:	d0a74604 	addi	r2,gp,-25320
  803ec4:	1885883a 	add	r2,r3,r2
  803ec8:	10800017 	ldw	r2,0(r2)
  803ecc:	e0bffd15 	stw	r2,-12(fp)

   if (rfs) {
  803ed0:	e0bffd17 	ldw	r2,-12(fp)
  803ed4:	10000226 	beq	r2,zero,803ee0 <f_mount+0x54>
      clear_lock(rfs);
#endif
#if _FS_REENTRANT          /* Discard sync object of the current volume */
      if (!ff_del_syncobj(rfs->sobj)) return FR_INT_ERR;
#endif
      rfs->fs_type = 0;    /* Clear old fs object */
  803ed8:	e0bffd17 	ldw	r2,-12(fp)
  803edc:	10000005 	stb	zero,0(r2)
   }

   if (fs) {
  803ee0:	e0bfff17 	ldw	r2,-4(fp)
  803ee4:	10000226 	beq	r2,zero,803ef0 <f_mount+0x64>
      fs->fs_type = 0;     /* Clear new fs object */
  803ee8:	e0bfff17 	ldw	r2,-4(fp)
  803eec:	10000005 	stb	zero,0(r2)
#if _FS_REENTRANT          /* Create sync object for the new volume */
      if (!ff_cre_syncobj(vol, &fs->sobj)) return FR_INT_ERR;
#endif
   }
   FatFs[vol] = fs;        /* Register new fs object */
  803ef0:	e0bffe03 	ldbu	r2,-8(fp)
  803ef4:	1085883a 	add	r2,r2,r2
  803ef8:	1087883a 	add	r3,r2,r2
  803efc:	d0a74604 	addi	r2,gp,-25320
  803f00:	1885883a 	add	r2,r3,r2
  803f04:	e0ffff17 	ldw	r3,-4(fp)
  803f08:	10c00015 	stw	r3,0(r2)

   return FR_OK;
  803f0c:	0005883a 	mov	r2,zero
}
  803f10:	e037883a 	mov	sp,fp
  803f14:	df000017 	ldw	fp,0(sp)
  803f18:	dec00104 	addi	sp,sp,4
  803f1c:	f800283a 	ret

00803f20 <f_open>:
FRESULT f_open (
   FIL *fp,       /* Pointer to the blank file object */
   const TCHAR *path,   /* Pointer to the file name */
   uint8_t mode         /* Access mode and file open mode flags */
)
{
  803f20:	deffed04 	addi	sp,sp,-76
  803f24:	dfc01215 	stw	ra,72(sp)
  803f28:	df001115 	stw	fp,68(sp)
  803f2c:	df001104 	addi	fp,sp,68
  803f30:	e13ffd15 	stw	r4,-12(fp)
  803f34:	e17ffe15 	stw	r5,-8(fp)
  803f38:	3005883a 	mov	r2,r6
  803f3c:	e0bfff05 	stb	r2,-4(fp)
   DIR dj;
   uint8_t *dir;
   DEF_NAMEBUF;


   fp->fs = 0;       /* Clear file object */
  803f40:	e0bffd17 	ldw	r2,-12(fp)
  803f44:	10000015 	stw	zero,0(r2)

#if !_FS_READONLY
   mode &= FA_READ | FA_WRITE | FA_CREATE_ALWAYS | FA_OPEN_ALWAYS | FA_CREATE_NEW;
  803f48:	e0bfff03 	ldbu	r2,-4(fp)
  803f4c:	108007cc 	andi	r2,r2,31
  803f50:	e0bfff05 	stb	r2,-4(fp)
   res = chk_mounted(&path, &dj.fs, (uint8_t)(mode & ~FA_READ));
  803f54:	e0bfff03 	ldbu	r2,-4(fp)
  803f58:	10803f8c 	andi	r2,r2,254
  803f5c:	e13ffe04 	addi	r4,fp,-8
  803f60:	e0fff304 	addi	r3,fp,-52
  803f64:	180b883a 	mov	r5,r3
  803f68:	100d883a 	mov	r6,r2
  803f6c:	08034c00 	call	8034c0 <chk_mounted>
  803f70:	e0bfef15 	stw	r2,-68(fp)
#else
   mode &= FA_READ;
   res = chk_mounted(&path, &dj.fs, 0);
#endif
   INIT_BUF(dj);
  803f74:	e0bffa04 	addi	r2,fp,-24
  803f78:	e0bff915 	stw	r2,-28(fp)
   if (res == FR_OK)
  803f7c:	e0bfef17 	ldw	r2,-68(fp)
  803f80:	1000061e 	bne	r2,zero,803f9c <f_open+0x7c>
      res = follow_path(&dj, path); /* Follow the file path */
  803f84:	e0bffe17 	ldw	r2,-8(fp)
  803f88:	e0fff304 	addi	r3,fp,-52
  803f8c:	1809883a 	mov	r4,r3
  803f90:	100b883a 	mov	r5,r2
  803f94:	080317c0 	call	80317c <follow_path>
  803f98:	e0bfef15 	stw	r2,-68(fp)
   dir = dj.dir;
  803f9c:	e0bff817 	ldw	r2,-32(fp)
  803fa0:	e0bff015 	stw	r2,-64(fp)

#if !_FS_READONLY /* R/W configuration */
   if (res == FR_OK) {
  803fa4:	e0bfef17 	ldw	r2,-68(fp)
  803fa8:	1000041e 	bne	r2,zero,803fbc <f_open+0x9c>
      if (!dir)   /* Current dir itself */
  803fac:	e0bff017 	ldw	r2,-64(fp)
  803fb0:	1000021e 	bne	r2,zero,803fbc <f_open+0x9c>
         res = FR_INVALID_NAME;
  803fb4:	00800184 	movi	r2,6
  803fb8:	e0bfef15 	stw	r2,-68(fp)
      else
         res = chk_lock(&dj, (mode & ~FA_READ) ? 1 : 0);
#endif
   }
   /* Create or Open a file */
   if (mode & (FA_CREATE_ALWAYS | FA_OPEN_ALWAYS | FA_CREATE_NEW)) {
  803fbc:	e0bfff03 	ldbu	r2,-4(fp)
  803fc0:	1080070c 	andi	r2,r2,28
  803fc4:	10008826 	beq	r2,zero,8041e8 <f_open+0x2c8>
      uint32_t dw, cl;

      if (res != FR_OK) {              /* No file, create new */
  803fc8:	e0bfef17 	ldw	r2,-68(fp)
  803fcc:	10000d26 	beq	r2,zero,804004 <f_open+0xe4>
         if (res == FR_NO_FILE)        /* There is no file to open, create a new entry */
  803fd0:	e0bfef17 	ldw	r2,-68(fp)
  803fd4:	10800118 	cmpnei	r2,r2,4
  803fd8:	1000041e 	bne	r2,zero,803fec <f_open+0xcc>
#if _FS_SHARE
            res = enq_lock() ? dir_register(&dj) : FR_TOO_MANY_OPEN_FILES;
#else
            res = dir_register(&dj);
  803fdc:	e0bff304 	addi	r2,fp,-52
  803fe0:	1009883a 	mov	r4,r2
  803fe4:	0802aa80 	call	802aa8 <dir_register>
  803fe8:	e0bfef15 	stw	r2,-68(fp)
#endif
         mode |= FA_CREATE_ALWAYS;     /* File is created */
  803fec:	e0bfff03 	ldbu	r2,-4(fp)
  803ff0:	10800214 	ori	r2,r2,8
  803ff4:	e0bfff05 	stb	r2,-4(fp)
         dir = dj.dir;              /* New entry */
  803ff8:	e0bff817 	ldw	r2,-32(fp)
  803ffc:	e0bff015 	stw	r2,-64(fp)
  804000:	00000e06 	br	80403c <f_open+0x11c>
      }
      else {                        /* Any object is already existing */
         if (dir[DIR_Attr] & (AM_RDO | AM_DIR)) {  /* Cannot overwrite it (R/O or DIR) */
  804004:	e0bff017 	ldw	r2,-64(fp)
  804008:	108002c4 	addi	r2,r2,11
  80400c:	10800003 	ldbu	r2,0(r2)
  804010:	10803fcc 	andi	r2,r2,255
  804014:	1080044c 	andi	r2,r2,17
  804018:	10000326 	beq	r2,zero,804028 <f_open+0x108>
            res = FR_DENIED;
  80401c:	008001c4 	movi	r2,7
  804020:	e0bfef15 	stw	r2,-68(fp)
  804024:	00000506 	br	80403c <f_open+0x11c>
         } else {
            if (mode & FA_CREATE_NEW)  /* Cannot create as new file */
  804028:	e0bfff03 	ldbu	r2,-4(fp)
  80402c:	1080010c 	andi	r2,r2,4
  804030:	10000226 	beq	r2,zero,80403c <f_open+0x11c>
               res = FR_EXIST;
  804034:	00800204 	movi	r2,8
  804038:	e0bfef15 	stw	r2,-68(fp)
         }
      }
      if (res == FR_OK && (mode & FA_CREATE_ALWAYS)) {   /* Truncate it if overwrite mode */
  80403c:	e0bfef17 	ldw	r2,-68(fp)
  804040:	1000681e 	bne	r2,zero,8041e4 <f_open+0x2c4>
  804044:	e0bfff03 	ldbu	r2,-4(fp)
  804048:	1080020c 	andi	r2,r2,8
  80404c:	10006526 	beq	r2,zero,8041e4 <f_open+0x2c4>
         dw = get_fattime();              /* Created time */
  804050:	080151c0 	call	80151c <get_fattime>
  804054:	e0bff115 	stw	r2,-60(fp)
         ST_DWORD(dir+DIR_CrtTime, dw);
  804058:	e0bff017 	ldw	r2,-64(fp)
  80405c:	10800384 	addi	r2,r2,14
  804060:	e0fff117 	ldw	r3,-60(fp)
  804064:	10c00005 	stb	r3,0(r2)
  804068:	e0bff017 	ldw	r2,-64(fp)
  80406c:	108003c4 	addi	r2,r2,15
  804070:	e0fff117 	ldw	r3,-60(fp)
  804074:	18ffffcc 	andi	r3,r3,65535
  804078:	1806d23a 	srli	r3,r3,8
  80407c:	10c00005 	stb	r3,0(r2)
  804080:	e0bff017 	ldw	r2,-64(fp)
  804084:	10800404 	addi	r2,r2,16
  804088:	e0fff117 	ldw	r3,-60(fp)
  80408c:	1806d43a 	srli	r3,r3,16
  804090:	10c00005 	stb	r3,0(r2)
  804094:	e0bff017 	ldw	r2,-64(fp)
  804098:	10800444 	addi	r2,r2,17
  80409c:	e0fff117 	ldw	r3,-60(fp)
  8040a0:	1806d63a 	srli	r3,r3,24
  8040a4:	10c00005 	stb	r3,0(r2)
         dir[DIR_Attr] = 0;               /* Reset attribute */
  8040a8:	e0bff017 	ldw	r2,-64(fp)
  8040ac:	108002c4 	addi	r2,r2,11
  8040b0:	10000005 	stb	zero,0(r2)
         ST_DWORD(dir+DIR_FileSize, 0);      /* size = 0 */
  8040b4:	e0bff017 	ldw	r2,-64(fp)
  8040b8:	10800704 	addi	r2,r2,28
  8040bc:	10000005 	stb	zero,0(r2)
  8040c0:	e0bff017 	ldw	r2,-64(fp)
  8040c4:	10800744 	addi	r2,r2,29
  8040c8:	10000005 	stb	zero,0(r2)
  8040cc:	e0bff017 	ldw	r2,-64(fp)
  8040d0:	10800784 	addi	r2,r2,30
  8040d4:	10000005 	stb	zero,0(r2)
  8040d8:	e0bff017 	ldw	r2,-64(fp)
  8040dc:	108007c4 	addi	r2,r2,31
  8040e0:	10000005 	stb	zero,0(r2)
         cl = LD_CLUST(dir);              /* Get start cluster */
  8040e4:	e0bff017 	ldw	r2,-64(fp)
  8040e8:	10800544 	addi	r2,r2,21
  8040ec:	10800003 	ldbu	r2,0(r2)
  8040f0:	10803fcc 	andi	r2,r2,255
  8040f4:	1004923a 	slli	r2,r2,8
  8040f8:	1007883a 	mov	r3,r2
  8040fc:	e0bff017 	ldw	r2,-64(fp)
  804100:	10800504 	addi	r2,r2,20
  804104:	10800003 	ldbu	r2,0(r2)
  804108:	10803fcc 	andi	r2,r2,255
  80410c:	1884b03a 	or	r2,r3,r2
  804110:	10bfffcc 	andi	r2,r2,65535
  804114:	1006943a 	slli	r3,r2,16
  804118:	e0bff017 	ldw	r2,-64(fp)
  80411c:	108006c4 	addi	r2,r2,27
  804120:	10800003 	ldbu	r2,0(r2)
  804124:	10803fcc 	andi	r2,r2,255
  804128:	1004923a 	slli	r2,r2,8
  80412c:	1009883a 	mov	r4,r2
  804130:	e0bff017 	ldw	r2,-64(fp)
  804134:	10800684 	addi	r2,r2,26
  804138:	10800003 	ldbu	r2,0(r2)
  80413c:	10803fcc 	andi	r2,r2,255
  804140:	2084b03a 	or	r2,r4,r2
  804144:	10bfffcc 	andi	r2,r2,65535
  804148:	1884b03a 	or	r2,r3,r2
  80414c:	e0bff215 	stw	r2,-56(fp)
         ST_CLUST(dir, 0);             /* cluster = 0 */
  804150:	e0bff017 	ldw	r2,-64(fp)
  804154:	10800684 	addi	r2,r2,26
  804158:	10000005 	stb	zero,0(r2)
  80415c:	e0bff017 	ldw	r2,-64(fp)
  804160:	108006c4 	addi	r2,r2,27
  804164:	10000005 	stb	zero,0(r2)
  804168:	e0bff017 	ldw	r2,-64(fp)
  80416c:	10800504 	addi	r2,r2,20
  804170:	10000005 	stb	zero,0(r2)
  804174:	e0bff017 	ldw	r2,-64(fp)
  804178:	10800544 	addi	r2,r2,21
  80417c:	10000005 	stb	zero,0(r2)
         dj.fs->wflag = 1;
  804180:	e0bff317 	ldw	r2,-52(fp)
  804184:	00c00044 	movi	r3,1
  804188:	10c00105 	stb	r3,4(r2)
         if (cl) {                     /* Remove the cluster chain if exist */
  80418c:	e0bff217 	ldw	r2,-56(fp)
  804190:	10001426 	beq	r2,zero,8041e4 <f_open+0x2c4>
            dw = dj.fs->winsect;
  804194:	e0bff317 	ldw	r2,-52(fp)
  804198:	10800b17 	ldw	r2,44(r2)
  80419c:	e0bff115 	stw	r2,-60(fp)
            res = remove_chain(dj.fs, cl);
  8041a0:	e0bff317 	ldw	r2,-52(fp)
  8041a4:	1009883a 	mov	r4,r2
  8041a8:	e17ff217 	ldw	r5,-56(fp)
  8041ac:	08020ec0 	call	8020ec <remove_chain>
  8041b0:	e0bfef15 	stw	r2,-68(fp)
            if (res == FR_OK) {
  8041b4:	e0bfef17 	ldw	r2,-68(fp)
  8041b8:	10000a1e 	bne	r2,zero,8041e4 <f_open+0x2c4>
               dj.fs->last_clust = cl - 1;   /* Reuse the cluster hole */
  8041bc:	e0bff317 	ldw	r2,-52(fp)
  8041c0:	e0fff217 	ldw	r3,-56(fp)
  8041c4:	18ffffc4 	addi	r3,r3,-1
  8041c8:	10c00315 	stw	r3,12(r2)
               res = move_window(dj.fs, dw);
  8041cc:	e0bff317 	ldw	r2,-52(fp)
  8041d0:	1009883a 	mov	r4,r2
  8041d4:	e17ff117 	ldw	r5,-60(fp)
  8041d8:	08017140 	call	801714 <move_window>
  8041dc:	e0bfef15 	stw	r2,-68(fp)
  8041e0:	00001706 	br	804240 <f_open+0x320>
  8041e4:	00001606 	br	804240 <f_open+0x320>
            }
         }
      }
   }
   else {   /* Open an existing file */
      if (res == FR_OK) {                 /* Follow succeeded */
  8041e8:	e0bfef17 	ldw	r2,-68(fp)
  8041ec:	1000141e 	bne	r2,zero,804240 <f_open+0x320>
         if (dir[DIR_Attr] & AM_DIR) {    /* It is a directory */
  8041f0:	e0bff017 	ldw	r2,-64(fp)
  8041f4:	108002c4 	addi	r2,r2,11
  8041f8:	10800003 	ldbu	r2,0(r2)
  8041fc:	10803fcc 	andi	r2,r2,255
  804200:	1080040c 	andi	r2,r2,16
  804204:	10000326 	beq	r2,zero,804214 <f_open+0x2f4>
            res = FR_NO_FILE;
  804208:	00800104 	movi	r2,4
  80420c:	e0bfef15 	stw	r2,-68(fp)
  804210:	00000b06 	br	804240 <f_open+0x320>
         } else {
            if ((mode & FA_WRITE) && (dir[DIR_Attr] & AM_RDO)) /* R/O violation */
  804214:	e0bfff03 	ldbu	r2,-4(fp)
  804218:	1080008c 	andi	r2,r2,2
  80421c:	10000826 	beq	r2,zero,804240 <f_open+0x320>
  804220:	e0bff017 	ldw	r2,-64(fp)
  804224:	108002c4 	addi	r2,r2,11
  804228:	10800003 	ldbu	r2,0(r2)
  80422c:	10803fcc 	andi	r2,r2,255
  804230:	1080004c 	andi	r2,r2,1
  804234:	10000226 	beq	r2,zero,804240 <f_open+0x320>
               res = FR_DENIED;
  804238:	008001c4 	movi	r2,7
  80423c:	e0bfef15 	stw	r2,-68(fp)
         }
      }
   }
   if (res == FR_OK) {
  804240:	e0bfef17 	ldw	r2,-68(fp)
  804244:	10000d1e 	bne	r2,zero,80427c <f_open+0x35c>
      if (mode & FA_CREATE_ALWAYS)        /* Set file change flag if created or overwritten */
  804248:	e0bfff03 	ldbu	r2,-4(fp)
  80424c:	1080020c 	andi	r2,r2,8
  804250:	10000326 	beq	r2,zero,804260 <f_open+0x340>
         mode |= FA__WRITTEN;
  804254:	e0bfff03 	ldbu	r2,-4(fp)
  804258:	10800814 	ori	r2,r2,32
  80425c:	e0bfff05 	stb	r2,-4(fp)
      fp->dir_sect = dj.fs->winsect;         /* Pointer to the directory entry */
  804260:	e0bff317 	ldw	r2,-52(fp)
  804264:	10c00b17 	ldw	r3,44(r2)
  804268:	e0bffd17 	ldw	r2,-12(fp)
  80426c:	10c00715 	stw	r3,28(r2)
      fp->dir_ptr = dir;
  804270:	e0bffd17 	ldw	r2,-12(fp)
  804274:	e0fff017 	ldw	r3,-64(fp)
  804278:	10c00815 	stw	r3,32(r2)
      }
   }
#endif
   FREE_BUF();

   if (res == FR_OK) {
  80427c:	e0bfef17 	ldw	r2,-68(fp)
  804280:	1000421e 	bne	r2,zero,80438c <f_open+0x46c>
      fp->flag = mode;              /* File access mode */
  804284:	e0bffd17 	ldw	r2,-12(fp)
  804288:	e0ffff03 	ldbu	r3,-4(fp)
  80428c:	10c00185 	stb	r3,6(r2)
      fp->sclust = LD_CLUST(dir);         /* File start cluster */
  804290:	e0bff017 	ldw	r2,-64(fp)
  804294:	10800544 	addi	r2,r2,21
  804298:	10800003 	ldbu	r2,0(r2)
  80429c:	10803fcc 	andi	r2,r2,255
  8042a0:	1004923a 	slli	r2,r2,8
  8042a4:	1007883a 	mov	r3,r2
  8042a8:	e0bff017 	ldw	r2,-64(fp)
  8042ac:	10800504 	addi	r2,r2,20
  8042b0:	10800003 	ldbu	r2,0(r2)
  8042b4:	10803fcc 	andi	r2,r2,255
  8042b8:	1884b03a 	or	r2,r3,r2
  8042bc:	10bfffcc 	andi	r2,r2,65535
  8042c0:	1006943a 	slli	r3,r2,16
  8042c4:	e0bff017 	ldw	r2,-64(fp)
  8042c8:	108006c4 	addi	r2,r2,27
  8042cc:	10800003 	ldbu	r2,0(r2)
  8042d0:	10803fcc 	andi	r2,r2,255
  8042d4:	1004923a 	slli	r2,r2,8
  8042d8:	1009883a 	mov	r4,r2
  8042dc:	e0bff017 	ldw	r2,-64(fp)
  8042e0:	10800684 	addi	r2,r2,26
  8042e4:	10800003 	ldbu	r2,0(r2)
  8042e8:	10803fcc 	andi	r2,r2,255
  8042ec:	2084b03a 	or	r2,r4,r2
  8042f0:	10bfffcc 	andi	r2,r2,65535
  8042f4:	1886b03a 	or	r3,r3,r2
  8042f8:	e0bffd17 	ldw	r2,-12(fp)
  8042fc:	10c00415 	stw	r3,16(r2)
      fp->fsize = LD_DWORD(dir+DIR_FileSize);   /* File size */
  804300:	e0bff017 	ldw	r2,-64(fp)
  804304:	108007c4 	addi	r2,r2,31
  804308:	10800003 	ldbu	r2,0(r2)
  80430c:	10803fcc 	andi	r2,r2,255
  804310:	1006963a 	slli	r3,r2,24
  804314:	e0bff017 	ldw	r2,-64(fp)
  804318:	10800784 	addi	r2,r2,30
  80431c:	10800003 	ldbu	r2,0(r2)
  804320:	10803fcc 	andi	r2,r2,255
  804324:	1004943a 	slli	r2,r2,16
  804328:	1884b03a 	or	r2,r3,r2
  80432c:	e0fff017 	ldw	r3,-64(fp)
  804330:	18c00744 	addi	r3,r3,29
  804334:	18c00003 	ldbu	r3,0(r3)
  804338:	18c03fcc 	andi	r3,r3,255
  80433c:	1806923a 	slli	r3,r3,8
  804340:	10c6b03a 	or	r3,r2,r3
  804344:	e0bff017 	ldw	r2,-64(fp)
  804348:	10800704 	addi	r2,r2,28
  80434c:	10800003 	ldbu	r2,0(r2)
  804350:	10803fcc 	andi	r2,r2,255
  804354:	1886b03a 	or	r3,r3,r2
  804358:	e0bffd17 	ldw	r2,-12(fp)
  80435c:	10c00315 	stw	r3,12(r2)
      fp->fptr = 0;                 /* File pointer */
  804360:	e0bffd17 	ldw	r2,-12(fp)
  804364:	10000215 	stw	zero,8(r2)
      fp->dsect = 0;
  804368:	e0bffd17 	ldw	r2,-12(fp)
  80436c:	10000615 	stw	zero,24(r2)
#if _USE_FASTSEEK
      fp->cltbl = 0;                /* Normal seek mode */
#endif
      fp->fs = dj.fs; fp->id = dj.fs->id; /* Validate file object */
  804370:	e0fff317 	ldw	r3,-52(fp)
  804374:	e0bffd17 	ldw	r2,-12(fp)
  804378:	10c00015 	stw	r3,0(r2)
  80437c:	e0bff317 	ldw	r2,-52(fp)
  804380:	10c0018b 	ldhu	r3,6(r2)
  804384:	e0bffd17 	ldw	r2,-12(fp)
  804388:	10c0010d 	sth	r3,4(r2)
   }

   LEAVE_FF(dj.fs, res);
  80438c:	e0bfef17 	ldw	r2,-68(fp)
}
  804390:	e037883a 	mov	sp,fp
  804394:	dfc00117 	ldw	ra,4(sp)
  804398:	df000017 	ldw	fp,0(sp)
  80439c:	dec00204 	addi	sp,sp,8
  8043a0:	f800283a 	ret

008043a4 <f_read>:
   FIL *fp,       /* Pointer to the file object */
   void *buff,    /* Pointer to data buffer */
   uint32_t btr,      /* Number of bytes to read */
   uint32_t *br    /* Pointer to number of bytes read */
)
{
  8043a4:	defff204 	addi	sp,sp,-56
  8043a8:	dfc00d15 	stw	ra,52(sp)
  8043ac:	df000c15 	stw	fp,48(sp)
  8043b0:	df000c04 	addi	fp,sp,48
  8043b4:	e13ffc15 	stw	r4,-16(fp)
  8043b8:	e17ffd15 	stw	r5,-12(fp)
  8043bc:	e1bffe15 	stw	r6,-8(fp)
  8043c0:	e1ffff15 	stw	r7,-4(fp)
   FRESULT res;
   uint32_t clst, sect, remain;
   uint32_t rcnt, cc;
   uint8_t csect, *rbuff = buff;
  8043c4:	e0bffd17 	ldw	r2,-12(fp)
  8043c8:	e0bff715 	stw	r2,-36(fp)


   *br = 0; /* Initialize byte counter */
  8043cc:	e0bfff17 	ldw	r2,-4(fp)
  8043d0:	10000015 	stw	zero,0(r2)

   res = validate(fp->fs, fp->id);           /* Check validity */
  8043d4:	e0bffc17 	ldw	r2,-16(fp)
  8043d8:	10c00017 	ldw	r3,0(r2)
  8043dc:	e0bffc17 	ldw	r2,-16(fp)
  8043e0:	1080010b 	ldhu	r2,4(r2)
  8043e4:	10bfffcc 	andi	r2,r2,65535
  8043e8:	1809883a 	mov	r4,r3
  8043ec:	100b883a 	mov	r5,r2
  8043f0:	0803dfc0 	call	803dfc <validate>
  8043f4:	e0bff815 	stw	r2,-32(fp)
   if (res != FR_OK) LEAVE_FF(fp->fs, res);
  8043f8:	e0bff817 	ldw	r2,-32(fp)
  8043fc:	10000226 	beq	r2,zero,804408 <f_read+0x64>
  804400:	e0bff817 	ldw	r2,-32(fp)
  804404:	00011b06 	br	804874 <f_read+0x4d0>
   if (fp->flag & FA__ERROR)              /* Aborted file? */
  804408:	e0bffc17 	ldw	r2,-16(fp)
  80440c:	10800183 	ldbu	r2,6(r2)
  804410:	10803fcc 	andi	r2,r2,255
  804414:	1080201c 	xori	r2,r2,128
  804418:	10bfe004 	addi	r2,r2,-128
  80441c:	1000020e 	bge	r2,zero,804428 <f_read+0x84>
      LEAVE_FF(fp->fs, FR_INT_ERR);
  804420:	00800084 	movi	r2,2
  804424:	00011306 	br	804874 <f_read+0x4d0>
   if (!(fp->flag & FA_READ))                /* Check access mode */
  804428:	e0bffc17 	ldw	r2,-16(fp)
  80442c:	10800183 	ldbu	r2,6(r2)
  804430:	10803fcc 	andi	r2,r2,255
  804434:	1080004c 	andi	r2,r2,1
  804438:	1000021e 	bne	r2,zero,804444 <f_read+0xa0>
      LEAVE_FF(fp->fs, FR_DENIED);
  80443c:	008001c4 	movi	r2,7
  804440:	00010c06 	br	804874 <f_read+0x4d0>
   remain = fp->fsize - fp->fptr;
  804444:	e0bffc17 	ldw	r2,-16(fp)
  804448:	10c00317 	ldw	r3,12(r2)
  80444c:	e0bffc17 	ldw	r2,-16(fp)
  804450:	10800217 	ldw	r2,8(r2)
  804454:	1885c83a 	sub	r2,r3,r2
  804458:	e0bff915 	stw	r2,-28(fp)
   if (btr > remain) btr = (uint32_t)remain;     /* Truncate btr by remaining bytes */
  80445c:	e0bffe17 	ldw	r2,-8(fp)
  804460:	e0fff917 	ldw	r3,-28(fp)
  804464:	1880022e 	bgeu	r3,r2,804470 <f_read+0xcc>
  804468:	e0bff917 	ldw	r2,-28(fp)
  80446c:	e0bffe15 	stw	r2,-8(fp)

   for ( ;  btr;                       /* Repeat until all data read */
  804470:	0000fd06 	br	804868 <f_read+0x4c4>
      rbuff += rcnt, fp->fptr += rcnt, *br += rcnt, btr -= rcnt) {
      if ((fp->fptr % SS(fp->fs)) == 0) {    /* On the sector boundary? */
  804474:	e0bffc17 	ldw	r2,-16(fp)
  804478:	10800217 	ldw	r2,8(r2)
  80447c:	10807fcc 	andi	r2,r2,511
  804480:	1000d01e 	bne	r2,zero,8047c4 <f_read+0x420>
         csect = (uint8_t)(fp->fptr / SS(fp->fs) & (fp->fs->csize - 1));   /* Sector offset in the cluster */
  804484:	e0bffc17 	ldw	r2,-16(fp)
  804488:	10800217 	ldw	r2,8(r2)
  80448c:	1004d27a 	srli	r2,r2,9
  804490:	1007883a 	mov	r3,r2
  804494:	e0bffc17 	ldw	r2,-16(fp)
  804498:	10800017 	ldw	r2,0(r2)
  80449c:	10800083 	ldbu	r2,2(r2)
  8044a0:	10bfffc4 	addi	r2,r2,-1
  8044a4:	1884703a 	and	r2,r3,r2
  8044a8:	e0bffa05 	stb	r2,-24(fp)
         if (!csect) {                 /* On the cluster boundary? */
  8044ac:	e0bffa03 	ldbu	r2,-24(fp)
  8044b0:	10002a1e 	bne	r2,zero,80455c <f_read+0x1b8>
            if (fp->fptr == 0) {       /* On the top of the file? */
  8044b4:	e0bffc17 	ldw	r2,-16(fp)
  8044b8:	10800217 	ldw	r2,8(r2)
  8044bc:	1000041e 	bne	r2,zero,8044d0 <f_read+0x12c>
               clst = fp->sclust;         /* Follow from the origin */
  8044c0:	e0bffc17 	ldw	r2,-16(fp)
  8044c4:	10800417 	ldw	r2,16(r2)
  8044c8:	e0bff415 	stw	r2,-48(fp)
  8044cc:	00000806 	br	8044f0 <f_read+0x14c>
#if _USE_FASTSEEK
               if (fp->cltbl)
                  clst = clmt_clust(fp, fp->fptr); /* Get cluster# from the CLMT */
               else
#endif
                  clst = get_fat(fp->fs, fp->clust);  /* Follow cluster chain on the FAT */
  8044d0:	e0bffc17 	ldw	r2,-16(fp)
  8044d4:	10c00017 	ldw	r3,0(r2)
  8044d8:	e0bffc17 	ldw	r2,-16(fp)
  8044dc:	10800517 	ldw	r2,20(r2)
  8044e0:	1809883a 	mov	r4,r3
  8044e4:	100b883a 	mov	r5,r2
  8044e8:	0801af80 	call	801af8 <get_fat>
  8044ec:	e0bff415 	stw	r2,-48(fp)
            }
            if (clst < 2) ABORT(fp->fs, FR_INT_ERR);
  8044f0:	e0bff417 	ldw	r2,-48(fp)
  8044f4:	108000a8 	cmpgeui	r2,r2,2
  8044f8:	1000091e 	bne	r2,zero,804520 <f_read+0x17c>
  8044fc:	e0bffc17 	ldw	r2,-16(fp)
  804500:	10c00183 	ldbu	r3,6(r2)
  804504:	00bfe004 	movi	r2,-128
  804508:	1884b03a 	or	r2,r3,r2
  80450c:	1007883a 	mov	r3,r2
  804510:	e0bffc17 	ldw	r2,-16(fp)
  804514:	10c00185 	stb	r3,6(r2)
  804518:	00800084 	movi	r2,2
  80451c:	0000d506 	br	804874 <f_read+0x4d0>
            if (clst == 0xFFFFFFFF) ABORT(fp->fs, FR_DISK_ERR);
  804520:	e0bff417 	ldw	r2,-48(fp)
  804524:	10bfffd8 	cmpnei	r2,r2,-1
  804528:	1000091e 	bne	r2,zero,804550 <f_read+0x1ac>
  80452c:	e0bffc17 	ldw	r2,-16(fp)
  804530:	10c00183 	ldbu	r3,6(r2)
  804534:	00bfe004 	movi	r2,-128
  804538:	1884b03a 	or	r2,r3,r2
  80453c:	1007883a 	mov	r3,r2
  804540:	e0bffc17 	ldw	r2,-16(fp)
  804544:	10c00185 	stb	r3,6(r2)
  804548:	00800044 	movi	r2,1
  80454c:	0000c906 	br	804874 <f_read+0x4d0>
            fp->clust = clst;          /* Update current cluster */
  804550:	e0bffc17 	ldw	r2,-16(fp)
  804554:	e0fff417 	ldw	r3,-48(fp)
  804558:	10c00515 	stw	r3,20(r2)
         }
         sect = clust2sect(fp->fs, fp->clust);  /* Get current sector */
  80455c:	e0bffc17 	ldw	r2,-16(fp)
  804560:	10c00017 	ldw	r3,0(r2)
  804564:	e0bffc17 	ldw	r2,-16(fp)
  804568:	10800517 	ldw	r2,20(r2)
  80456c:	1809883a 	mov	r4,r3
  804570:	100b883a 	mov	r5,r2
  804574:	0801a8c0 	call	801a8c <clust2sect>
  804578:	e0bffb15 	stw	r2,-20(fp)
         if (!sect) ABORT(fp->fs, FR_INT_ERR);
  80457c:	e0bffb17 	ldw	r2,-20(fp)
  804580:	1000091e 	bne	r2,zero,8045a8 <f_read+0x204>
  804584:	e0bffc17 	ldw	r2,-16(fp)
  804588:	10c00183 	ldbu	r3,6(r2)
  80458c:	00bfe004 	movi	r2,-128
  804590:	1884b03a 	or	r2,r3,r2
  804594:	1007883a 	mov	r3,r2
  804598:	e0bffc17 	ldw	r2,-16(fp)
  80459c:	10c00185 	stb	r3,6(r2)
  8045a0:	00800084 	movi	r2,2
  8045a4:	0000b306 	br	804874 <f_read+0x4d0>
         sect += csect;
  8045a8:	e0bffa03 	ldbu	r2,-24(fp)
  8045ac:	e0fffb17 	ldw	r3,-20(fp)
  8045b0:	1885883a 	add	r2,r3,r2
  8045b4:	e0bffb15 	stw	r2,-20(fp)
         cc = btr / SS(fp->fs);           /* When remaining bytes >= sector size, */
  8045b8:	e0bffe17 	ldw	r2,-8(fp)
  8045bc:	1004d27a 	srli	r2,r2,9
  8045c0:	e0bff615 	stw	r2,-40(fp)
         if (cc) {                     /* Read maximum contiguous sectors directly */
  8045c4:	e0bff617 	ldw	r2,-40(fp)
  8045c8:	10004026 	beq	r2,zero,8046cc <f_read+0x328>
            if (csect + cc > fp->fs->csize)  /* Clip at cluster boundary */
  8045cc:	e0fffa03 	ldbu	r3,-24(fp)
  8045d0:	e0bff617 	ldw	r2,-40(fp)
  8045d4:	1885883a 	add	r2,r3,r2
  8045d8:	e0fffc17 	ldw	r3,-16(fp)
  8045dc:	18c00017 	ldw	r3,0(r3)
  8045e0:	18c00083 	ldbu	r3,2(r3)
  8045e4:	18c03fcc 	andi	r3,r3,255
  8045e8:	1880072e 	bgeu	r3,r2,804608 <f_read+0x264>
               cc = fp->fs->csize - csect;
  8045ec:	e0bffc17 	ldw	r2,-16(fp)
  8045f0:	10800017 	ldw	r2,0(r2)
  8045f4:	10800083 	ldbu	r2,2(r2)
  8045f8:	10c03fcc 	andi	r3,r2,255
  8045fc:	e0bffa03 	ldbu	r2,-24(fp)
  804600:	1885c83a 	sub	r2,r3,r2
  804604:	e0bff615 	stw	r2,-40(fp)
            if (disk_read(fp->fs->drv, rbuff, sect, (uint8_t)cc) != RES_OK)
  804608:	e0bffc17 	ldw	r2,-16(fp)
  80460c:	10800017 	ldw	r2,0(r2)
  804610:	10800043 	ldbu	r2,1(r2)
  804614:	10c03fcc 	andi	r3,r2,255
  804618:	e0bff617 	ldw	r2,-40(fp)
  80461c:	10803fcc 	andi	r2,r2,255
  804620:	1809883a 	mov	r4,r3
  804624:	e17ff717 	ldw	r5,-36(fp)
  804628:	e1bffb17 	ldw	r6,-20(fp)
  80462c:	100f883a 	mov	r7,r2
  804630:	0800dec0 	call	800dec <ffs_DiskIORead>
  804634:	10000926 	beq	r2,zero,80465c <f_read+0x2b8>
               ABORT(fp->fs, FR_DISK_ERR);
  804638:	e0bffc17 	ldw	r2,-16(fp)
  80463c:	10c00183 	ldbu	r3,6(r2)
  804640:	00bfe004 	movi	r2,-128
  804644:	1884b03a 	or	r2,r3,r2
  804648:	1007883a 	mov	r3,r2
  80464c:	e0bffc17 	ldw	r2,-16(fp)
  804650:	10c00185 	stb	r3,6(r2)
  804654:	00800044 	movi	r2,1
  804658:	00008606 	br	804874 <f_read+0x4d0>
#if !_FS_READONLY && _FS_MINIMIZE <= 2       /* Replace one of the read sectors with cached data if it contains a dirty sector */
#if _FS_TINY
            if (fp->fs->wflag && fp->fs->winsect - sect < cc)
               mem_cpy(rbuff + ((fp->fs->winsect - sect) * SS(fp->fs)), fp->fs->win, SS(fp->fs));
#else
            if ((fp->flag & FA__DIRTY) && fp->dsect - sect < cc)
  80465c:	e0bffc17 	ldw	r2,-16(fp)
  804660:	10800183 	ldbu	r2,6(r2)
  804664:	10803fcc 	andi	r2,r2,255
  804668:	1080100c 	andi	r2,r2,64
  80466c:	10001326 	beq	r2,zero,8046bc <f_read+0x318>
  804670:	e0bffc17 	ldw	r2,-16(fp)
  804674:	10c00617 	ldw	r3,24(r2)
  804678:	e0bffb17 	ldw	r2,-20(fp)
  80467c:	1887c83a 	sub	r3,r3,r2
  804680:	e0bff617 	ldw	r2,-40(fp)
  804684:	18800d2e 	bgeu	r3,r2,8046bc <f_read+0x318>
               mem_cpy(rbuff + ((fp->dsect - sect) * SS(fp->fs)), fp->buf, SS(fp->fs));
  804688:	e0bffc17 	ldw	r2,-16(fp)
  80468c:	10c00617 	ldw	r3,24(r2)
  804690:	e0bffb17 	ldw	r2,-20(fp)
  804694:	1885c83a 	sub	r2,r3,r2
  804698:	1004927a 	slli	r2,r2,9
  80469c:	e0fff717 	ldw	r3,-36(fp)
  8046a0:	1887883a 	add	r3,r3,r2
  8046a4:	e0bffc17 	ldw	r2,-16(fp)
  8046a8:	10800904 	addi	r2,r2,36
  8046ac:	1809883a 	mov	r4,r3
  8046b0:	100b883a 	mov	r5,r2
  8046b4:	01808004 	movi	r6,512
  8046b8:	08015480 	call	801548 <mem_cpy>
#endif
#endif
            rcnt = SS(fp->fs) * cc;       /* Number of bytes transferred */
  8046bc:	e0bff617 	ldw	r2,-40(fp)
  8046c0:	1004927a 	slli	r2,r2,9
  8046c4:	e0bff515 	stw	r2,-44(fp)
            continue;
  8046c8:	00005306 	br	804818 <f_read+0x474>
         }
#if !_FS_TINY
         if (fp->dsect != sect) {         /* Load data sector if not in cache */
  8046cc:	e0bffc17 	ldw	r2,-16(fp)
  8046d0:	10c00617 	ldw	r3,24(r2)
  8046d4:	e0bffb17 	ldw	r2,-20(fp)
  8046d8:	18803726 	beq	r3,r2,8047b8 <f_read+0x414>
#if !_FS_READONLY
            if (fp->flag & FA__DIRTY) {      /* Write-back dirty sector cache */
  8046dc:	e0bffc17 	ldw	r2,-16(fp)
  8046e0:	10800183 	ldbu	r2,6(r2)
  8046e4:	10803fcc 	andi	r2,r2,255
  8046e8:	1080100c 	andi	r2,r2,64
  8046ec:	10001d26 	beq	r2,zero,804764 <f_read+0x3c0>
               if (disk_write(fp->fs->drv, fp->buf, fp->dsect, 1) != RES_OK)
  8046f0:	e0bffc17 	ldw	r2,-16(fp)
  8046f4:	10800017 	ldw	r2,0(r2)
  8046f8:	10800043 	ldbu	r2,1(r2)
  8046fc:	11003fcc 	andi	r4,r2,255
  804700:	e0bffc17 	ldw	r2,-16(fp)
  804704:	10c00904 	addi	r3,r2,36
  804708:	e0bffc17 	ldw	r2,-16(fp)
  80470c:	10800617 	ldw	r2,24(r2)
  804710:	180b883a 	mov	r5,r3
  804714:	100d883a 	mov	r6,r2
  804718:	01c00044 	movi	r7,1
  80471c:	0800f080 	call	800f08 <ffs_DiskIOWrite>
  804720:	10000926 	beq	r2,zero,804748 <f_read+0x3a4>
                  ABORT(fp->fs, FR_DISK_ERR);
  804724:	e0bffc17 	ldw	r2,-16(fp)
  804728:	10c00183 	ldbu	r3,6(r2)
  80472c:	00bfe004 	movi	r2,-128
  804730:	1884b03a 	or	r2,r3,r2
  804734:	1007883a 	mov	r3,r2
  804738:	e0bffc17 	ldw	r2,-16(fp)
  80473c:	10c00185 	stb	r3,6(r2)
  804740:	00800044 	movi	r2,1
  804744:	00004b06 	br	804874 <f_read+0x4d0>
               fp->flag &= ~FA__DIRTY;
  804748:	e0bffc17 	ldw	r2,-16(fp)
  80474c:	10c00183 	ldbu	r3,6(r2)
  804750:	00bfefc4 	movi	r2,-65
  804754:	1884703a 	and	r2,r3,r2
  804758:	1007883a 	mov	r3,r2
  80475c:	e0bffc17 	ldw	r2,-16(fp)
  804760:	10c00185 	stb	r3,6(r2)
            }
#endif
            if (disk_read(fp->fs->drv, fp->buf, sect, 1) != RES_OK)  /* Fill sector cache */
  804764:	e0bffc17 	ldw	r2,-16(fp)
  804768:	10800017 	ldw	r2,0(r2)
  80476c:	10800043 	ldbu	r2,1(r2)
  804770:	10c03fcc 	andi	r3,r2,255
  804774:	e0bffc17 	ldw	r2,-16(fp)
  804778:	10800904 	addi	r2,r2,36
  80477c:	1809883a 	mov	r4,r3
  804780:	100b883a 	mov	r5,r2
  804784:	e1bffb17 	ldw	r6,-20(fp)
  804788:	01c00044 	movi	r7,1
  80478c:	0800dec0 	call	800dec <ffs_DiskIORead>
  804790:	10000926 	beq	r2,zero,8047b8 <f_read+0x414>
               ABORT(fp->fs, FR_DISK_ERR);
  804794:	e0bffc17 	ldw	r2,-16(fp)
  804798:	10c00183 	ldbu	r3,6(r2)
  80479c:	00bfe004 	movi	r2,-128
  8047a0:	1884b03a 	or	r2,r3,r2
  8047a4:	1007883a 	mov	r3,r2
  8047a8:	e0bffc17 	ldw	r2,-16(fp)
  8047ac:	10c00185 	stb	r3,6(r2)
  8047b0:	00800044 	movi	r2,1
  8047b4:	00002f06 	br	804874 <f_read+0x4d0>
         }
#endif
         fp->dsect = sect;
  8047b8:	e0bffc17 	ldw	r2,-16(fp)
  8047bc:	e0fffb17 	ldw	r3,-20(fp)
  8047c0:	10c00615 	stw	r3,24(r2)
      }
      rcnt = SS(fp->fs) - (fp->fptr % SS(fp->fs)); /* Get partial sector data from sector buffer */
  8047c4:	e0bffc17 	ldw	r2,-16(fp)
  8047c8:	10800217 	ldw	r2,8(r2)
  8047cc:	10807fcc 	andi	r2,r2,511
  8047d0:	00c08004 	movi	r3,512
  8047d4:	1885c83a 	sub	r2,r3,r2
  8047d8:	e0bff515 	stw	r2,-44(fp)
      if (rcnt > btr) rcnt = btr;
  8047dc:	e0bff517 	ldw	r2,-44(fp)
  8047e0:	e0fffe17 	ldw	r3,-8(fp)
  8047e4:	1880022e 	bgeu	r3,r2,8047f0 <f_read+0x44c>
  8047e8:	e0bffe17 	ldw	r2,-8(fp)
  8047ec:	e0bff515 	stw	r2,-44(fp)
#if _FS_TINY
      if (move_window(fp->fs, fp->dsect))    /* Move sector window */
         ABORT(fp->fs, FR_DISK_ERR);
      mem_cpy(rbuff, &fp->fs->win[fp->fptr % SS(fp->fs)], rcnt);  /* Pick partial sector */
#else
      mem_cpy(rbuff, &fp->buf[fp->fptr % SS(fp->fs)], rcnt);   /* Pick partial sector */
  8047f0:	e0bffc17 	ldw	r2,-16(fp)
  8047f4:	10800217 	ldw	r2,8(r2)
  8047f8:	10807fcc 	andi	r2,r2,511
  8047fc:	10800904 	addi	r2,r2,36
  804800:	e0fffc17 	ldw	r3,-16(fp)
  804804:	1885883a 	add	r2,r3,r2
  804808:	e13ff717 	ldw	r4,-36(fp)
  80480c:	100b883a 	mov	r5,r2
  804810:	e1bff517 	ldw	r6,-44(fp)
  804814:	08015480 	call	801548 <mem_cpy>
      LEAVE_FF(fp->fs, FR_DENIED);
   remain = fp->fsize - fp->fptr;
   if (btr > remain) btr = (uint32_t)remain;     /* Truncate btr by remaining bytes */

   for ( ;  btr;                       /* Repeat until all data read */
      rbuff += rcnt, fp->fptr += rcnt, *br += rcnt, btr -= rcnt) {
  804818:	e0fff717 	ldw	r3,-36(fp)
  80481c:	e0bff517 	ldw	r2,-44(fp)
  804820:	1885883a 	add	r2,r3,r2
  804824:	e0bff715 	stw	r2,-36(fp)
  804828:	e0bffc17 	ldw	r2,-16(fp)
  80482c:	10c00217 	ldw	r3,8(r2)
  804830:	e0bff517 	ldw	r2,-44(fp)
  804834:	1887883a 	add	r3,r3,r2
  804838:	e0bffc17 	ldw	r2,-16(fp)
  80483c:	10c00215 	stw	r3,8(r2)
  804840:	e0bfff17 	ldw	r2,-4(fp)
  804844:	10c00017 	ldw	r3,0(r2)
  804848:	e0bff517 	ldw	r2,-44(fp)
  80484c:	1887883a 	add	r3,r3,r2
  804850:	e0bfff17 	ldw	r2,-4(fp)
  804854:	10c00015 	stw	r3,0(r2)
  804858:	e0fffe17 	ldw	r3,-8(fp)
  80485c:	e0bff517 	ldw	r2,-44(fp)
  804860:	1885c83a 	sub	r2,r3,r2
  804864:	e0bffe15 	stw	r2,-8(fp)
   if (!(fp->flag & FA_READ))                /* Check access mode */
      LEAVE_FF(fp->fs, FR_DENIED);
   remain = fp->fsize - fp->fptr;
   if (btr > remain) btr = (uint32_t)remain;     /* Truncate btr by remaining bytes */

   for ( ;  btr;                       /* Repeat until all data read */
  804868:	e0bffe17 	ldw	r2,-8(fp)
  80486c:	103f011e 	bne	r2,zero,804474 <__alt_data_end+0xff804474>
#else
      mem_cpy(rbuff, &fp->buf[fp->fptr % SS(fp->fs)], rcnt);   /* Pick partial sector */
#endif
   }

   LEAVE_FF(fp->fs, FR_OK);
  804870:	0005883a 	mov	r2,zero
}
  804874:	e037883a 	mov	sp,fp
  804878:	dfc00117 	ldw	ra,4(sp)
  80487c:	df000017 	ldw	fp,0(sp)
  804880:	dec00204 	addi	sp,sp,8
  804884:	f800283a 	ret

00804888 <f_write>:
   FIL *fp,       /* Pointer to the file object */
   const void *buff, /* Pointer to the data to be written */
   uint32_t btw,         /* Number of bytes to write */
   uint32_t *bw       /* Pointer to number of bytes written */
)
{
  804888:	defff304 	addi	sp,sp,-52
  80488c:	dfc00c15 	stw	ra,48(sp)
  804890:	df000b15 	stw	fp,44(sp)
  804894:	df000b04 	addi	fp,sp,44
  804898:	e13ffc15 	stw	r4,-16(fp)
  80489c:	e17ffd15 	stw	r5,-12(fp)
  8048a0:	e1bffe15 	stw	r6,-8(fp)
  8048a4:	e1ffff15 	stw	r7,-4(fp)
   FRESULT res;
   uint32_t clst, sect;
   uint32_t wcnt, cc;
   const uint8_t *wbuff = buff;
  8048a8:	e0bffd17 	ldw	r2,-12(fp)
  8048ac:	e0bff815 	stw	r2,-32(fp)
   uint8_t csect;


   *bw = 0; /* Initialize byte counter */
  8048b0:	e0bfff17 	ldw	r2,-4(fp)
  8048b4:	10000015 	stw	zero,0(r2)

   res = validate(fp->fs, fp->id);        /* Check validity */
  8048b8:	e0bffc17 	ldw	r2,-16(fp)
  8048bc:	10c00017 	ldw	r3,0(r2)
  8048c0:	e0bffc17 	ldw	r2,-16(fp)
  8048c4:	1080010b 	ldhu	r2,4(r2)
  8048c8:	10bfffcc 	andi	r2,r2,65535
  8048cc:	1809883a 	mov	r4,r3
  8048d0:	100b883a 	mov	r5,r2
  8048d4:	0803dfc0 	call	803dfc <validate>
  8048d8:	e0bff915 	stw	r2,-28(fp)
   if (res != FR_OK) LEAVE_FF(fp->fs, res);
  8048dc:	e0bff917 	ldw	r2,-28(fp)
  8048e0:	10000226 	beq	r2,zero,8048ec <f_write+0x64>
  8048e4:	e0bff917 	ldw	r2,-28(fp)
  8048e8:	00014106 	br	804df0 <f_write+0x568>
   if (fp->flag & FA__ERROR)           /* Aborted file? */
  8048ec:	e0bffc17 	ldw	r2,-16(fp)
  8048f0:	10800183 	ldbu	r2,6(r2)
  8048f4:	10803fcc 	andi	r2,r2,255
  8048f8:	1080201c 	xori	r2,r2,128
  8048fc:	10bfe004 	addi	r2,r2,-128
  804900:	1000020e 	bge	r2,zero,80490c <f_write+0x84>
      LEAVE_FF(fp->fs, FR_INT_ERR);
  804904:	00800084 	movi	r2,2
  804908:	00013906 	br	804df0 <f_write+0x568>
   if (!(fp->flag & FA_WRITE))            /* Check access mode */
  80490c:	e0bffc17 	ldw	r2,-16(fp)
  804910:	10800183 	ldbu	r2,6(r2)
  804914:	10803fcc 	andi	r2,r2,255
  804918:	1080008c 	andi	r2,r2,2
  80491c:	1000021e 	bne	r2,zero,804928 <f_write+0xa0>
      LEAVE_FF(fp->fs, FR_DENIED);
  804920:	008001c4 	movi	r2,7
  804924:	00013206 	br	804df0 <f_write+0x568>
   if ((uint32_t)(fp->fsize + btw) < fp->fsize) btw = 0; /* File size cannot reach 4GB */
  804928:	e0bffc17 	ldw	r2,-16(fp)
  80492c:	10c00317 	ldw	r3,12(r2)
  804930:	e0bffe17 	ldw	r2,-8(fp)
  804934:	1887883a 	add	r3,r3,r2
  804938:	e0bffc17 	ldw	r2,-16(fp)
  80493c:	10800317 	ldw	r2,12(r2)
  804940:	1880012e 	bgeu	r3,r2,804948 <f_write+0xc0>
  804944:	e03ffe15 	stw	zero,-8(fp)

   for ( ;  btw;                    /* Repeat until all data written */
  804948:	00011706 	br	804da8 <f_write+0x520>
      wbuff += wcnt, fp->fptr += wcnt, *bw += wcnt, btw -= wcnt) {
      if ((fp->fptr % SS(fp->fs)) == 0) { /* On the sector boundary? */
  80494c:	e0bffc17 	ldw	r2,-16(fp)
  804950:	10800217 	ldw	r2,8(r2)
  804954:	10807fcc 	andi	r2,r2,511
  804958:	1000e41e 	bne	r2,zero,804cec <f_write+0x464>
         csect = (uint8_t)(fp->fptr / SS(fp->fs) & (fp->fs->csize - 1));   /* Sector offset in the cluster */
  80495c:	e0bffc17 	ldw	r2,-16(fp)
  804960:	10800217 	ldw	r2,8(r2)
  804964:	1004d27a 	srli	r2,r2,9
  804968:	1007883a 	mov	r3,r2
  80496c:	e0bffc17 	ldw	r2,-16(fp)
  804970:	10800017 	ldw	r2,0(r2)
  804974:	10800083 	ldbu	r2,2(r2)
  804978:	10bfffc4 	addi	r2,r2,-1
  80497c:	1884703a 	and	r2,r3,r2
  804980:	e0bffa05 	stb	r2,-24(fp)
         if (!csect) {              /* On the cluster boundary? */
  804984:	e0bffa03 	ldbu	r2,-24(fp)
  804988:	1000381e 	bne	r2,zero,804a6c <f_write+0x1e4>
            if (fp->fptr == 0) {    /* On the top of the file? */
  80498c:	e0bffc17 	ldw	r2,-16(fp)
  804990:	10800217 	ldw	r2,8(r2)
  804994:	10000f1e 	bne	r2,zero,8049d4 <f_write+0x14c>
               clst = fp->sclust;      /* Follow from the origin */
  804998:	e0bffc17 	ldw	r2,-16(fp)
  80499c:	10800417 	ldw	r2,16(r2)
  8049a0:	e0bff515 	stw	r2,-44(fp)
               if (clst == 0)       /* When no cluster is allocated, */
  8049a4:	e0bff517 	ldw	r2,-44(fp)
  8049a8:	1000121e 	bne	r2,zero,8049f4 <f_write+0x16c>
                  fp->sclust = clst = create_chain(fp->fs, 0); /* Create a new cluster chain */
  8049ac:	e0bffc17 	ldw	r2,-16(fp)
  8049b0:	10800017 	ldw	r2,0(r2)
  8049b4:	1009883a 	mov	r4,r2
  8049b8:	000b883a 	mov	r5,zero
  8049bc:	08022000 	call	802200 <create_chain>
  8049c0:	e0bff515 	stw	r2,-44(fp)
  8049c4:	e0bffc17 	ldw	r2,-16(fp)
  8049c8:	e0fff517 	ldw	r3,-44(fp)
  8049cc:	10c00415 	stw	r3,16(r2)
  8049d0:	00000806 	br	8049f4 <f_write+0x16c>
#if _USE_FASTSEEK
               if (fp->cltbl)
                  clst = clmt_clust(fp, fp->fptr); /* Get cluster# from the CLMT */
               else
#endif
                  clst = create_chain(fp->fs, fp->clust);   /* Follow or stretch cluster chain on the FAT */
  8049d4:	e0bffc17 	ldw	r2,-16(fp)
  8049d8:	10c00017 	ldw	r3,0(r2)
  8049dc:	e0bffc17 	ldw	r2,-16(fp)
  8049e0:	10800517 	ldw	r2,20(r2)
  8049e4:	1809883a 	mov	r4,r3
  8049e8:	100b883a 	mov	r5,r2
  8049ec:	08022000 	call	802200 <create_chain>
  8049f0:	e0bff515 	stw	r2,-44(fp)
            }
            if (clst == 0) break;      /* Could not allocate a new cluster (disk full) */
  8049f4:	e0bff517 	ldw	r2,-44(fp)
  8049f8:	1000011e 	bne	r2,zero,804a00 <f_write+0x178>
  8049fc:	0000ec06 	br	804db0 <f_write+0x528>
            if (clst == 1) ABORT(fp->fs, FR_INT_ERR);
  804a00:	e0bff517 	ldw	r2,-44(fp)
  804a04:	10800058 	cmpnei	r2,r2,1
  804a08:	1000091e 	bne	r2,zero,804a30 <f_write+0x1a8>
  804a0c:	e0bffc17 	ldw	r2,-16(fp)
  804a10:	10c00183 	ldbu	r3,6(r2)
  804a14:	00bfe004 	movi	r2,-128
  804a18:	1884b03a 	or	r2,r3,r2
  804a1c:	1007883a 	mov	r3,r2
  804a20:	e0bffc17 	ldw	r2,-16(fp)
  804a24:	10c00185 	stb	r3,6(r2)
  804a28:	00800084 	movi	r2,2
  804a2c:	0000f006 	br	804df0 <f_write+0x568>
            if (clst == 0xFFFFFFFF) ABORT(fp->fs, FR_DISK_ERR);
  804a30:	e0bff517 	ldw	r2,-44(fp)
  804a34:	10bfffd8 	cmpnei	r2,r2,-1
  804a38:	1000091e 	bne	r2,zero,804a60 <f_write+0x1d8>
  804a3c:	e0bffc17 	ldw	r2,-16(fp)
  804a40:	10c00183 	ldbu	r3,6(r2)
  804a44:	00bfe004 	movi	r2,-128
  804a48:	1884b03a 	or	r2,r3,r2
  804a4c:	1007883a 	mov	r3,r2
  804a50:	e0bffc17 	ldw	r2,-16(fp)
  804a54:	10c00185 	stb	r3,6(r2)
  804a58:	00800044 	movi	r2,1
  804a5c:	0000e406 	br	804df0 <f_write+0x568>
            fp->clust = clst;       /* Update current cluster */
  804a60:	e0bffc17 	ldw	r2,-16(fp)
  804a64:	e0fff517 	ldw	r3,-44(fp)
  804a68:	10c00515 	stw	r3,20(r2)
         }
#if _FS_TINY
         if (fp->fs->winsect == fp->dsect && move_window(fp->fs, 0)) /* Write-back sector cache */
            ABORT(fp->fs, FR_DISK_ERR);
#else
         if (fp->flag & FA__DIRTY) {      /* Write-back sector cache */
  804a6c:	e0bffc17 	ldw	r2,-16(fp)
  804a70:	10800183 	ldbu	r2,6(r2)
  804a74:	10803fcc 	andi	r2,r2,255
  804a78:	1080100c 	andi	r2,r2,64
  804a7c:	10001d26 	beq	r2,zero,804af4 <f_write+0x26c>
            if (disk_write(fp->fs->drv, fp->buf, fp->dsect, 1) != RES_OK)
  804a80:	e0bffc17 	ldw	r2,-16(fp)
  804a84:	10800017 	ldw	r2,0(r2)
  804a88:	10800043 	ldbu	r2,1(r2)
  804a8c:	11003fcc 	andi	r4,r2,255
  804a90:	e0bffc17 	ldw	r2,-16(fp)
  804a94:	10c00904 	addi	r3,r2,36
  804a98:	e0bffc17 	ldw	r2,-16(fp)
  804a9c:	10800617 	ldw	r2,24(r2)
  804aa0:	180b883a 	mov	r5,r3
  804aa4:	100d883a 	mov	r6,r2
  804aa8:	01c00044 	movi	r7,1
  804aac:	0800f080 	call	800f08 <ffs_DiskIOWrite>
  804ab0:	10000926 	beq	r2,zero,804ad8 <f_write+0x250>
               ABORT(fp->fs, FR_DISK_ERR);
  804ab4:	e0bffc17 	ldw	r2,-16(fp)
  804ab8:	10c00183 	ldbu	r3,6(r2)
  804abc:	00bfe004 	movi	r2,-128
  804ac0:	1884b03a 	or	r2,r3,r2
  804ac4:	1007883a 	mov	r3,r2
  804ac8:	e0bffc17 	ldw	r2,-16(fp)
  804acc:	10c00185 	stb	r3,6(r2)
  804ad0:	00800044 	movi	r2,1
  804ad4:	0000c606 	br	804df0 <f_write+0x568>
            fp->flag &= ~FA__DIRTY;
  804ad8:	e0bffc17 	ldw	r2,-16(fp)
  804adc:	10c00183 	ldbu	r3,6(r2)
  804ae0:	00bfefc4 	movi	r2,-65
  804ae4:	1884703a 	and	r2,r3,r2
  804ae8:	1007883a 	mov	r3,r2
  804aec:	e0bffc17 	ldw	r2,-16(fp)
  804af0:	10c00185 	stb	r3,6(r2)
         }
#endif
         sect = clust2sect(fp->fs, fp->clust);  /* Get current sector */
  804af4:	e0bffc17 	ldw	r2,-16(fp)
  804af8:	10c00017 	ldw	r3,0(r2)
  804afc:	e0bffc17 	ldw	r2,-16(fp)
  804b00:	10800517 	ldw	r2,20(r2)
  804b04:	1809883a 	mov	r4,r3
  804b08:	100b883a 	mov	r5,r2
  804b0c:	0801a8c0 	call	801a8c <clust2sect>
  804b10:	e0bffb15 	stw	r2,-20(fp)
         if (!sect) ABORT(fp->fs, FR_INT_ERR);
  804b14:	e0bffb17 	ldw	r2,-20(fp)
  804b18:	1000091e 	bne	r2,zero,804b40 <f_write+0x2b8>
  804b1c:	e0bffc17 	ldw	r2,-16(fp)
  804b20:	10c00183 	ldbu	r3,6(r2)
  804b24:	00bfe004 	movi	r2,-128
  804b28:	1884b03a 	or	r2,r3,r2
  804b2c:	1007883a 	mov	r3,r2
  804b30:	e0bffc17 	ldw	r2,-16(fp)
  804b34:	10c00185 	stb	r3,6(r2)
  804b38:	00800084 	movi	r2,2
  804b3c:	0000ac06 	br	804df0 <f_write+0x568>
         sect += csect;
  804b40:	e0bffa03 	ldbu	r2,-24(fp)
  804b44:	e0fffb17 	ldw	r3,-20(fp)
  804b48:	1885883a 	add	r2,r3,r2
  804b4c:	e0bffb15 	stw	r2,-20(fp)
         cc = btw / SS(fp->fs);        /* When remaining bytes >= sector size, */
  804b50:	e0bffe17 	ldw	r2,-8(fp)
  804b54:	1004d27a 	srli	r2,r2,9
  804b58:	e0bff715 	stw	r2,-36(fp)
         if (cc) {                  /* Write maximum contiguous sectors directly */
  804b5c:	e0bff717 	ldw	r2,-36(fp)
  804b60:	10004126 	beq	r2,zero,804c68 <f_write+0x3e0>
            if (csect + cc > fp->fs->csize)  /* Clip at cluster boundary */
  804b64:	e0fffa03 	ldbu	r3,-24(fp)
  804b68:	e0bff717 	ldw	r2,-36(fp)
  804b6c:	1885883a 	add	r2,r3,r2
  804b70:	e0fffc17 	ldw	r3,-16(fp)
  804b74:	18c00017 	ldw	r3,0(r3)
  804b78:	18c00083 	ldbu	r3,2(r3)
  804b7c:	18c03fcc 	andi	r3,r3,255
  804b80:	1880072e 	bgeu	r3,r2,804ba0 <f_write+0x318>
               cc = fp->fs->csize - csect;
  804b84:	e0bffc17 	ldw	r2,-16(fp)
  804b88:	10800017 	ldw	r2,0(r2)
  804b8c:	10800083 	ldbu	r2,2(r2)
  804b90:	10c03fcc 	andi	r3,r2,255
  804b94:	e0bffa03 	ldbu	r2,-24(fp)
  804b98:	1885c83a 	sub	r2,r3,r2
  804b9c:	e0bff715 	stw	r2,-36(fp)
            if (disk_write(fp->fs->drv, wbuff, sect, (uint8_t)cc) != RES_OK)
  804ba0:	e0bffc17 	ldw	r2,-16(fp)
  804ba4:	10800017 	ldw	r2,0(r2)
  804ba8:	10800043 	ldbu	r2,1(r2)
  804bac:	10c03fcc 	andi	r3,r2,255
  804bb0:	e0bff717 	ldw	r2,-36(fp)
  804bb4:	10803fcc 	andi	r2,r2,255
  804bb8:	1809883a 	mov	r4,r3
  804bbc:	e17ff817 	ldw	r5,-32(fp)
  804bc0:	e1bffb17 	ldw	r6,-20(fp)
  804bc4:	100f883a 	mov	r7,r2
  804bc8:	0800f080 	call	800f08 <ffs_DiskIOWrite>
  804bcc:	10000926 	beq	r2,zero,804bf4 <f_write+0x36c>
               ABORT(fp->fs, FR_DISK_ERR);
  804bd0:	e0bffc17 	ldw	r2,-16(fp)
  804bd4:	10c00183 	ldbu	r3,6(r2)
  804bd8:	00bfe004 	movi	r2,-128
  804bdc:	1884b03a 	or	r2,r3,r2
  804be0:	1007883a 	mov	r3,r2
  804be4:	e0bffc17 	ldw	r2,-16(fp)
  804be8:	10c00185 	stb	r3,6(r2)
  804bec:	00800044 	movi	r2,1
  804bf0:	00007f06 	br	804df0 <f_write+0x568>
            if (fp->fs->winsect - sect < cc) {  /* Refill sector cache if it gets invalidated by the direct write */
               mem_cpy(fp->fs->win, wbuff + ((fp->fs->winsect - sect) * SS(fp->fs)), SS(fp->fs));
               fp->fs->wflag = 0;
            }
#else
            if (fp->dsect - sect < cc) { /* Refill sector cache if it gets invalidated by the direct write */
  804bf4:	e0bffc17 	ldw	r2,-16(fp)
  804bf8:	10c00617 	ldw	r3,24(r2)
  804bfc:	e0bffb17 	ldw	r2,-20(fp)
  804c00:	1887c83a 	sub	r3,r3,r2
  804c04:	e0bff717 	ldw	r2,-36(fp)
  804c08:	1880132e 	bgeu	r3,r2,804c58 <f_write+0x3d0>
               mem_cpy(fp->buf, wbuff + ((fp->dsect - sect) * SS(fp->fs)), SS(fp->fs));
  804c0c:	e0bffc17 	ldw	r2,-16(fp)
  804c10:	11000904 	addi	r4,r2,36
  804c14:	e0bffc17 	ldw	r2,-16(fp)
  804c18:	10c00617 	ldw	r3,24(r2)
  804c1c:	e0bffb17 	ldw	r2,-20(fp)
  804c20:	1885c83a 	sub	r2,r3,r2
  804c24:	1004927a 	slli	r2,r2,9
  804c28:	e0fff817 	ldw	r3,-32(fp)
  804c2c:	1885883a 	add	r2,r3,r2
  804c30:	100b883a 	mov	r5,r2
  804c34:	01808004 	movi	r6,512
  804c38:	08015480 	call	801548 <mem_cpy>
               fp->flag &= ~FA__DIRTY;
  804c3c:	e0bffc17 	ldw	r2,-16(fp)
  804c40:	10c00183 	ldbu	r3,6(r2)
  804c44:	00bfefc4 	movi	r2,-65
  804c48:	1884703a 	and	r2,r3,r2
  804c4c:	1007883a 	mov	r3,r2
  804c50:	e0bffc17 	ldw	r2,-16(fp)
  804c54:	10c00185 	stb	r3,6(r2)
            }
#endif
            wcnt = SS(fp->fs) * cc;    /* Number of bytes transferred */
  804c58:	e0bff717 	ldw	r2,-36(fp)
  804c5c:	1004927a 	slli	r2,r2,9
  804c60:	e0bff615 	stw	r2,-40(fp)
            continue;
  804c64:	00003c06 	br	804d58 <f_write+0x4d0>
         if (fp->fptr >= fp->fsize) {  /* Avoid silly cache filling at growing edge */
            if (move_window(fp->fs, 0)) ABORT(fp->fs, FR_DISK_ERR);
            fp->fs->winsect = sect;
         }
#else
         if (fp->dsect != sect) {      /* Fill sector cache with file data */
  804c68:	e0bffc17 	ldw	r2,-16(fp)
  804c6c:	10c00617 	ldw	r3,24(r2)
  804c70:	e0bffb17 	ldw	r2,-20(fp)
  804c74:	18801a26 	beq	r3,r2,804ce0 <f_write+0x458>
            if (fp->fptr < fp->fsize &&
  804c78:	e0bffc17 	ldw	r2,-16(fp)
  804c7c:	10c00217 	ldw	r3,8(r2)
  804c80:	e0bffc17 	ldw	r2,-16(fp)
  804c84:	10800317 	ldw	r2,12(r2)
  804c88:	1880152e 	bgeu	r3,r2,804ce0 <f_write+0x458>
               disk_read(fp->fs->drv, fp->buf, sect, 1) != RES_OK)
  804c8c:	e0bffc17 	ldw	r2,-16(fp)
  804c90:	10800017 	ldw	r2,0(r2)
  804c94:	10800043 	ldbu	r2,1(r2)
  804c98:	10c03fcc 	andi	r3,r2,255
  804c9c:	e0bffc17 	ldw	r2,-16(fp)
  804ca0:	10800904 	addi	r2,r2,36
  804ca4:	1809883a 	mov	r4,r3
  804ca8:	100b883a 	mov	r5,r2
  804cac:	e1bffb17 	ldw	r6,-20(fp)
  804cb0:	01c00044 	movi	r7,1
  804cb4:	0800dec0 	call	800dec <ffs_DiskIORead>
            if (move_window(fp->fs, 0)) ABORT(fp->fs, FR_DISK_ERR);
            fp->fs->winsect = sect;
         }
#else
         if (fp->dsect != sect) {      /* Fill sector cache with file data */
            if (fp->fptr < fp->fsize &&
  804cb8:	10000926 	beq	r2,zero,804ce0 <f_write+0x458>
               disk_read(fp->fs->drv, fp->buf, sect, 1) != RES_OK)
                  ABORT(fp->fs, FR_DISK_ERR);
  804cbc:	e0bffc17 	ldw	r2,-16(fp)
  804cc0:	10c00183 	ldbu	r3,6(r2)
  804cc4:	00bfe004 	movi	r2,-128
  804cc8:	1884b03a 	or	r2,r3,r2
  804ccc:	1007883a 	mov	r3,r2
  804cd0:	e0bffc17 	ldw	r2,-16(fp)
  804cd4:	10c00185 	stb	r3,6(r2)
  804cd8:	00800044 	movi	r2,1
  804cdc:	00004406 	br	804df0 <f_write+0x568>
         }
#endif
         fp->dsect = sect;
  804ce0:	e0bffc17 	ldw	r2,-16(fp)
  804ce4:	e0fffb17 	ldw	r3,-20(fp)
  804ce8:	10c00615 	stw	r3,24(r2)
      }
      wcnt = SS(fp->fs) - (fp->fptr % SS(fp->fs));/* Put partial sector into file I/O buffer */
  804cec:	e0bffc17 	ldw	r2,-16(fp)
  804cf0:	10800217 	ldw	r2,8(r2)
  804cf4:	10807fcc 	andi	r2,r2,511
  804cf8:	00c08004 	movi	r3,512
  804cfc:	1885c83a 	sub	r2,r3,r2
  804d00:	e0bff615 	stw	r2,-40(fp)
      if (wcnt > btw) wcnt = btw;
  804d04:	e0bff617 	ldw	r2,-40(fp)
  804d08:	e0fffe17 	ldw	r3,-8(fp)
  804d0c:	1880022e 	bgeu	r3,r2,804d18 <f_write+0x490>
  804d10:	e0bffe17 	ldw	r2,-8(fp)
  804d14:	e0bff615 	stw	r2,-40(fp)
      if (move_window(fp->fs, fp->dsect)) /* Move sector window */
         ABORT(fp->fs, FR_DISK_ERR);
      mem_cpy(&fp->fs->win[fp->fptr % SS(fp->fs)], wbuff, wcnt);  /* Fit partial sector */
      fp->fs->wflag = 1;
#else
      mem_cpy(&fp->buf[fp->fptr % SS(fp->fs)], wbuff, wcnt);   /* Fit partial sector */
  804d18:	e0bffc17 	ldw	r2,-16(fp)
  804d1c:	10800217 	ldw	r2,8(r2)
  804d20:	10807fcc 	andi	r2,r2,511
  804d24:	10800904 	addi	r2,r2,36
  804d28:	e0fffc17 	ldw	r3,-16(fp)
  804d2c:	1885883a 	add	r2,r3,r2
  804d30:	1009883a 	mov	r4,r2
  804d34:	e17ff817 	ldw	r5,-32(fp)
  804d38:	e1bff617 	ldw	r6,-40(fp)
  804d3c:	08015480 	call	801548 <mem_cpy>
      fp->flag |= FA__DIRTY;
  804d40:	e0bffc17 	ldw	r2,-16(fp)
  804d44:	10800183 	ldbu	r2,6(r2)
  804d48:	10801014 	ori	r2,r2,64
  804d4c:	1007883a 	mov	r3,r2
  804d50:	e0bffc17 	ldw	r2,-16(fp)
  804d54:	10c00185 	stb	r3,6(r2)
   if (!(fp->flag & FA_WRITE))            /* Check access mode */
      LEAVE_FF(fp->fs, FR_DENIED);
   if ((uint32_t)(fp->fsize + btw) < fp->fsize) btw = 0; /* File size cannot reach 4GB */

   for ( ;  btw;                    /* Repeat until all data written */
      wbuff += wcnt, fp->fptr += wcnt, *bw += wcnt, btw -= wcnt) {
  804d58:	e0fff817 	ldw	r3,-32(fp)
  804d5c:	e0bff617 	ldw	r2,-40(fp)
  804d60:	1885883a 	add	r2,r3,r2
  804d64:	e0bff815 	stw	r2,-32(fp)
  804d68:	e0bffc17 	ldw	r2,-16(fp)
  804d6c:	10c00217 	ldw	r3,8(r2)
  804d70:	e0bff617 	ldw	r2,-40(fp)
  804d74:	1887883a 	add	r3,r3,r2
  804d78:	e0bffc17 	ldw	r2,-16(fp)
  804d7c:	10c00215 	stw	r3,8(r2)
  804d80:	e0bfff17 	ldw	r2,-4(fp)
  804d84:	10c00017 	ldw	r3,0(r2)
  804d88:	e0bff617 	ldw	r2,-40(fp)
  804d8c:	1887883a 	add	r3,r3,r2
  804d90:	e0bfff17 	ldw	r2,-4(fp)
  804d94:	10c00015 	stw	r3,0(r2)
  804d98:	e0fffe17 	ldw	r3,-8(fp)
  804d9c:	e0bff617 	ldw	r2,-40(fp)
  804da0:	1885c83a 	sub	r2,r3,r2
  804da4:	e0bffe15 	stw	r2,-8(fp)
      LEAVE_FF(fp->fs, FR_INT_ERR);
   if (!(fp->flag & FA_WRITE))            /* Check access mode */
      LEAVE_FF(fp->fs, FR_DENIED);
   if ((uint32_t)(fp->fsize + btw) < fp->fsize) btw = 0; /* File size cannot reach 4GB */

   for ( ;  btw;                    /* Repeat until all data written */
  804da8:	e0bffe17 	ldw	r2,-8(fp)
  804dac:	103ee71e 	bne	r2,zero,80494c <__alt_data_end+0xff80494c>
      mem_cpy(&fp->buf[fp->fptr % SS(fp->fs)], wbuff, wcnt);   /* Fit partial sector */
      fp->flag |= FA__DIRTY;
#endif
   }

   if (fp->fptr > fp->fsize) fp->fsize = fp->fptr; /* Update file size if needed */
  804db0:	e0bffc17 	ldw	r2,-16(fp)
  804db4:	10800217 	ldw	r2,8(r2)
  804db8:	e0fffc17 	ldw	r3,-16(fp)
  804dbc:	18c00317 	ldw	r3,12(r3)
  804dc0:	1880042e 	bgeu	r3,r2,804dd4 <f_write+0x54c>
  804dc4:	e0bffc17 	ldw	r2,-16(fp)
  804dc8:	10c00217 	ldw	r3,8(r2)
  804dcc:	e0bffc17 	ldw	r2,-16(fp)
  804dd0:	10c00315 	stw	r3,12(r2)
   fp->flag |= FA__WRITTEN;                  /* Set file change flag */
  804dd4:	e0bffc17 	ldw	r2,-16(fp)
  804dd8:	10800183 	ldbu	r2,6(r2)
  804ddc:	10800814 	ori	r2,r2,32
  804de0:	1007883a 	mov	r3,r2
  804de4:	e0bffc17 	ldw	r2,-16(fp)
  804de8:	10c00185 	stb	r3,6(r2)

   LEAVE_FF(fp->fs, FR_OK);
  804dec:	0005883a 	mov	r2,zero
}
  804df0:	e037883a 	mov	sp,fp
  804df4:	dfc00117 	ldw	ra,4(sp)
  804df8:	df000017 	ldw	fp,0(sp)
  804dfc:	dec00204 	addi	sp,sp,8
  804e00:	f800283a 	ret

00804e04 <f_sync>:
/*-----------------------------------------------------------------------*/

FRESULT f_sync (
   FIL *fp     /* Pointer to the file object */
)
{
  804e04:	defffa04 	addi	sp,sp,-24
  804e08:	dfc00515 	stw	ra,20(sp)
  804e0c:	df000415 	stw	fp,16(sp)
  804e10:	df000404 	addi	fp,sp,16
  804e14:	e13fff15 	stw	r4,-4(fp)
   FRESULT res;
   uint32_t tim;
   uint8_t *dir;


   res = validate(fp->fs, fp->id);     /* Check validity of the object */
  804e18:	e0bfff17 	ldw	r2,-4(fp)
  804e1c:	10c00017 	ldw	r3,0(r2)
  804e20:	e0bfff17 	ldw	r2,-4(fp)
  804e24:	1080010b 	ldhu	r2,4(r2)
  804e28:	10bfffcc 	andi	r2,r2,65535
  804e2c:	1809883a 	mov	r4,r3
  804e30:	100b883a 	mov	r5,r2
  804e34:	0803dfc0 	call	803dfc <validate>
  804e38:	e0bffc15 	stw	r2,-16(fp)
   if (res == FR_OK) {
  804e3c:	e0bffc17 	ldw	r2,-16(fp)
  804e40:	10008c1e 	bne	r2,zero,805074 <f_sync+0x270>
      if (fp->flag & FA__WRITTEN) { /* Has the file been written? */
  804e44:	e0bfff17 	ldw	r2,-4(fp)
  804e48:	10800183 	ldbu	r2,6(r2)
  804e4c:	10803fcc 	andi	r2,r2,255
  804e50:	1080080c 	andi	r2,r2,32
  804e54:	10008726 	beq	r2,zero,805074 <f_sync+0x270>
#if !_FS_TINY  /* Write-back dirty buffer */
         if (fp->flag & FA__DIRTY) {
  804e58:	e0bfff17 	ldw	r2,-4(fp)
  804e5c:	10800183 	ldbu	r2,6(r2)
  804e60:	10803fcc 	andi	r2,r2,255
  804e64:	1080100c 	andi	r2,r2,64
  804e68:	10001626 	beq	r2,zero,804ec4 <f_sync+0xc0>
            if (disk_write(fp->fs->drv, fp->buf, fp->dsect, 1) != RES_OK)
  804e6c:	e0bfff17 	ldw	r2,-4(fp)
  804e70:	10800017 	ldw	r2,0(r2)
  804e74:	10800043 	ldbu	r2,1(r2)
  804e78:	11003fcc 	andi	r4,r2,255
  804e7c:	e0bfff17 	ldw	r2,-4(fp)
  804e80:	10c00904 	addi	r3,r2,36
  804e84:	e0bfff17 	ldw	r2,-4(fp)
  804e88:	10800617 	ldw	r2,24(r2)
  804e8c:	180b883a 	mov	r5,r3
  804e90:	100d883a 	mov	r6,r2
  804e94:	01c00044 	movi	r7,1
  804e98:	0800f080 	call	800f08 <ffs_DiskIOWrite>
  804e9c:	10000226 	beq	r2,zero,804ea8 <f_sync+0xa4>
               LEAVE_FF(fp->fs, FR_DISK_ERR);
  804ea0:	00800044 	movi	r2,1
  804ea4:	00007406 	br	805078 <f_sync+0x274>
            fp->flag &= ~FA__DIRTY;
  804ea8:	e0bfff17 	ldw	r2,-4(fp)
  804eac:	10c00183 	ldbu	r3,6(r2)
  804eb0:	00bfefc4 	movi	r2,-65
  804eb4:	1884703a 	and	r2,r3,r2
  804eb8:	1007883a 	mov	r3,r2
  804ebc:	e0bfff17 	ldw	r2,-4(fp)
  804ec0:	10c00185 	stb	r3,6(r2)
         }
#endif
         /* Update the directory entry */
         res = move_window(fp->fs, fp->dir_sect);
  804ec4:	e0bfff17 	ldw	r2,-4(fp)
  804ec8:	10c00017 	ldw	r3,0(r2)
  804ecc:	e0bfff17 	ldw	r2,-4(fp)
  804ed0:	10800717 	ldw	r2,28(r2)
  804ed4:	1809883a 	mov	r4,r3
  804ed8:	100b883a 	mov	r5,r2
  804edc:	08017140 	call	801714 <move_window>
  804ee0:	e0bffc15 	stw	r2,-16(fp)
         if (res == FR_OK) {
  804ee4:	e0bffc17 	ldw	r2,-16(fp)
  804ee8:	1000621e 	bne	r2,zero,805074 <f_sync+0x270>
            dir = fp->dir_ptr;
  804eec:	e0bfff17 	ldw	r2,-4(fp)
  804ef0:	10800817 	ldw	r2,32(r2)
  804ef4:	e0bffd15 	stw	r2,-12(fp)
            dir[DIR_Attr] |= AM_ARC;               /* Set archive bit */
  804ef8:	e0bffd17 	ldw	r2,-12(fp)
  804efc:	108002c4 	addi	r2,r2,11
  804f00:	e0fffd17 	ldw	r3,-12(fp)
  804f04:	18c002c4 	addi	r3,r3,11
  804f08:	18c00003 	ldbu	r3,0(r3)
  804f0c:	18c00814 	ori	r3,r3,32
  804f10:	10c00005 	stb	r3,0(r2)
            ST_DWORD(dir+DIR_FileSize, fp->fsize);    /* Update file size */
  804f14:	e0bffd17 	ldw	r2,-12(fp)
  804f18:	10800704 	addi	r2,r2,28
  804f1c:	e0ffff17 	ldw	r3,-4(fp)
  804f20:	18c00317 	ldw	r3,12(r3)
  804f24:	10c00005 	stb	r3,0(r2)
  804f28:	e0bffd17 	ldw	r2,-12(fp)
  804f2c:	10800744 	addi	r2,r2,29
  804f30:	e0ffff17 	ldw	r3,-4(fp)
  804f34:	18c00317 	ldw	r3,12(r3)
  804f38:	18ffffcc 	andi	r3,r3,65535
  804f3c:	1806d23a 	srli	r3,r3,8
  804f40:	10c00005 	stb	r3,0(r2)
  804f44:	e0bffd17 	ldw	r2,-12(fp)
  804f48:	10800784 	addi	r2,r2,30
  804f4c:	e0ffff17 	ldw	r3,-4(fp)
  804f50:	18c00317 	ldw	r3,12(r3)
  804f54:	1806d43a 	srli	r3,r3,16
  804f58:	10c00005 	stb	r3,0(r2)
  804f5c:	e0bffd17 	ldw	r2,-12(fp)
  804f60:	108007c4 	addi	r2,r2,31
  804f64:	e0ffff17 	ldw	r3,-4(fp)
  804f68:	18c00317 	ldw	r3,12(r3)
  804f6c:	1806d63a 	srli	r3,r3,24
  804f70:	10c00005 	stb	r3,0(r2)
            ST_CLUST(dir, fp->sclust);             /* Update start cluster */
  804f74:	e0bffd17 	ldw	r2,-12(fp)
  804f78:	10800684 	addi	r2,r2,26
  804f7c:	e0ffff17 	ldw	r3,-4(fp)
  804f80:	18c00417 	ldw	r3,16(r3)
  804f84:	10c00005 	stb	r3,0(r2)
  804f88:	e0bffd17 	ldw	r2,-12(fp)
  804f8c:	108006c4 	addi	r2,r2,27
  804f90:	e0ffff17 	ldw	r3,-4(fp)
  804f94:	18c00417 	ldw	r3,16(r3)
  804f98:	18ffffcc 	andi	r3,r3,65535
  804f9c:	1806d23a 	srli	r3,r3,8
  804fa0:	10c00005 	stb	r3,0(r2)
  804fa4:	e0bffd17 	ldw	r2,-12(fp)
  804fa8:	10800504 	addi	r2,r2,20
  804fac:	e0ffff17 	ldw	r3,-4(fp)
  804fb0:	18c00417 	ldw	r3,16(r3)
  804fb4:	1806d43a 	srli	r3,r3,16
  804fb8:	10c00005 	stb	r3,0(r2)
  804fbc:	e0bffd17 	ldw	r2,-12(fp)
  804fc0:	10800544 	addi	r2,r2,21
  804fc4:	e0ffff17 	ldw	r3,-4(fp)
  804fc8:	18c00417 	ldw	r3,16(r3)
  804fcc:	1806d43a 	srli	r3,r3,16
  804fd0:	18ffffcc 	andi	r3,r3,65535
  804fd4:	1806d23a 	srli	r3,r3,8
  804fd8:	10c00005 	stb	r3,0(r2)
            tim = get_fattime();                /* Update updated time */
  804fdc:	080151c0 	call	80151c <get_fattime>
  804fe0:	e0bffe15 	stw	r2,-8(fp)
            ST_DWORD(dir+DIR_WrtTime, tim);
  804fe4:	e0bffd17 	ldw	r2,-12(fp)
  804fe8:	10800584 	addi	r2,r2,22
  804fec:	e0fffe17 	ldw	r3,-8(fp)
  804ff0:	10c00005 	stb	r3,0(r2)
  804ff4:	e0bffd17 	ldw	r2,-12(fp)
  804ff8:	108005c4 	addi	r2,r2,23
  804ffc:	e0fffe17 	ldw	r3,-8(fp)
  805000:	18ffffcc 	andi	r3,r3,65535
  805004:	1806d23a 	srli	r3,r3,8
  805008:	10c00005 	stb	r3,0(r2)
  80500c:	e0bffd17 	ldw	r2,-12(fp)
  805010:	10800604 	addi	r2,r2,24
  805014:	e0fffe17 	ldw	r3,-8(fp)
  805018:	1806d43a 	srli	r3,r3,16
  80501c:	10c00005 	stb	r3,0(r2)
  805020:	e0bffd17 	ldw	r2,-12(fp)
  805024:	10800644 	addi	r2,r2,25
  805028:	e0fffe17 	ldw	r3,-8(fp)
  80502c:	1806d63a 	srli	r3,r3,24
  805030:	10c00005 	stb	r3,0(r2)
            fp->flag &= ~FA__WRITTEN;
  805034:	e0bfff17 	ldw	r2,-4(fp)
  805038:	10c00183 	ldbu	r3,6(r2)
  80503c:	00bff7c4 	movi	r2,-33
  805040:	1884703a 	and	r2,r3,r2
  805044:	1007883a 	mov	r3,r2
  805048:	e0bfff17 	ldw	r2,-4(fp)
  80504c:	10c00185 	stb	r3,6(r2)
            fp->fs->wflag = 1;
  805050:	e0bfff17 	ldw	r2,-4(fp)
  805054:	10800017 	ldw	r2,0(r2)
  805058:	00c00044 	movi	r3,1
  80505c:	10c00105 	stb	r3,4(r2)
            res = sync(fp->fs);
  805060:	e0bfff17 	ldw	r2,-4(fp)
  805064:	10800017 	ldw	r2,0(r2)
  805068:	1009883a 	mov	r4,r2
  80506c:	08018700 	call	801870 <sync>
  805070:	e0bffc15 	stw	r2,-16(fp)
         }
      }
   }

   LEAVE_FF(fp->fs, res);
  805074:	e0bffc17 	ldw	r2,-16(fp)
}
  805078:	e037883a 	mov	sp,fp
  80507c:	dfc00117 	ldw	ra,4(sp)
  805080:	df000017 	ldw	fp,0(sp)
  805084:	dec00204 	addi	sp,sp,8
  805088:	f800283a 	ret

0080508c <f_close>:
/*-----------------------------------------------------------------------*/

FRESULT f_close (
   FIL *fp     /* Pointer to the file object to be closed */
)
{
  80508c:	defffc04 	addi	sp,sp,-16
  805090:	dfc00315 	stw	ra,12(sp)
  805094:	df000215 	stw	fp,8(sp)
  805098:	df000204 	addi	fp,sp,8
  80509c:	e13fff15 	stw	r4,-4(fp)
   res = validate(fs, fp->id);
   if (res == FR_OK) fp->fs = 0; /* Discard file object */
   LEAVE_FF(fs, res);

#else
   res = f_sync(fp);    /* Flush cached data */
  8050a0:	e13fff17 	ldw	r4,-4(fp)
  8050a4:	0804e040 	call	804e04 <f_sync>
  8050a8:	e0bffe15 	stw	r2,-8(fp)
#else
      res = dec_lock(fp->lockid);
#endif
   }
#endif
   if (res == FR_OK) fp->fs = 0; /* Discard file object */
  8050ac:	e0bffe17 	ldw	r2,-8(fp)
  8050b0:	1000021e 	bne	r2,zero,8050bc <f_close+0x30>
  8050b4:	e0bfff17 	ldw	r2,-4(fp)
  8050b8:	10000015 	stw	zero,0(r2)
   return res;
  8050bc:	e0bffe17 	ldw	r2,-8(fp)
#endif
}
  8050c0:	e037883a 	mov	sp,fp
  8050c4:	dfc00117 	ldw	ra,4(sp)
  8050c8:	df000017 	ldw	fp,0(sp)
  8050cc:	dec00204 	addi	sp,sp,8
  8050d0:	f800283a 	ret

008050d4 <f_lseek>:

FRESULT f_lseek (
   FIL *fp,          /* Pointer to the file object */
   uint32_t ofs      /* File pointer from top of file */
)
{
  8050d4:	defff604 	addi	sp,sp,-40
  8050d8:	dfc00915 	stw	ra,36(sp)
  8050dc:	df000815 	stw	fp,32(sp)
  8050e0:	dc000715 	stw	r16,28(sp)
  8050e4:	df000804 	addi	fp,sp,32
  8050e8:	e13ffd15 	stw	r4,-12(fp)
  8050ec:	e17ffe15 	stw	r5,-8(fp)
   FRESULT res;


   res = validate(fp->fs, fp->id);     /* Check validity of the object */
  8050f0:	e0bffd17 	ldw	r2,-12(fp)
  8050f4:	10c00017 	ldw	r3,0(r2)
  8050f8:	e0bffd17 	ldw	r2,-12(fp)
  8050fc:	1080010b 	ldhu	r2,4(r2)
  805100:	10bfffcc 	andi	r2,r2,65535
  805104:	1809883a 	mov	r4,r3
  805108:	100b883a 	mov	r5,r2
  80510c:	0803dfc0 	call	803dfc <validate>
  805110:	e0bffa15 	stw	r2,-24(fp)
   if (res != FR_OK) LEAVE_FF(fp->fs, res);
  805114:	e0bffa17 	ldw	r2,-24(fp)
  805118:	10000226 	beq	r2,zero,805124 <f_lseek+0x50>
  80511c:	e0bffa17 	ldw	r2,-24(fp)
  805120:	00012106 	br	8055a8 <f_lseek+0x4d4>
   if (fp->flag & FA__ERROR)        /* Check abort flag */
  805124:	e0bffd17 	ldw	r2,-12(fp)
  805128:	10800183 	ldbu	r2,6(r2)
  80512c:	10803fcc 	andi	r2,r2,255
  805130:	1080201c 	xori	r2,r2,128
  805134:	10bfe004 	addi	r2,r2,-128
  805138:	1000020e 	bge	r2,zero,805144 <f_lseek+0x70>
      LEAVE_FF(fp->fs, FR_INT_ERR);
  80513c:	00800084 	movi	r2,2
  805140:	00011906 	br	8055a8 <f_lseek+0x4d4>

   /* Normal Seek */
   {
      uint32_t clst, bcs, nsect, ifptr;

      if (ofs > fp->fsize              /* In read-only mode, clip offset with the file size */
  805144:	e0bffd17 	ldw	r2,-12(fp)
  805148:	10c00317 	ldw	r3,12(r2)
  80514c:	e0bffe17 	ldw	r2,-8(fp)
  805150:	1880082e 	bgeu	r3,r2,805174 <f_lseek+0xa0>
#if !_FS_READONLY
          && !(fp->flag & FA_WRITE)
  805154:	e0bffd17 	ldw	r2,-12(fp)
  805158:	10800183 	ldbu	r2,6(r2)
  80515c:	10803fcc 	andi	r2,r2,255
  805160:	1080008c 	andi	r2,r2,2
  805164:	1000031e 	bne	r2,zero,805174 <f_lseek+0xa0>
#endif
         ) ofs = fp->fsize;
  805168:	e0bffd17 	ldw	r2,-12(fp)
  80516c:	10800317 	ldw	r2,12(r2)
  805170:	e0bffe15 	stw	r2,-8(fp)

      ifptr = fp->fptr;
  805174:	e0bffd17 	ldw	r2,-12(fp)
  805178:	10800217 	ldw	r2,8(r2)
  80517c:	e0bffb15 	stw	r2,-20(fp)
      fp->fptr = nsect = 0;
  805180:	e03ff915 	stw	zero,-28(fp)
  805184:	e0bffd17 	ldw	r2,-12(fp)
  805188:	e0fff917 	ldw	r3,-28(fp)
  80518c:	10c00215 	stw	r3,8(r2)
      if (ofs) {
  805190:	e0bffe17 	ldw	r2,-8(fp)
  805194:	1000b226 	beq	r2,zero,805460 <f_lseek+0x38c>
         bcs = (uint32_t)fp->fs->csize * SS(fp->fs);  /* Cluster size (byte) */
  805198:	e0bffd17 	ldw	r2,-12(fp)
  80519c:	10800017 	ldw	r2,0(r2)
  8051a0:	10800083 	ldbu	r2,2(r2)
  8051a4:	10803fcc 	andi	r2,r2,255
  8051a8:	1004927a 	slli	r2,r2,9
  8051ac:	e0bffc15 	stw	r2,-16(fp)
         if (ifptr > 0 &&
  8051b0:	e0bffb17 	ldw	r2,-20(fp)
  8051b4:	10001c26 	beq	r2,zero,805228 <f_lseek+0x154>
            (ofs - 1) / bcs >= (ifptr - 1) / bcs) {   /* When seek to same or following cluster, */
  8051b8:	e0bffe17 	ldw	r2,-8(fp)
  8051bc:	10bfffc4 	addi	r2,r2,-1
  8051c0:	1009883a 	mov	r4,r2
  8051c4:	e17ffc17 	ldw	r5,-16(fp)
  8051c8:	080a0e40 	call	80a0e4 <__udivsi3>
  8051cc:	1021883a 	mov	r16,r2
  8051d0:	e0bffb17 	ldw	r2,-20(fp)
  8051d4:	10bfffc4 	addi	r2,r2,-1
  8051d8:	1009883a 	mov	r4,r2
  8051dc:	e17ffc17 	ldw	r5,-16(fp)
  8051e0:	080a0e40 	call	80a0e4 <__udivsi3>

      ifptr = fp->fptr;
      fp->fptr = nsect = 0;
      if (ofs) {
         bcs = (uint32_t)fp->fs->csize * SS(fp->fs);  /* Cluster size (byte) */
         if (ifptr > 0 &&
  8051e4:	80801036 	bltu	r16,r2,805228 <f_lseek+0x154>
            (ofs - 1) / bcs >= (ifptr - 1) / bcs) {   /* When seek to same or following cluster, */
            fp->fptr = (ifptr - 1) & ~(bcs - 1);   /* start from the current cluster */
  8051e8:	e0bffb17 	ldw	r2,-20(fp)
  8051ec:	10ffffc4 	addi	r3,r2,-1
  8051f0:	e0bffc17 	ldw	r2,-16(fp)
  8051f4:	0085c83a 	sub	r2,zero,r2
  8051f8:	1886703a 	and	r3,r3,r2
  8051fc:	e0bffd17 	ldw	r2,-12(fp)
  805200:	10c00215 	stw	r3,8(r2)
            ofs -= fp->fptr;
  805204:	e0bffd17 	ldw	r2,-12(fp)
  805208:	10800217 	ldw	r2,8(r2)
  80520c:	e0fffe17 	ldw	r3,-8(fp)
  805210:	1885c83a 	sub	r2,r3,r2
  805214:	e0bffe15 	stw	r2,-8(fp)
            clst = fp->clust;
  805218:	e0bffd17 	ldw	r2,-12(fp)
  80521c:	10800517 	ldw	r2,20(r2)
  805220:	e0bff815 	stw	r2,-32(fp)
  805224:	00002906 	br	8052cc <f_lseek+0x1f8>
         } else {                         /* When seek to back cluster, */
            clst = fp->sclust;                  /* start from the first cluster */
  805228:	e0bffd17 	ldw	r2,-12(fp)
  80522c:	10800417 	ldw	r2,16(r2)
  805230:	e0bff815 	stw	r2,-32(fp)
#if !_FS_READONLY
            if (clst == 0) {                 /* If no cluster chain, create a new chain */
  805234:	e0bff817 	ldw	r2,-32(fp)
  805238:	1000211e 	bne	r2,zero,8052c0 <f_lseek+0x1ec>
               clst = create_chain(fp->fs, 0);
  80523c:	e0bffd17 	ldw	r2,-12(fp)
  805240:	10800017 	ldw	r2,0(r2)
  805244:	1009883a 	mov	r4,r2
  805248:	000b883a 	mov	r5,zero
  80524c:	08022000 	call	802200 <create_chain>
  805250:	e0bff815 	stw	r2,-32(fp)
               if (clst == 1) ABORT(fp->fs, FR_INT_ERR);
  805254:	e0bff817 	ldw	r2,-32(fp)
  805258:	10800058 	cmpnei	r2,r2,1
  80525c:	1000091e 	bne	r2,zero,805284 <f_lseek+0x1b0>
  805260:	e0bffd17 	ldw	r2,-12(fp)
  805264:	10c00183 	ldbu	r3,6(r2)
  805268:	00bfe004 	movi	r2,-128
  80526c:	1884b03a 	or	r2,r3,r2
  805270:	1007883a 	mov	r3,r2
  805274:	e0bffd17 	ldw	r2,-12(fp)
  805278:	10c00185 	stb	r3,6(r2)
  80527c:	00800084 	movi	r2,2
  805280:	0000c906 	br	8055a8 <f_lseek+0x4d4>
               if (clst == 0xFFFFFFFF) ABORT(fp->fs, FR_DISK_ERR);
  805284:	e0bff817 	ldw	r2,-32(fp)
  805288:	10bfffd8 	cmpnei	r2,r2,-1
  80528c:	1000091e 	bne	r2,zero,8052b4 <f_lseek+0x1e0>
  805290:	e0bffd17 	ldw	r2,-12(fp)
  805294:	10c00183 	ldbu	r3,6(r2)
  805298:	00bfe004 	movi	r2,-128
  80529c:	1884b03a 	or	r2,r3,r2
  8052a0:	1007883a 	mov	r3,r2
  8052a4:	e0bffd17 	ldw	r2,-12(fp)
  8052a8:	10c00185 	stb	r3,6(r2)
  8052ac:	00800044 	movi	r2,1
  8052b0:	0000bd06 	br	8055a8 <f_lseek+0x4d4>
               fp->sclust = clst;
  8052b4:	e0bffd17 	ldw	r2,-12(fp)
  8052b8:	e0fff817 	ldw	r3,-32(fp)
  8052bc:	10c00415 	stw	r3,16(r2)
            }
#endif
            fp->clust = clst;
  8052c0:	e0bffd17 	ldw	r2,-12(fp)
  8052c4:	e0fff817 	ldw	r3,-32(fp)
  8052c8:	10c00515 	stw	r3,20(r2)
         }
         if (clst != 0) {
  8052cc:	e0bff817 	ldw	r2,-32(fp)
  8052d0:	10006326 	beq	r2,zero,805460 <f_lseek+0x38c>
            while (ofs > bcs) {                 /* Cluster following loop */
  8052d4:	00004006 	br	8053d8 <f_lseek+0x304>
#if !_FS_READONLY
               if (fp->flag & FA_WRITE) {       /* Check if in write mode or not */
  8052d8:	e0bffd17 	ldw	r2,-12(fp)
  8052dc:	10800183 	ldbu	r2,6(r2)
  8052e0:	10803fcc 	andi	r2,r2,255
  8052e4:	1080008c 	andi	r2,r2,2
  8052e8:	10000b26 	beq	r2,zero,805318 <f_lseek+0x244>
                  clst = create_chain(fp->fs, clst);  /* Force stretch if in write mode */
  8052ec:	e0bffd17 	ldw	r2,-12(fp)
  8052f0:	10800017 	ldw	r2,0(r2)
  8052f4:	1009883a 	mov	r4,r2
  8052f8:	e17ff817 	ldw	r5,-32(fp)
  8052fc:	08022000 	call	802200 <create_chain>
  805300:	e0bff815 	stw	r2,-32(fp)
                  if (clst == 0) {           /* When disk gets full, clip file size */
  805304:	e0bff817 	ldw	r2,-32(fp)
  805308:	1000091e 	bne	r2,zero,805330 <f_lseek+0x25c>
                     ofs = bcs; break;
  80530c:	e0bffc17 	ldw	r2,-16(fp)
  805310:	e0bffe15 	stw	r2,-8(fp)
  805314:	00003306 	br	8053e4 <f_lseek+0x310>
                  }
               } else
#endif
                  clst = get_fat(fp->fs, clst); /* Follow cluster chain if not in write mode */
  805318:	e0bffd17 	ldw	r2,-12(fp)
  80531c:	10800017 	ldw	r2,0(r2)
  805320:	1009883a 	mov	r4,r2
  805324:	e17ff817 	ldw	r5,-32(fp)
  805328:	0801af80 	call	801af8 <get_fat>
  80532c:	e0bff815 	stw	r2,-32(fp)
               if (clst == 0xFFFFFFFF) ABORT(fp->fs, FR_DISK_ERR);
  805330:	e0bff817 	ldw	r2,-32(fp)
  805334:	10bfffd8 	cmpnei	r2,r2,-1
  805338:	1000091e 	bne	r2,zero,805360 <f_lseek+0x28c>
  80533c:	e0bffd17 	ldw	r2,-12(fp)
  805340:	10c00183 	ldbu	r3,6(r2)
  805344:	00bfe004 	movi	r2,-128
  805348:	1884b03a 	or	r2,r3,r2
  80534c:	1007883a 	mov	r3,r2
  805350:	e0bffd17 	ldw	r2,-12(fp)
  805354:	10c00185 	stb	r3,6(r2)
  805358:	00800044 	movi	r2,1
  80535c:	00009206 	br	8055a8 <f_lseek+0x4d4>
               if (clst <= 1 || clst >= fp->fs->n_fatent) ABORT(fp->fs, FR_INT_ERR);
  805360:	e0bff817 	ldw	r2,-32(fp)
  805364:	108000b0 	cmpltui	r2,r2,2
  805368:	1000051e 	bne	r2,zero,805380 <f_lseek+0x2ac>
  80536c:	e0bffd17 	ldw	r2,-12(fp)
  805370:	10800017 	ldw	r2,0(r2)
  805374:	10800617 	ldw	r2,24(r2)
  805378:	e0fff817 	ldw	r3,-32(fp)
  80537c:	18800936 	bltu	r3,r2,8053a4 <f_lseek+0x2d0>
  805380:	e0bffd17 	ldw	r2,-12(fp)
  805384:	10c00183 	ldbu	r3,6(r2)
  805388:	00bfe004 	movi	r2,-128
  80538c:	1884b03a 	or	r2,r3,r2
  805390:	1007883a 	mov	r3,r2
  805394:	e0bffd17 	ldw	r2,-12(fp)
  805398:	10c00185 	stb	r3,6(r2)
  80539c:	00800084 	movi	r2,2
  8053a0:	00008106 	br	8055a8 <f_lseek+0x4d4>
               fp->clust = clst;
  8053a4:	e0bffd17 	ldw	r2,-12(fp)
  8053a8:	e0fff817 	ldw	r3,-32(fp)
  8053ac:	10c00515 	stw	r3,20(r2)
               fp->fptr += bcs;
  8053b0:	e0bffd17 	ldw	r2,-12(fp)
  8053b4:	10c00217 	ldw	r3,8(r2)
  8053b8:	e0bffc17 	ldw	r2,-16(fp)
  8053bc:	1887883a 	add	r3,r3,r2
  8053c0:	e0bffd17 	ldw	r2,-12(fp)
  8053c4:	10c00215 	stw	r3,8(r2)
               ofs -= bcs;
  8053c8:	e0fffe17 	ldw	r3,-8(fp)
  8053cc:	e0bffc17 	ldw	r2,-16(fp)
  8053d0:	1885c83a 	sub	r2,r3,r2
  8053d4:	e0bffe15 	stw	r2,-8(fp)
            }
#endif
            fp->clust = clst;
         }
         if (clst != 0) {
            while (ofs > bcs) {                 /* Cluster following loop */
  8053d8:	e0bffe17 	ldw	r2,-8(fp)
  8053dc:	e0fffc17 	ldw	r3,-16(fp)
  8053e0:	18bfbd36 	bltu	r3,r2,8052d8 <__alt_data_end+0xff8052d8>
               if (clst <= 1 || clst >= fp->fs->n_fatent) ABORT(fp->fs, FR_INT_ERR);
               fp->clust = clst;
               fp->fptr += bcs;
               ofs -= bcs;
            }
            fp->fptr += ofs;
  8053e4:	e0bffd17 	ldw	r2,-12(fp)
  8053e8:	10c00217 	ldw	r3,8(r2)
  8053ec:	e0bffe17 	ldw	r2,-8(fp)
  8053f0:	1887883a 	add	r3,r3,r2
  8053f4:	e0bffd17 	ldw	r2,-12(fp)
  8053f8:	10c00215 	stw	r3,8(r2)
            if (ofs % SS(fp->fs)) {
  8053fc:	e0bffe17 	ldw	r2,-8(fp)
  805400:	10807fcc 	andi	r2,r2,511
  805404:	10001626 	beq	r2,zero,805460 <f_lseek+0x38c>
               nsect = clust2sect(fp->fs, clst);   /* Current sector */
  805408:	e0bffd17 	ldw	r2,-12(fp)
  80540c:	10800017 	ldw	r2,0(r2)
  805410:	1009883a 	mov	r4,r2
  805414:	e17ff817 	ldw	r5,-32(fp)
  805418:	0801a8c0 	call	801a8c <clust2sect>
  80541c:	e0bff915 	stw	r2,-28(fp)
               if (!nsect) ABORT(fp->fs, FR_INT_ERR);
  805420:	e0bff917 	ldw	r2,-28(fp)
  805424:	1000091e 	bne	r2,zero,80544c <f_lseek+0x378>
  805428:	e0bffd17 	ldw	r2,-12(fp)
  80542c:	10c00183 	ldbu	r3,6(r2)
  805430:	00bfe004 	movi	r2,-128
  805434:	1884b03a 	or	r2,r3,r2
  805438:	1007883a 	mov	r3,r2
  80543c:	e0bffd17 	ldw	r2,-12(fp)
  805440:	10c00185 	stb	r3,6(r2)
  805444:	00800084 	movi	r2,2
  805448:	00005706 	br	8055a8 <f_lseek+0x4d4>
               nsect += ofs / SS(fp->fs);
  80544c:	e0bffe17 	ldw	r2,-8(fp)
  805450:	1004d27a 	srli	r2,r2,9
  805454:	e0fff917 	ldw	r3,-28(fp)
  805458:	1885883a 	add	r2,r3,r2
  80545c:	e0bff915 	stw	r2,-28(fp)
            }
         }
      }
      if (fp->fptr % SS(fp->fs) && nsect != fp->dsect) { /* Fill sector cache if needed */
  805460:	e0bffd17 	ldw	r2,-12(fp)
  805464:	10800217 	ldw	r2,8(r2)
  805468:	10807fcc 	andi	r2,r2,511
  80546c:	10003e26 	beq	r2,zero,805568 <f_lseek+0x494>
  805470:	e0bffd17 	ldw	r2,-12(fp)
  805474:	10c00617 	ldw	r3,24(r2)
  805478:	e0bff917 	ldw	r2,-28(fp)
  80547c:	18803a26 	beq	r3,r2,805568 <f_lseek+0x494>
#if !_FS_TINY
#if !_FS_READONLY
         if (fp->flag & FA__DIRTY) {         /* Write-back dirty sector cache */
  805480:	e0bffd17 	ldw	r2,-12(fp)
  805484:	10800183 	ldbu	r2,6(r2)
  805488:	10803fcc 	andi	r2,r2,255
  80548c:	1080100c 	andi	r2,r2,64
  805490:	10001d26 	beq	r2,zero,805508 <f_lseek+0x434>
            if (disk_write(fp->fs->drv, fp->buf, fp->dsect, 1) != RES_OK)
  805494:	e0bffd17 	ldw	r2,-12(fp)
  805498:	10800017 	ldw	r2,0(r2)
  80549c:	10800043 	ldbu	r2,1(r2)
  8054a0:	11003fcc 	andi	r4,r2,255
  8054a4:	e0bffd17 	ldw	r2,-12(fp)
  8054a8:	10c00904 	addi	r3,r2,36
  8054ac:	e0bffd17 	ldw	r2,-12(fp)
  8054b0:	10800617 	ldw	r2,24(r2)
  8054b4:	180b883a 	mov	r5,r3
  8054b8:	100d883a 	mov	r6,r2
  8054bc:	01c00044 	movi	r7,1
  8054c0:	0800f080 	call	800f08 <ffs_DiskIOWrite>
  8054c4:	10000926 	beq	r2,zero,8054ec <f_lseek+0x418>
               ABORT(fp->fs, FR_DISK_ERR);
  8054c8:	e0bffd17 	ldw	r2,-12(fp)
  8054cc:	10c00183 	ldbu	r3,6(r2)
  8054d0:	00bfe004 	movi	r2,-128
  8054d4:	1884b03a 	or	r2,r3,r2
  8054d8:	1007883a 	mov	r3,r2
  8054dc:	e0bffd17 	ldw	r2,-12(fp)
  8054e0:	10c00185 	stb	r3,6(r2)
  8054e4:	00800044 	movi	r2,1
  8054e8:	00002f06 	br	8055a8 <f_lseek+0x4d4>
            fp->flag &= ~FA__DIRTY;
  8054ec:	e0bffd17 	ldw	r2,-12(fp)
  8054f0:	10c00183 	ldbu	r3,6(r2)
  8054f4:	00bfefc4 	movi	r2,-65
  8054f8:	1884703a 	and	r2,r3,r2
  8054fc:	1007883a 	mov	r3,r2
  805500:	e0bffd17 	ldw	r2,-12(fp)
  805504:	10c00185 	stb	r3,6(r2)
         }
#endif
         if (disk_read(fp->fs->drv, fp->buf, nsect, 1) != RES_OK) /* Fill sector cache */
  805508:	e0bffd17 	ldw	r2,-12(fp)
  80550c:	10800017 	ldw	r2,0(r2)
  805510:	10800043 	ldbu	r2,1(r2)
  805514:	10c03fcc 	andi	r3,r2,255
  805518:	e0bffd17 	ldw	r2,-12(fp)
  80551c:	10800904 	addi	r2,r2,36
  805520:	1809883a 	mov	r4,r3
  805524:	100b883a 	mov	r5,r2
  805528:	e1bff917 	ldw	r6,-28(fp)
  80552c:	01c00044 	movi	r7,1
  805530:	0800dec0 	call	800dec <ffs_DiskIORead>
  805534:	10000926 	beq	r2,zero,80555c <f_lseek+0x488>
            ABORT(fp->fs, FR_DISK_ERR);
  805538:	e0bffd17 	ldw	r2,-12(fp)
  80553c:	10c00183 	ldbu	r3,6(r2)
  805540:	00bfe004 	movi	r2,-128
  805544:	1884b03a 	or	r2,r3,r2
  805548:	1007883a 	mov	r3,r2
  80554c:	e0bffd17 	ldw	r2,-12(fp)
  805550:	10c00185 	stb	r3,6(r2)
  805554:	00800044 	movi	r2,1
  805558:	00001306 	br	8055a8 <f_lseek+0x4d4>
#endif
         fp->dsect = nsect;
  80555c:	e0bffd17 	ldw	r2,-12(fp)
  805560:	e0fff917 	ldw	r3,-28(fp)
  805564:	10c00615 	stw	r3,24(r2)
      }
#if !_FS_READONLY
      if (fp->fptr > fp->fsize) {         /* Set file change flag if the file size is extended */
  805568:	e0bffd17 	ldw	r2,-12(fp)
  80556c:	10800217 	ldw	r2,8(r2)
  805570:	e0fffd17 	ldw	r3,-12(fp)
  805574:	18c00317 	ldw	r3,12(r3)
  805578:	18800a2e 	bgeu	r3,r2,8055a4 <f_lseek+0x4d0>
         fp->fsize = fp->fptr;
  80557c:	e0bffd17 	ldw	r2,-12(fp)
  805580:	10c00217 	ldw	r3,8(r2)
  805584:	e0bffd17 	ldw	r2,-12(fp)
  805588:	10c00315 	stw	r3,12(r2)
         fp->flag |= FA__WRITTEN;
  80558c:	e0bffd17 	ldw	r2,-12(fp)
  805590:	10800183 	ldbu	r2,6(r2)
  805594:	10800814 	ori	r2,r2,32
  805598:	1007883a 	mov	r3,r2
  80559c:	e0bffd17 	ldw	r2,-12(fp)
  8055a0:	10c00185 	stb	r3,6(r2)
      }
#endif
   }

   LEAVE_FF(fp->fs, res);
  8055a4:	e0bffa17 	ldw	r2,-24(fp)
}
  8055a8:	e6ffff04 	addi	sp,fp,-4
  8055ac:	dfc00217 	ldw	ra,8(sp)
  8055b0:	df000117 	ldw	fp,4(sp)
  8055b4:	dc000017 	ldw	r16,0(sp)
  8055b8:	dec00304 	addi	sp,sp,12
  8055bc:	f800283a 	ret

008055c0 <f_opendir>:

FRESULT f_opendir (
   DIR *dj,       /* Pointer to directory object to create */
   const TCHAR *path /* Pointer to the directory path */
)
{
  8055c0:	defff804 	addi	sp,sp,-32
  8055c4:	dfc00715 	stw	ra,28(sp)
  8055c8:	df000615 	stw	fp,24(sp)
  8055cc:	df000604 	addi	fp,sp,24
  8055d0:	e13ffe15 	stw	r4,-8(fp)
  8055d4:	e17fff15 	stw	r5,-4(fp)
   FRESULT res;
   DEF_NAMEBUF;


   res = chk_mounted(&path, &dj->fs, 0);
  8055d8:	e0bffe17 	ldw	r2,-8(fp)
  8055dc:	e0ffff04 	addi	r3,fp,-4
  8055e0:	1809883a 	mov	r4,r3
  8055e4:	100b883a 	mov	r5,r2
  8055e8:	000d883a 	mov	r6,zero
  8055ec:	08034c00 	call	8034c0 <chk_mounted>
  8055f0:	e0bffa15 	stw	r2,-24(fp)
   if (res == FR_OK) {
  8055f4:	e0bffa17 	ldw	r2,-24(fp)
  8055f8:	1000471e 	bne	r2,zero,805718 <f_opendir+0x158>

      INIT_BUF(*dj);
  8055fc:	e0bffe17 	ldw	r2,-8(fp)
  805600:	e0fffb04 	addi	r3,fp,-20
  805604:	10c00615 	stw	r3,24(r2)
      res = follow_path(dj, path);        /* Follow the path to the directory */
  805608:	e0bfff17 	ldw	r2,-4(fp)
  80560c:	e13ffe17 	ldw	r4,-8(fp)
  805610:	100b883a 	mov	r5,r2
  805614:	080317c0 	call	80317c <follow_path>
  805618:	e0bffa15 	stw	r2,-24(fp)
      FREE_BUF();
      if (res == FR_OK) {                 /* Follow completed */
  80561c:	e0bffa17 	ldw	r2,-24(fp)
  805620:	1000381e 	bne	r2,zero,805704 <f_opendir+0x144>
         if (dj->dir) {                /* It is not the root dir */
  805624:	e0bffe17 	ldw	r2,-8(fp)
  805628:	10800517 	ldw	r2,20(r2)
  80562c:	10002a26 	beq	r2,zero,8056d8 <f_opendir+0x118>
            if (dj->dir[DIR_Attr] & AM_DIR) {   /* The object is a directory */
  805630:	e0bffe17 	ldw	r2,-8(fp)
  805634:	10800517 	ldw	r2,20(r2)
  805638:	108002c4 	addi	r2,r2,11
  80563c:	10800003 	ldbu	r2,0(r2)
  805640:	10803fcc 	andi	r2,r2,255
  805644:	1080040c 	andi	r2,r2,16
  805648:	10002126 	beq	r2,zero,8056d0 <f_opendir+0x110>
               dj->sclust = LD_CLUST(dj->dir);
  80564c:	e0bffe17 	ldw	r2,-8(fp)
  805650:	10800517 	ldw	r2,20(r2)
  805654:	10800544 	addi	r2,r2,21
  805658:	10800003 	ldbu	r2,0(r2)
  80565c:	10803fcc 	andi	r2,r2,255
  805660:	1004923a 	slli	r2,r2,8
  805664:	1007883a 	mov	r3,r2
  805668:	e0bffe17 	ldw	r2,-8(fp)
  80566c:	10800517 	ldw	r2,20(r2)
  805670:	10800504 	addi	r2,r2,20
  805674:	10800003 	ldbu	r2,0(r2)
  805678:	10803fcc 	andi	r2,r2,255
  80567c:	1884b03a 	or	r2,r3,r2
  805680:	10bfffcc 	andi	r2,r2,65535
  805684:	1006943a 	slli	r3,r2,16
  805688:	e0bffe17 	ldw	r2,-8(fp)
  80568c:	10800517 	ldw	r2,20(r2)
  805690:	108006c4 	addi	r2,r2,27
  805694:	10800003 	ldbu	r2,0(r2)
  805698:	10803fcc 	andi	r2,r2,255
  80569c:	1004923a 	slli	r2,r2,8
  8056a0:	1009883a 	mov	r4,r2
  8056a4:	e0bffe17 	ldw	r2,-8(fp)
  8056a8:	10800517 	ldw	r2,20(r2)
  8056ac:	10800684 	addi	r2,r2,26
  8056b0:	10800003 	ldbu	r2,0(r2)
  8056b4:	10803fcc 	andi	r2,r2,255
  8056b8:	2084b03a 	or	r2,r4,r2
  8056bc:	10bfffcc 	andi	r2,r2,65535
  8056c0:	1886b03a 	or	r3,r3,r2
  8056c4:	e0bffe17 	ldw	r2,-8(fp)
  8056c8:	10c00215 	stw	r3,8(r2)
  8056cc:	00000206 	br	8056d8 <f_opendir+0x118>
            } else {                /* The object is not a directory */
               res = FR_NO_PATH;
  8056d0:	00800144 	movi	r2,5
  8056d4:	e0bffa15 	stw	r2,-24(fp)
            }
         }
         if (res == FR_OK) {
  8056d8:	e0bffa17 	ldw	r2,-24(fp)
  8056dc:	1000091e 	bne	r2,zero,805704 <f_opendir+0x144>
            dj->id = dj->fs->id;
  8056e0:	e0bffe17 	ldw	r2,-8(fp)
  8056e4:	10800017 	ldw	r2,0(r2)
  8056e8:	10c0018b 	ldhu	r3,6(r2)
  8056ec:	e0bffe17 	ldw	r2,-8(fp)
  8056f0:	10c0010d 	sth	r3,4(r2)
            res = dir_sdi(dj, 0);         /* Rewind dir */
  8056f4:	e13ffe17 	ldw	r4,-8(fp)
  8056f8:	000b883a 	mov	r5,zero
  8056fc:	08023e40 	call	8023e4 <dir_sdi>
  805700:	e0bffa15 	stw	r2,-24(fp)
         }
      }
      if (res == FR_NO_FILE) res = FR_NO_PATH;
  805704:	e0bffa17 	ldw	r2,-24(fp)
  805708:	10800118 	cmpnei	r2,r2,4
  80570c:	1000021e 	bne	r2,zero,805718 <f_opendir+0x158>
  805710:	00800144 	movi	r2,5
  805714:	e0bffa15 	stw	r2,-24(fp)
   }

   LEAVE_FF(dj->fs, res);
  805718:	e0bffa17 	ldw	r2,-24(fp)
}
  80571c:	e037883a 	mov	sp,fp
  805720:	dfc00117 	ldw	ra,4(sp)
  805724:	df000017 	ldw	fp,0(sp)
  805728:	dec00204 	addi	sp,sp,8
  80572c:	f800283a 	ret

00805730 <f_readdir>:

FRESULT f_readdir (
   DIR *dj,       /* Pointer to the open directory object */
   FILINFO *fno      /* Pointer to file information to return */
)
{
  805730:	defff804 	addi	sp,sp,-32
  805734:	dfc00715 	stw	ra,28(sp)
  805738:	df000615 	stw	fp,24(sp)
  80573c:	df000604 	addi	fp,sp,24
  805740:	e13ffe15 	stw	r4,-8(fp)
  805744:	e17fff15 	stw	r5,-4(fp)
   FRESULT res;
   DEF_NAMEBUF;


   res = validate(dj->fs, dj->id);        /* Check validity of the object */
  805748:	e0bffe17 	ldw	r2,-8(fp)
  80574c:	10c00017 	ldw	r3,0(r2)
  805750:	e0bffe17 	ldw	r2,-8(fp)
  805754:	1080010b 	ldhu	r2,4(r2)
  805758:	10bfffcc 	andi	r2,r2,65535
  80575c:	1809883a 	mov	r4,r3
  805760:	100b883a 	mov	r5,r2
  805764:	0803dfc0 	call	803dfc <validate>
  805768:	e0bffa15 	stw	r2,-24(fp)
   if (res == FR_OK) {
  80576c:	e0bffa17 	ldw	r2,-24(fp)
  805770:	1000221e 	bne	r2,zero,8057fc <f_readdir+0xcc>

      if (!fno) {
  805774:	e0bfff17 	ldw	r2,-4(fp)
  805778:	1000051e 	bne	r2,zero,805790 <f_readdir+0x60>
         res = dir_sdi(dj, 0);         /* Rewind the directory object */
  80577c:	e13ffe17 	ldw	r4,-8(fp)
  805780:	000b883a 	mov	r5,zero
  805784:	08023e40 	call	8023e4 <dir_sdi>
  805788:	e0bffa15 	stw	r2,-24(fp)
  80578c:	00001b06 	br	8057fc <f_readdir+0xcc>
      } else {
         INIT_BUF(*dj);
  805790:	e0bffe17 	ldw	r2,-8(fp)
  805794:	e0fffb04 	addi	r3,fp,-20
  805798:	10c00615 	stw	r3,24(r2)
         res = dir_read(dj);           /* Read an directory item */
  80579c:	e13ffe17 	ldw	r4,-8(fp)
  8057a0:	08029ac0 	call	8029ac <dir_read>
  8057a4:	e0bffa15 	stw	r2,-24(fp)
         if (res == FR_NO_FILE) {      /* Reached end of dir */
  8057a8:	e0bffa17 	ldw	r2,-24(fp)
  8057ac:	10800118 	cmpnei	r2,r2,4
  8057b0:	1000031e 	bne	r2,zero,8057c0 <f_readdir+0x90>
            dj->sect = 0;
  8057b4:	e0bffe17 	ldw	r2,-8(fp)
  8057b8:	10000415 	stw	zero,16(r2)
            res = FR_OK;
  8057bc:	e03ffa15 	stw	zero,-24(fp)
         }
         if (res == FR_OK) {           /* A valid entry is found */
  8057c0:	e0bffa17 	ldw	r2,-24(fp)
  8057c4:	10000d1e 	bne	r2,zero,8057fc <f_readdir+0xcc>

            get_fileinfo(dj, fno);     /* Get the object information */
  8057c8:	e13ffe17 	ldw	r4,-8(fp)
  8057cc:	e17fff17 	ldw	r5,-4(fp)
  8057d0:	0802f4c0 	call	802f4c <get_fileinfo>
            res = dir_next(dj, 0);     /* Increment index for next */
  8057d4:	e13ffe17 	ldw	r4,-8(fp)
  8057d8:	000b883a 	mov	r5,zero
  8057dc:	08025d00 	call	8025d0 <dir_next>
  8057e0:	e0bffa15 	stw	r2,-24(fp)
            if (res == FR_NO_FILE) {
  8057e4:	e0bffa17 	ldw	r2,-24(fp)
  8057e8:	10800118 	cmpnei	r2,r2,4
  8057ec:	1000031e 	bne	r2,zero,8057fc <f_readdir+0xcc>

               dj->sect = 0;
  8057f0:	e0bffe17 	ldw	r2,-8(fp)
  8057f4:	10000415 	stw	zero,16(r2)
               res = FR_OK;
  8057f8:	e03ffa15 	stw	zero,-24(fp)
         }
         FREE_BUF();
      }
   }

   LEAVE_FF(dj->fs, res);
  8057fc:	e0bffa17 	ldw	r2,-24(fp)
}
  805800:	e037883a 	mov	sp,fp
  805804:	dfc00117 	ldw	ra,4(sp)
  805808:	df000017 	ldw	fp,0(sp)
  80580c:	dec00204 	addi	sp,sp,8
  805810:	f800283a 	ret

00805814 <f_stat>:

FRESULT f_stat (
   const TCHAR *path,   /* Pointer to the file path */
   FILINFO *fno      /* Pointer to file information to return */
)
{
  805814:	defff104 	addi	sp,sp,-60
  805818:	dfc00e15 	stw	ra,56(sp)
  80581c:	df000d15 	stw	fp,52(sp)
  805820:	df000d04 	addi	fp,sp,52
  805824:	e13ffe15 	stw	r4,-8(fp)
  805828:	e17fff15 	stw	r5,-4(fp)
   FRESULT res;
   DIR dj;
   DEF_NAMEBUF;


   res = chk_mounted(&path, &dj.fs, 0);
  80582c:	e0fffe04 	addi	r3,fp,-8
  805830:	e0bff404 	addi	r2,fp,-48
  805834:	1809883a 	mov	r4,r3
  805838:	100b883a 	mov	r5,r2
  80583c:	000d883a 	mov	r6,zero
  805840:	08034c00 	call	8034c0 <chk_mounted>
  805844:	e0bff315 	stw	r2,-52(fp)
   if (res == FR_OK) {
  805848:	e0bff317 	ldw	r2,-52(fp)
  80584c:	1000131e 	bne	r2,zero,80589c <f_stat+0x88>
      INIT_BUF(dj);
  805850:	e0bffb04 	addi	r2,fp,-20
  805854:	e0bffa15 	stw	r2,-24(fp)
      res = follow_path(&dj, path); /* Follow the file path */
  805858:	e0bffe17 	ldw	r2,-8(fp)
  80585c:	e0fff404 	addi	r3,fp,-48
  805860:	1809883a 	mov	r4,r3
  805864:	100b883a 	mov	r5,r2
  805868:	080317c0 	call	80317c <follow_path>
  80586c:	e0bff315 	stw	r2,-52(fp)
      if (res == FR_OK) {           /* Follow completed */
  805870:	e0bff317 	ldw	r2,-52(fp)
  805874:	1000091e 	bne	r2,zero,80589c <f_stat+0x88>
         if (dj.dir)    /* Found an object */
  805878:	e0bff917 	ldw	r2,-28(fp)
  80587c:	10000526 	beq	r2,zero,805894 <f_stat+0x80>
            get_fileinfo(&dj, fno);
  805880:	e0bff404 	addi	r2,fp,-48
  805884:	1009883a 	mov	r4,r2
  805888:	e17fff17 	ldw	r5,-4(fp)
  80588c:	0802f4c0 	call	802f4c <get_fileinfo>
  805890:	00000206 	br	80589c <f_stat+0x88>
         else        /* It is root dir */
            res = FR_INVALID_NAME;
  805894:	00800184 	movi	r2,6
  805898:	e0bff315 	stw	r2,-52(fp)
      }
      FREE_BUF();
   }

   LEAVE_FF(dj.fs, res);
  80589c:	e0bff317 	ldw	r2,-52(fp)
}
  8058a0:	e037883a 	mov	sp,fp
  8058a4:	dfc00117 	ldw	ra,4(sp)
  8058a8:	df000017 	ldw	fp,0(sp)
  8058ac:	dec00204 	addi	sp,sp,8
  8058b0:	f800283a 	ret

008058b4 <f_getfree>:
FRESULT f_getfree (
   const TCHAR *path,   /* Pointer to the logical drive number (root dir) */
   uint32_t *nclst,     /* Pointer to the variable to return number of free clusters */
   FATFS **fatfs     /* Pointer to pointer to corresponding file system object to return */
)
{
  8058b4:	defff304 	addi	sp,sp,-52
  8058b8:	dfc00c15 	stw	ra,48(sp)
  8058bc:	df000b15 	stw	fp,44(sp)
  8058c0:	df000b04 	addi	fp,sp,44
  8058c4:	e13ffd15 	stw	r4,-12(fp)
  8058c8:	e17ffe15 	stw	r5,-8(fp)
  8058cc:	e1bfff15 	stw	r6,-4(fp)
   uint32_t i;
   uint8_t fat, *p;


   /* Get drive number */
   res = chk_mounted(&path, fatfs, 0);
  8058d0:	e0bffd04 	addi	r2,fp,-12
  8058d4:	1009883a 	mov	r4,r2
  8058d8:	e17fff17 	ldw	r5,-4(fp)
  8058dc:	000d883a 	mov	r6,zero
  8058e0:	08034c00 	call	8034c0 <chk_mounted>
  8058e4:	e0bff515 	stw	r2,-44(fp)
   if (res == FR_OK) {
  8058e8:	e0bff517 	ldw	r2,-44(fp)
  8058ec:	1000a61e 	bne	r2,zero,805b88 <f_getfree+0x2d4>
      /* If free_clust is valid, return it without full cluster scan */
      if ((*fatfs)->free_clust <= (*fatfs)->n_fatent - 2) {
  8058f0:	e0bfff17 	ldw	r2,-4(fp)
  8058f4:	10800017 	ldw	r2,0(r2)
  8058f8:	10800417 	ldw	r2,16(r2)
  8058fc:	e0ffff17 	ldw	r3,-4(fp)
  805900:	18c00017 	ldw	r3,0(r3)
  805904:	18c00617 	ldw	r3,24(r3)
  805908:	18ffff84 	addi	r3,r3,-2
  80590c:	18800636 	bltu	r3,r2,805928 <f_getfree+0x74>
         *nclst = (*fatfs)->free_clust;
  805910:	e0bfff17 	ldw	r2,-4(fp)
  805914:	10800017 	ldw	r2,0(r2)
  805918:	10c00417 	ldw	r3,16(r2)
  80591c:	e0bffe17 	ldw	r2,-8(fp)
  805920:	10c00015 	stw	r3,0(r2)
  805924:	00009806 	br	805b88 <f_getfree+0x2d4>
      } else {
         /* Get number of free clusters */
         fat = (*fatfs)->fs_type;
  805928:	e0bfff17 	ldw	r2,-4(fp)
  80592c:	10800017 	ldw	r2,0(r2)
  805930:	10800003 	ldbu	r2,0(r2)
  805934:	e0bffb05 	stb	r2,-20(fp)
         n = 0;
  805938:	e03ff615 	stw	zero,-40(fp)
         if (fat == FS_FAT12) {
  80593c:	e0bffb03 	ldbu	r2,-20(fp)
  805940:	10800058 	cmpnei	r2,r2,1
  805944:	1000231e 	bne	r2,zero,8059d4 <f_getfree+0x120>
            clst = 2;
  805948:	00800084 	movi	r2,2
  80594c:	e0bff715 	stw	r2,-36(fp)
            do {
               stat = get_fat(*fatfs, clst);
  805950:	e0bfff17 	ldw	r2,-4(fp)
  805954:	10800017 	ldw	r2,0(r2)
  805958:	1009883a 	mov	r4,r2
  80595c:	e17ff717 	ldw	r5,-36(fp)
  805960:	0801af80 	call	801af8 <get_fat>
  805964:	e0bffc15 	stw	r2,-16(fp)
               if (stat == 0xFFFFFFFF) { res = FR_DISK_ERR; break; }
  805968:	e0bffc17 	ldw	r2,-16(fp)
  80596c:	10bfffd8 	cmpnei	r2,r2,-1
  805970:	1000031e 	bne	r2,zero,805980 <f_getfree+0xcc>
  805974:	00800044 	movi	r2,1
  805978:	e0bff515 	stw	r2,-44(fp)
  80597c:	00001406 	br	8059d0 <f_getfree+0x11c>
               if (stat == 1) { res = FR_INT_ERR; break; }
  805980:	e0bffc17 	ldw	r2,-16(fp)
  805984:	10800058 	cmpnei	r2,r2,1
  805988:	1000031e 	bne	r2,zero,805998 <f_getfree+0xe4>
  80598c:	00800084 	movi	r2,2
  805990:	e0bff515 	stw	r2,-44(fp)
  805994:	00000e06 	br	8059d0 <f_getfree+0x11c>
               if (stat == 0) n++;
  805998:	e0bffc17 	ldw	r2,-16(fp)
  80599c:	1000031e 	bne	r2,zero,8059ac <f_getfree+0xf8>
  8059a0:	e0bff617 	ldw	r2,-40(fp)
  8059a4:	10800044 	addi	r2,r2,1
  8059a8:	e0bff615 	stw	r2,-40(fp)
            } while (++clst < (*fatfs)->n_fatent);
  8059ac:	e0bff717 	ldw	r2,-36(fp)
  8059b0:	10800044 	addi	r2,r2,1
  8059b4:	e0bff715 	stw	r2,-36(fp)
  8059b8:	e0bfff17 	ldw	r2,-4(fp)
  8059bc:	10800017 	ldw	r2,0(r2)
  8059c0:	10800617 	ldw	r2,24(r2)
  8059c4:	e0fff717 	ldw	r3,-36(fp)
  8059c8:	18bfe136 	bltu	r3,r2,805950 <__alt_data_end+0xff805950>
  8059cc:	00006006 	br	805b50 <f_getfree+0x29c>
  8059d0:	00005f06 	br	805b50 <f_getfree+0x29c>
         } else {
            clst = (*fatfs)->n_fatent;
  8059d4:	e0bfff17 	ldw	r2,-4(fp)
  8059d8:	10800017 	ldw	r2,0(r2)
  8059dc:	10800617 	ldw	r2,24(r2)
  8059e0:	e0bff715 	stw	r2,-36(fp)
            sect = (*fatfs)->fatbase;
  8059e4:	e0bfff17 	ldw	r2,-4(fp)
  8059e8:	10800017 	ldw	r2,0(r2)
  8059ec:	10800817 	ldw	r2,32(r2)
  8059f0:	e0bff815 	stw	r2,-32(fp)
            i = 0; p = 0;
  8059f4:	e03ff915 	stw	zero,-28(fp)
  8059f8:	e03ffa15 	stw	zero,-24(fp)
            do {
               if (!i) {
  8059fc:	e0bff917 	ldw	r2,-28(fp)
  805a00:	1000111e 	bne	r2,zero,805a48 <f_getfree+0x194>
                  res = move_window(*fatfs, sect++);
  805a04:	e0bfff17 	ldw	r2,-4(fp)
  805a08:	11000017 	ldw	r4,0(r2)
  805a0c:	e0bff817 	ldw	r2,-32(fp)
  805a10:	10c00044 	addi	r3,r2,1
  805a14:	e0fff815 	stw	r3,-32(fp)
  805a18:	100b883a 	mov	r5,r2
  805a1c:	08017140 	call	801714 <move_window>
  805a20:	e0bff515 	stw	r2,-44(fp)
                  if (res != FR_OK) break;
  805a24:	e0bff517 	ldw	r2,-44(fp)
  805a28:	10000126 	beq	r2,zero,805a30 <f_getfree+0x17c>
  805a2c:	00004806 	br	805b50 <f_getfree+0x29c>
                  p = (*fatfs)->win;
  805a30:	e0bfff17 	ldw	r2,-4(fp)
  805a34:	10800017 	ldw	r2,0(r2)
  805a38:	10800c04 	addi	r2,r2,48
  805a3c:	e0bffa15 	stw	r2,-24(fp)
                  i = SS(*fatfs);
  805a40:	00808004 	movi	r2,512
  805a44:	e0bff915 	stw	r2,-28(fp)
               }
               if (fat == FS_FAT16) {
  805a48:	e0bffb03 	ldbu	r2,-20(fp)
  805a4c:	10800098 	cmpnei	r2,r2,2
  805a50:	1000181e 	bne	r2,zero,805ab4 <f_getfree+0x200>
                  if (LD_WORD(p) == 0) n++;
  805a54:	e0bffa17 	ldw	r2,-24(fp)
  805a58:	10800044 	addi	r2,r2,1
  805a5c:	10800003 	ldbu	r2,0(r2)
  805a60:	10803fcc 	andi	r2,r2,255
  805a64:	1004923a 	slli	r2,r2,8
  805a68:	1007883a 	mov	r3,r2
  805a6c:	e0bffa17 	ldw	r2,-24(fp)
  805a70:	10800003 	ldbu	r2,0(r2)
  805a74:	10803fcc 	andi	r2,r2,255
  805a78:	1884b03a 	or	r2,r3,r2
  805a7c:	10bfffcc 	andi	r2,r2,65535
  805a80:	10a0001c 	xori	r2,r2,32768
  805a84:	10a00004 	addi	r2,r2,-32768
  805a88:	1000031e 	bne	r2,zero,805a98 <f_getfree+0x1e4>
  805a8c:	e0bff617 	ldw	r2,-40(fp)
  805a90:	10800044 	addi	r2,r2,1
  805a94:	e0bff615 	stw	r2,-40(fp)
                  p += 2; i -= 2;
  805a98:	e0bffa17 	ldw	r2,-24(fp)
  805a9c:	10800084 	addi	r2,r2,2
  805aa0:	e0bffa15 	stw	r2,-24(fp)
  805aa4:	e0bff917 	ldw	r2,-28(fp)
  805aa8:	10bfff84 	addi	r2,r2,-2
  805aac:	e0bff915 	stw	r2,-28(fp)
  805ab0:	00002206 	br	805b3c <f_getfree+0x288>
               } else {
                  if ((LD_DWORD(p) & 0x0FFFFFFF) == 0) n++;
  805ab4:	e0bffa17 	ldw	r2,-24(fp)
  805ab8:	108000c4 	addi	r2,r2,3
  805abc:	10800003 	ldbu	r2,0(r2)
  805ac0:	10803fcc 	andi	r2,r2,255
  805ac4:	1006963a 	slli	r3,r2,24
  805ac8:	e0bffa17 	ldw	r2,-24(fp)
  805acc:	10800084 	addi	r2,r2,2
  805ad0:	10800003 	ldbu	r2,0(r2)
  805ad4:	10803fcc 	andi	r2,r2,255
  805ad8:	1004943a 	slli	r2,r2,16
  805adc:	1884b03a 	or	r2,r3,r2
  805ae0:	e0fffa17 	ldw	r3,-24(fp)
  805ae4:	18c00044 	addi	r3,r3,1
  805ae8:	18c00003 	ldbu	r3,0(r3)
  805aec:	18c03fcc 	andi	r3,r3,255
  805af0:	1806923a 	slli	r3,r3,8
  805af4:	10c6b03a 	or	r3,r2,r3
  805af8:	e0bffa17 	ldw	r2,-24(fp)
  805afc:	10800003 	ldbu	r2,0(r2)
  805b00:	10803fcc 	andi	r2,r2,255
  805b04:	1886b03a 	or	r3,r3,r2
  805b08:	00840034 	movhi	r2,4096
  805b0c:	10bfffc4 	addi	r2,r2,-1
  805b10:	1884703a 	and	r2,r3,r2
  805b14:	1000031e 	bne	r2,zero,805b24 <f_getfree+0x270>
  805b18:	e0bff617 	ldw	r2,-40(fp)
  805b1c:	10800044 	addi	r2,r2,1
  805b20:	e0bff615 	stw	r2,-40(fp)
                  p += 4; i -= 4;
  805b24:	e0bffa17 	ldw	r2,-24(fp)
  805b28:	10800104 	addi	r2,r2,4
  805b2c:	e0bffa15 	stw	r2,-24(fp)
  805b30:	e0bff917 	ldw	r2,-28(fp)
  805b34:	10bfff04 	addi	r2,r2,-4
  805b38:	e0bff915 	stw	r2,-28(fp)
               }
            } while (--clst);
  805b3c:	e0bff717 	ldw	r2,-36(fp)
  805b40:	10bfffc4 	addi	r2,r2,-1
  805b44:	e0bff715 	stw	r2,-36(fp)
  805b48:	e0bff717 	ldw	r2,-36(fp)
  805b4c:	103fab1e 	bne	r2,zero,8059fc <__alt_data_end+0xff8059fc>
         }
         (*fatfs)->free_clust = n;
  805b50:	e0bfff17 	ldw	r2,-4(fp)
  805b54:	10800017 	ldw	r2,0(r2)
  805b58:	e0fff617 	ldw	r3,-40(fp)
  805b5c:	10c00415 	stw	r3,16(r2)
         if (fat == FS_FAT32) (*fatfs)->fsi_flag = 1;
  805b60:	e0bffb03 	ldbu	r2,-20(fp)
  805b64:	108000d8 	cmpnei	r2,r2,3
  805b68:	1000041e 	bne	r2,zero,805b7c <f_getfree+0x2c8>
  805b6c:	e0bfff17 	ldw	r2,-4(fp)
  805b70:	10800017 	ldw	r2,0(r2)
  805b74:	00c00044 	movi	r3,1
  805b78:	10c00145 	stb	r3,5(r2)
         *nclst = n;
  805b7c:	e0bffe17 	ldw	r2,-8(fp)
  805b80:	e0fff617 	ldw	r3,-40(fp)
  805b84:	10c00015 	stw	r3,0(r2)
      }
   }
   LEAVE_FF(*fatfs, res);
  805b88:	e0bff517 	ldw	r2,-44(fp)
}
  805b8c:	e037883a 	mov	sp,fp
  805b90:	dfc00117 	ldw	ra,4(sp)
  805b94:	df000017 	ldw	fp,0(sp)
  805b98:	dec00204 	addi	sp,sp,8
  805b9c:	f800283a 	ret

00805ba0 <f_truncate>:
/*-----------------------------------------------------------------------*/

FRESULT f_truncate (
   FIL *fp     /* Pointer to the file object */
)
{
  805ba0:	defffb04 	addi	sp,sp,-20
  805ba4:	dfc00415 	stw	ra,16(sp)
  805ba8:	df000315 	stw	fp,12(sp)
  805bac:	df000304 	addi	fp,sp,12
  805bb0:	e13fff15 	stw	r4,-4(fp)
   FRESULT res;
   uint32_t ncl;


   res = validate(fp->fs, fp->id);     /* Check validity of the object */
  805bb4:	e0bfff17 	ldw	r2,-4(fp)
  805bb8:	10c00017 	ldw	r3,0(r2)
  805bbc:	e0bfff17 	ldw	r2,-4(fp)
  805bc0:	1080010b 	ldhu	r2,4(r2)
  805bc4:	10bfffcc 	andi	r2,r2,65535
  805bc8:	1809883a 	mov	r4,r3
  805bcc:	100b883a 	mov	r5,r2
  805bd0:	0803dfc0 	call	803dfc <validate>
  805bd4:	e0bffd15 	stw	r2,-12(fp)
   if (res == FR_OK) {
  805bd8:	e0bffd17 	ldw	r2,-12(fp)
  805bdc:	1000101e 	bne	r2,zero,805c20 <f_truncate+0x80>
      if (fp->flag & FA__ERROR) {         /* Check abort flag */
  805be0:	e0bfff17 	ldw	r2,-4(fp)
  805be4:	10800183 	ldbu	r2,6(r2)
  805be8:	10803fcc 	andi	r2,r2,255
  805bec:	1080201c 	xori	r2,r2,128
  805bf0:	10bfe004 	addi	r2,r2,-128
  805bf4:	1000030e 	bge	r2,zero,805c04 <f_truncate+0x64>
         res = FR_INT_ERR;
  805bf8:	00800084 	movi	r2,2
  805bfc:	e0bffd15 	stw	r2,-12(fp)
  805c00:	00000706 	br	805c20 <f_truncate+0x80>
      } else {
         if (!(fp->flag & FA_WRITE))      /* Check access mode */
  805c04:	e0bfff17 	ldw	r2,-4(fp)
  805c08:	10800183 	ldbu	r2,6(r2)
  805c0c:	10803fcc 	andi	r2,r2,255
  805c10:	1080008c 	andi	r2,r2,2
  805c14:	1000021e 	bne	r2,zero,805c20 <f_truncate+0x80>
            res = FR_DENIED;
  805c18:	008001c4 	movi	r2,7
  805c1c:	e0bffd15 	stw	r2,-12(fp)
      }
   }
   if (res == FR_OK) {
  805c20:	e0bffd17 	ldw	r2,-12(fp)
  805c24:	1000521e 	bne	r2,zero,805d70 <f_truncate+0x1d0>
      if (fp->fsize > fp->fptr) {
  805c28:	e0bfff17 	ldw	r2,-4(fp)
  805c2c:	10800317 	ldw	r2,12(r2)
  805c30:	e0ffff17 	ldw	r3,-4(fp)
  805c34:	18c00217 	ldw	r3,8(r3)
  805c38:	1880442e 	bgeu	r3,r2,805d4c <f_truncate+0x1ac>
         fp->fsize = fp->fptr;   /* Set file size to current R/W point */
  805c3c:	e0bfff17 	ldw	r2,-4(fp)
  805c40:	10c00217 	ldw	r3,8(r2)
  805c44:	e0bfff17 	ldw	r2,-4(fp)
  805c48:	10c00315 	stw	r3,12(r2)
         fp->flag |= FA__WRITTEN;
  805c4c:	e0bfff17 	ldw	r2,-4(fp)
  805c50:	10800183 	ldbu	r2,6(r2)
  805c54:	10800814 	ori	r2,r2,32
  805c58:	1007883a 	mov	r3,r2
  805c5c:	e0bfff17 	ldw	r2,-4(fp)
  805c60:	10c00185 	stb	r3,6(r2)
         if (fp->fptr == 0) { /* When set file size to zero, remove entire cluster chain */
  805c64:	e0bfff17 	ldw	r2,-4(fp)
  805c68:	10800217 	ldw	r2,8(r2)
  805c6c:	10000b1e 	bne	r2,zero,805c9c <f_truncate+0xfc>
            res = remove_chain(fp->fs, fp->sclust);
  805c70:	e0bfff17 	ldw	r2,-4(fp)
  805c74:	10c00017 	ldw	r3,0(r2)
  805c78:	e0bfff17 	ldw	r2,-4(fp)
  805c7c:	10800417 	ldw	r2,16(r2)
  805c80:	1809883a 	mov	r4,r3
  805c84:	100b883a 	mov	r5,r2
  805c88:	08020ec0 	call	8020ec <remove_chain>
  805c8c:	e0bffd15 	stw	r2,-12(fp)
            fp->sclust = 0;
  805c90:	e0bfff17 	ldw	r2,-4(fp)
  805c94:	10000415 	stw	zero,16(r2)
  805c98:	00002c06 	br	805d4c <f_truncate+0x1ac>
         } else {          /* When truncate a part of the file, remove remaining clusters */
            ncl = get_fat(fp->fs, fp->clust);
  805c9c:	e0bfff17 	ldw	r2,-4(fp)
  805ca0:	10c00017 	ldw	r3,0(r2)
  805ca4:	e0bfff17 	ldw	r2,-4(fp)
  805ca8:	10800517 	ldw	r2,20(r2)
  805cac:	1809883a 	mov	r4,r3
  805cb0:	100b883a 	mov	r5,r2
  805cb4:	0801af80 	call	801af8 <get_fat>
  805cb8:	e0bffe15 	stw	r2,-8(fp)
            res = FR_OK;
  805cbc:	e03ffd15 	stw	zero,-12(fp)
            if (ncl == 0xFFFFFFFF) res = FR_DISK_ERR;
  805cc0:	e0bffe17 	ldw	r2,-8(fp)
  805cc4:	10bfffd8 	cmpnei	r2,r2,-1
  805cc8:	1000021e 	bne	r2,zero,805cd4 <f_truncate+0x134>
  805ccc:	00800044 	movi	r2,1
  805cd0:	e0bffd15 	stw	r2,-12(fp)
            if (ncl == 1) res = FR_INT_ERR;
  805cd4:	e0bffe17 	ldw	r2,-8(fp)
  805cd8:	10800058 	cmpnei	r2,r2,1
  805cdc:	1000021e 	bne	r2,zero,805ce8 <f_truncate+0x148>
  805ce0:	00800084 	movi	r2,2
  805ce4:	e0bffd15 	stw	r2,-12(fp)
            if (res == FR_OK && ncl < fp->fs->n_fatent) {
  805ce8:	e0bffd17 	ldw	r2,-12(fp)
  805cec:	1000171e 	bne	r2,zero,805d4c <f_truncate+0x1ac>
  805cf0:	e0bfff17 	ldw	r2,-4(fp)
  805cf4:	10800017 	ldw	r2,0(r2)
  805cf8:	10800617 	ldw	r2,24(r2)
  805cfc:	e0fffe17 	ldw	r3,-8(fp)
  805d00:	1880122e 	bgeu	r3,r2,805d4c <f_truncate+0x1ac>
               res = put_fat(fp->fs, fp->clust, 0x0FFFFFFF);
  805d04:	e0bfff17 	ldw	r2,-4(fp)
  805d08:	10c00017 	ldw	r3,0(r2)
  805d0c:	e0bfff17 	ldw	r2,-4(fp)
  805d10:	10800517 	ldw	r2,20(r2)
  805d14:	1809883a 	mov	r4,r3
  805d18:	100b883a 	mov	r5,r2
  805d1c:	01840034 	movhi	r6,4096
  805d20:	31bfffc4 	addi	r6,r6,-1
  805d24:	0801d7c0 	call	801d7c <put_fat>
  805d28:	e0bffd15 	stw	r2,-12(fp)
               if (res == FR_OK) res = remove_chain(fp->fs, ncl);
  805d2c:	e0bffd17 	ldw	r2,-12(fp)
  805d30:	1000061e 	bne	r2,zero,805d4c <f_truncate+0x1ac>
  805d34:	e0bfff17 	ldw	r2,-4(fp)
  805d38:	10800017 	ldw	r2,0(r2)
  805d3c:	1009883a 	mov	r4,r2
  805d40:	e17ffe17 	ldw	r5,-8(fp)
  805d44:	08020ec0 	call	8020ec <remove_chain>
  805d48:	e0bffd15 	stw	r2,-12(fp)
            }
         }
      }
      if (res != FR_OK) fp->flag |= FA__ERROR;
  805d4c:	e0bffd17 	ldw	r2,-12(fp)
  805d50:	10000726 	beq	r2,zero,805d70 <f_truncate+0x1d0>
  805d54:	e0bfff17 	ldw	r2,-4(fp)
  805d58:	10c00183 	ldbu	r3,6(r2)
  805d5c:	00bfe004 	movi	r2,-128
  805d60:	1884b03a 	or	r2,r3,r2
  805d64:	1007883a 	mov	r3,r2
  805d68:	e0bfff17 	ldw	r2,-4(fp)
  805d6c:	10c00185 	stb	r3,6(r2)
   }

   LEAVE_FF(fp->fs, res);
  805d70:	e0bffd17 	ldw	r2,-12(fp)
}
  805d74:	e037883a 	mov	sp,fp
  805d78:	dfc00117 	ldw	ra,4(sp)
  805d7c:	df000017 	ldw	fp,0(sp)
  805d80:	dec00204 	addi	sp,sp,8
  805d84:	f800283a 	ret

00805d88 <f_unlink>:
/*-----------------------------------------------------------------------*/

FRESULT f_unlink (
   const TCHAR *path    /* Pointer to the file or directory path */
)
{
  805d88:	deffe904 	addi	sp,sp,-92
  805d8c:	dfc01615 	stw	ra,88(sp)
  805d90:	df001515 	stw	fp,84(sp)
  805d94:	df001504 	addi	fp,sp,84
  805d98:	e13fff15 	stw	r4,-4(fp)
   uint8_t *dir;
   uint32_t dclst;
   DEF_NAMEBUF;


   res = chk_mounted(&path, &dj.fs, 1);
  805d9c:	e0ffff04 	addi	r3,fp,-4
  805da0:	e0bfee04 	addi	r2,fp,-72
  805da4:	1809883a 	mov	r4,r3
  805da8:	100b883a 	mov	r5,r2
  805dac:	01800044 	movi	r6,1
  805db0:	08034c00 	call	8034c0 <chk_mounted>
  805db4:	e0bfeb15 	stw	r2,-84(fp)
   if (res == FR_OK) {
  805db8:	e0bfeb17 	ldw	r2,-84(fp)
  805dbc:	1000721e 	bne	r2,zero,805f88 <f_unlink+0x200>
      INIT_BUF(dj);
  805dc0:	e0bffc04 	addi	r2,fp,-16
  805dc4:	e0bff415 	stw	r2,-48(fp)
      res = follow_path(&dj, path);    /* Follow the file path */
  805dc8:	e0bfff17 	ldw	r2,-4(fp)
  805dcc:	e0ffee04 	addi	r3,fp,-72
  805dd0:	1809883a 	mov	r4,r3
  805dd4:	100b883a 	mov	r5,r2
  805dd8:	080317c0 	call	80317c <follow_path>
  805ddc:	e0bfeb15 	stw	r2,-84(fp)
      if (_FS_RPATH && res == FR_OK && (dj.fn[NS] & NS_DOT))
         res = FR_INVALID_NAME;        /* Cannot remove dot entry */
#if _FS_SHARE
      if (res == FR_OK) res = chk_lock(&dj, 2); /* Cannot remove open file */
#endif
      if (res == FR_OK) {              /* The object is accessible */
  805de0:	e0bfeb17 	ldw	r2,-84(fp)
  805de4:	1000681e 	bne	r2,zero,805f88 <f_unlink+0x200>
         dir = dj.dir;
  805de8:	e0bff317 	ldw	r2,-52(fp)
  805dec:	e0bfec15 	stw	r2,-80(fp)
         if (!dir) {
  805df0:	e0bfec17 	ldw	r2,-80(fp)
  805df4:	1000031e 	bne	r2,zero,805e04 <f_unlink+0x7c>
            res = FR_INVALID_NAME;     /* Cannot remove the start directory */
  805df8:	00800184 	movi	r2,6
  805dfc:	e0bfeb15 	stw	r2,-84(fp)
  805e00:	00000806 	br	805e24 <f_unlink+0x9c>
         } else {
            if (dir[DIR_Attr] & AM_RDO)
  805e04:	e0bfec17 	ldw	r2,-80(fp)
  805e08:	108002c4 	addi	r2,r2,11
  805e0c:	10800003 	ldbu	r2,0(r2)
  805e10:	10803fcc 	andi	r2,r2,255
  805e14:	1080004c 	andi	r2,r2,1
  805e18:	10000226 	beq	r2,zero,805e24 <f_unlink+0x9c>
               res = FR_DENIED;     /* Cannot remove R/O object */
  805e1c:	008001c4 	movi	r2,7
  805e20:	e0bfeb15 	stw	r2,-84(fp)
         }
         dclst = LD_CLUST(dir);
  805e24:	e0bfec17 	ldw	r2,-80(fp)
  805e28:	10800544 	addi	r2,r2,21
  805e2c:	10800003 	ldbu	r2,0(r2)
  805e30:	10803fcc 	andi	r2,r2,255
  805e34:	1004923a 	slli	r2,r2,8
  805e38:	1007883a 	mov	r3,r2
  805e3c:	e0bfec17 	ldw	r2,-80(fp)
  805e40:	10800504 	addi	r2,r2,20
  805e44:	10800003 	ldbu	r2,0(r2)
  805e48:	10803fcc 	andi	r2,r2,255
  805e4c:	1884b03a 	or	r2,r3,r2
  805e50:	10bfffcc 	andi	r2,r2,65535
  805e54:	1006943a 	slli	r3,r2,16
  805e58:	e0bfec17 	ldw	r2,-80(fp)
  805e5c:	108006c4 	addi	r2,r2,27
  805e60:	10800003 	ldbu	r2,0(r2)
  805e64:	10803fcc 	andi	r2,r2,255
  805e68:	1004923a 	slli	r2,r2,8
  805e6c:	1009883a 	mov	r4,r2
  805e70:	e0bfec17 	ldw	r2,-80(fp)
  805e74:	10800684 	addi	r2,r2,26
  805e78:	10800003 	ldbu	r2,0(r2)
  805e7c:	10803fcc 	andi	r2,r2,255
  805e80:	2084b03a 	or	r2,r4,r2
  805e84:	10bfffcc 	andi	r2,r2,65535
  805e88:	1884b03a 	or	r2,r3,r2
  805e8c:	e0bfed15 	stw	r2,-76(fp)
         if (res == FR_OK && (dir[DIR_Attr] & AM_DIR)) { /* Is it a sub-dir? */
  805e90:	e0bfeb17 	ldw	r2,-84(fp)
  805e94:	1000271e 	bne	r2,zero,805f34 <f_unlink+0x1ac>
  805e98:	e0bfec17 	ldw	r2,-80(fp)
  805e9c:	108002c4 	addi	r2,r2,11
  805ea0:	10800003 	ldbu	r2,0(r2)
  805ea4:	10803fcc 	andi	r2,r2,255
  805ea8:	1080040c 	andi	r2,r2,16
  805eac:	10002126 	beq	r2,zero,805f34 <f_unlink+0x1ac>
            if (dclst < 2) {
  805eb0:	e0bfed17 	ldw	r2,-76(fp)
  805eb4:	108000a8 	cmpgeui	r2,r2,2
  805eb8:	1000031e 	bne	r2,zero,805ec8 <f_unlink+0x140>
               res = FR_INT_ERR;
  805ebc:	00800084 	movi	r2,2
  805ec0:	e0bfeb15 	stw	r2,-84(fp)
  805ec4:	00001b06 	br	805f34 <f_unlink+0x1ac>
            } else {
               mem_cpy(&sdj, &dj, sizeof(DIR)); /* Check if the sub-dir is empty or not */
  805ec8:	e0fff504 	addi	r3,fp,-44
  805ecc:	e0bfee04 	addi	r2,fp,-72
  805ed0:	1809883a 	mov	r4,r3
  805ed4:	100b883a 	mov	r5,r2
  805ed8:	01800704 	movi	r6,28
  805edc:	08015480 	call	801548 <mem_cpy>
               sdj.sclust = dclst;
  805ee0:	e0bfed17 	ldw	r2,-76(fp)
  805ee4:	e0bff715 	stw	r2,-36(fp)
               res = dir_sdi(&sdj, 2);    /* Exclude dot entries */
  805ee8:	e0bff504 	addi	r2,fp,-44
  805eec:	1009883a 	mov	r4,r2
  805ef0:	01400084 	movi	r5,2
  805ef4:	08023e40 	call	8023e4 <dir_sdi>
  805ef8:	e0bfeb15 	stw	r2,-84(fp)
               if (res == FR_OK) {
  805efc:	e0bfeb17 	ldw	r2,-84(fp)
  805f00:	10000c1e 	bne	r2,zero,805f34 <f_unlink+0x1ac>
                  res = dir_read(&sdj);
  805f04:	e0bff504 	addi	r2,fp,-44
  805f08:	1009883a 	mov	r4,r2
  805f0c:	08029ac0 	call	8029ac <dir_read>
  805f10:	e0bfeb15 	stw	r2,-84(fp)
                  if (res == FR_OK        /* Not empty dir */
  805f14:	e0bfeb17 	ldw	r2,-84(fp)
  805f18:	1000021e 	bne	r2,zero,805f24 <f_unlink+0x19c>
#if _FS_RPATH
                  || dclst == sdj.fs->cdir   /* Current dir */
#endif
                  ) res = FR_DENIED;
  805f1c:	008001c4 	movi	r2,7
  805f20:	e0bfeb15 	stw	r2,-84(fp)
                  if (res == FR_NO_FILE) res = FR_OK; /* Empty */
  805f24:	e0bfeb17 	ldw	r2,-84(fp)
  805f28:	10800118 	cmpnei	r2,r2,4
  805f2c:	1000011e 	bne	r2,zero,805f34 <f_unlink+0x1ac>
  805f30:	e03feb15 	stw	zero,-84(fp)
               }
            }
         }
         if (res == FR_OK) {
  805f34:	e0bfeb17 	ldw	r2,-84(fp)
  805f38:	1000131e 	bne	r2,zero,805f88 <f_unlink+0x200>
            res = dir_remove(&dj);     /* Remove the directory entry */
  805f3c:	e0bfee04 	addi	r2,fp,-72
  805f40:	1009883a 	mov	r4,r2
  805f44:	0802bc80 	call	802bc8 <dir_remove>
  805f48:	e0bfeb15 	stw	r2,-84(fp)
            if (res == FR_OK) {
  805f4c:	e0bfeb17 	ldw	r2,-84(fp)
  805f50:	10000d1e 	bne	r2,zero,805f88 <f_unlink+0x200>
               if (dclst)           /* Remove the cluster chain if exist */
  805f54:	e0bfed17 	ldw	r2,-76(fp)
  805f58:	10000526 	beq	r2,zero,805f70 <f_unlink+0x1e8>
                  res = remove_chain(dj.fs, dclst);
  805f5c:	e0bfee17 	ldw	r2,-72(fp)
  805f60:	1009883a 	mov	r4,r2
  805f64:	e17fed17 	ldw	r5,-76(fp)
  805f68:	08020ec0 	call	8020ec <remove_chain>
  805f6c:	e0bfeb15 	stw	r2,-84(fp)
               if (res == FR_OK) res = sync(dj.fs);
  805f70:	e0bfeb17 	ldw	r2,-84(fp)
  805f74:	1000041e 	bne	r2,zero,805f88 <f_unlink+0x200>
  805f78:	e0bfee17 	ldw	r2,-72(fp)
  805f7c:	1009883a 	mov	r4,r2
  805f80:	08018700 	call	801870 <sync>
  805f84:	e0bfeb15 	stw	r2,-84(fp)
            }
         }
      }
      FREE_BUF();
   }
   LEAVE_FF(dj.fs, res);
  805f88:	e0bfeb17 	ldw	r2,-84(fp)
}
  805f8c:	e037883a 	mov	sp,fp
  805f90:	dfc00117 	ldw	ra,4(sp)
  805f94:	df000017 	ldw	fp,0(sp)
  805f98:	dec00204 	addi	sp,sp,8
  805f9c:	f800283a 	ret

00805fa0 <f_mkdir>:
/*-----------------------------------------------------------------------*/

FRESULT f_mkdir (
   const TCHAR *path    /* Pointer to the directory path */
)
{
  805fa0:	deffec04 	addi	sp,sp,-80
  805fa4:	dfc01315 	stw	ra,76(sp)
  805fa8:	df001215 	stw	fp,72(sp)
  805fac:	df001204 	addi	fp,sp,72
  805fb0:	e13fff15 	stw	r4,-4(fp)
   FRESULT res;
   DIR dj;
   uint8_t *dir, n;
   uint32_t dsc, dcl, pcl, tim = get_fattime();
  805fb4:	080151c0 	call	80151c <get_fattime>
  805fb8:	e0bff215 	stw	r2,-56(fp)
   DEF_NAMEBUF;


   res = chk_mounted(&path, &dj.fs, 1);
  805fbc:	e0ffff04 	addi	r3,fp,-4
  805fc0:	e0bff504 	addi	r2,fp,-44
  805fc4:	1809883a 	mov	r4,r3
  805fc8:	100b883a 	mov	r5,r2
  805fcc:	01800044 	movi	r6,1
  805fd0:	08034c00 	call	8034c0 <chk_mounted>
  805fd4:	e0bfee15 	stw	r2,-72(fp)
   if (res == FR_OK) {
  805fd8:	e0bfee17 	ldw	r2,-72(fp)
  805fdc:	1000fa1e 	bne	r2,zero,8063c8 <f_mkdir+0x428>
      INIT_BUF(dj);
  805fe0:	e0bffc04 	addi	r2,fp,-16
  805fe4:	e0bffb15 	stw	r2,-20(fp)
      res = follow_path(&dj, path);       /* Follow the file path */
  805fe8:	e0bfff17 	ldw	r2,-4(fp)
  805fec:	e0fff504 	addi	r3,fp,-44
  805ff0:	1809883a 	mov	r4,r3
  805ff4:	100b883a 	mov	r5,r2
  805ff8:	080317c0 	call	80317c <follow_path>
  805ffc:	e0bfee15 	stw	r2,-72(fp)
      if (res == FR_OK) res = FR_EXIST;      /* Any object with same name is already existing */
  806000:	e0bfee17 	ldw	r2,-72(fp)
  806004:	1000021e 	bne	r2,zero,806010 <f_mkdir+0x70>
  806008:	00800204 	movi	r2,8
  80600c:	e0bfee15 	stw	r2,-72(fp)
      if (_FS_RPATH && res == FR_NO_FILE && (dj.fn[NS] & NS_DOT))
         res = FR_INVALID_NAME;
      if (res == FR_NO_FILE) {            /* Can create a new directory */
  806010:	e0bfee17 	ldw	r2,-72(fp)
  806014:	10800118 	cmpnei	r2,r2,4
  806018:	1000eb1e 	bne	r2,zero,8063c8 <f_mkdir+0x428>
         dcl = create_chain(dj.fs, 0);    /* Allocate a cluster for the new directory table */
  80601c:	e0bff517 	ldw	r2,-44(fp)
  806020:	1009883a 	mov	r4,r2
  806024:	000b883a 	mov	r5,zero
  806028:	08022000 	call	802200 <create_chain>
  80602c:	e0bff315 	stw	r2,-52(fp)
         res = FR_OK;
  806030:	e03fee15 	stw	zero,-72(fp)
         if (dcl == 0) res = FR_DENIED;      /* No space to allocate a new cluster */
  806034:	e0bff317 	ldw	r2,-52(fp)
  806038:	1000021e 	bne	r2,zero,806044 <f_mkdir+0xa4>
  80603c:	008001c4 	movi	r2,7
  806040:	e0bfee15 	stw	r2,-72(fp)
         if (dcl == 1) res = FR_INT_ERR;
  806044:	e0bff317 	ldw	r2,-52(fp)
  806048:	10800058 	cmpnei	r2,r2,1
  80604c:	1000021e 	bne	r2,zero,806058 <f_mkdir+0xb8>
  806050:	00800084 	movi	r2,2
  806054:	e0bfee15 	stw	r2,-72(fp)
         if (dcl == 0xFFFFFFFF) res = FR_DISK_ERR;
  806058:	e0bff317 	ldw	r2,-52(fp)
  80605c:	10bfffd8 	cmpnei	r2,r2,-1
  806060:	1000021e 	bne	r2,zero,80606c <f_mkdir+0xcc>
  806064:	00800044 	movi	r2,1
  806068:	e0bfee15 	stw	r2,-72(fp)
         if (res == FR_OK)             /* Flush FAT */
  80606c:	e0bfee17 	ldw	r2,-72(fp)
  806070:	1000051e 	bne	r2,zero,806088 <f_mkdir+0xe8>
            res = move_window(dj.fs, 0);
  806074:	e0bff517 	ldw	r2,-44(fp)
  806078:	1009883a 	mov	r4,r2
  80607c:	000b883a 	mov	r5,zero
  806080:	08017140 	call	801714 <move_window>
  806084:	e0bfee15 	stw	r2,-72(fp)
         if (res == FR_OK) {              /* Initialize the new directory table */
  806088:	e0bfee17 	ldw	r2,-72(fp)
  80608c:	10008a1e 	bne	r2,zero,8062b8 <f_mkdir+0x318>
            dsc = clust2sect(dj.fs, dcl);
  806090:	e0bff517 	ldw	r2,-44(fp)
  806094:	1009883a 	mov	r4,r2
  806098:	e17ff317 	ldw	r5,-52(fp)
  80609c:	0801a8c0 	call	801a8c <clust2sect>
  8060a0:	e0bff015 	stw	r2,-64(fp)
            dir = dj.fs->win;
  8060a4:	e0bff517 	ldw	r2,-44(fp)
  8060a8:	10800c04 	addi	r2,r2,48
  8060ac:	e0bff415 	stw	r2,-48(fp)
            mem_set(dir, 0, SS(dj.fs));
  8060b0:	e13ff417 	ldw	r4,-48(fp)
  8060b4:	000b883a 	mov	r5,zero
  8060b8:	01808004 	movi	r6,512
  8060bc:	08015b40 	call	8015b4 <mem_set>
            mem_set(dir+DIR_Name, ' ', 8+3); /* Create "." entry */
  8060c0:	e13ff417 	ldw	r4,-48(fp)
  8060c4:	01400804 	movi	r5,32
  8060c8:	018002c4 	movi	r6,11
  8060cc:	08015b40 	call	8015b4 <mem_set>
            dir[DIR_Name] = '.';
  8060d0:	e0bff417 	ldw	r2,-48(fp)
  8060d4:	00c00b84 	movi	r3,46
  8060d8:	10c00005 	stb	r3,0(r2)
            dir[DIR_Attr] = AM_DIR;
  8060dc:	e0bff417 	ldw	r2,-48(fp)
  8060e0:	108002c4 	addi	r2,r2,11
  8060e4:	00c00404 	movi	r3,16
  8060e8:	10c00005 	stb	r3,0(r2)
            ST_DWORD(dir+DIR_WrtTime, tim);
  8060ec:	e0bff417 	ldw	r2,-48(fp)
  8060f0:	10800584 	addi	r2,r2,22
  8060f4:	e0fff217 	ldw	r3,-56(fp)
  8060f8:	10c00005 	stb	r3,0(r2)
  8060fc:	e0bff417 	ldw	r2,-48(fp)
  806100:	108005c4 	addi	r2,r2,23
  806104:	e0fff217 	ldw	r3,-56(fp)
  806108:	18ffffcc 	andi	r3,r3,65535
  80610c:	1806d23a 	srli	r3,r3,8
  806110:	10c00005 	stb	r3,0(r2)
  806114:	e0bff417 	ldw	r2,-48(fp)
  806118:	10800604 	addi	r2,r2,24
  80611c:	e0fff217 	ldw	r3,-56(fp)
  806120:	1806d43a 	srli	r3,r3,16
  806124:	10c00005 	stb	r3,0(r2)
  806128:	e0bff417 	ldw	r2,-48(fp)
  80612c:	10800644 	addi	r2,r2,25
  806130:	e0fff217 	ldw	r3,-56(fp)
  806134:	1806d63a 	srli	r3,r3,24
  806138:	10c00005 	stb	r3,0(r2)
            ST_CLUST(dir, dcl);
  80613c:	e0bff417 	ldw	r2,-48(fp)
  806140:	10800684 	addi	r2,r2,26
  806144:	e0fff317 	ldw	r3,-52(fp)
  806148:	10c00005 	stb	r3,0(r2)
  80614c:	e0bff417 	ldw	r2,-48(fp)
  806150:	108006c4 	addi	r2,r2,27
  806154:	e0fff317 	ldw	r3,-52(fp)
  806158:	18ffffcc 	andi	r3,r3,65535
  80615c:	1806d23a 	srli	r3,r3,8
  806160:	10c00005 	stb	r3,0(r2)
  806164:	e0bff417 	ldw	r2,-48(fp)
  806168:	10800504 	addi	r2,r2,20
  80616c:	e0fff317 	ldw	r3,-52(fp)
  806170:	1806d43a 	srli	r3,r3,16
  806174:	10c00005 	stb	r3,0(r2)
  806178:	e0bff417 	ldw	r2,-48(fp)
  80617c:	10800544 	addi	r2,r2,21
  806180:	e0fff317 	ldw	r3,-52(fp)
  806184:	1806d43a 	srli	r3,r3,16
  806188:	18ffffcc 	andi	r3,r3,65535
  80618c:	1806d23a 	srli	r3,r3,8
  806190:	10c00005 	stb	r3,0(r2)
            mem_cpy(dir+SZ_DIR, dir, SZ_DIR);   /* Create ".." entry */
  806194:	e0bff417 	ldw	r2,-48(fp)
  806198:	10800804 	addi	r2,r2,32
  80619c:	1009883a 	mov	r4,r2
  8061a0:	e17ff417 	ldw	r5,-48(fp)
  8061a4:	01800804 	movi	r6,32
  8061a8:	08015480 	call	801548 <mem_cpy>
            dir[33] = '.'; pcl = dj.sclust;
  8061ac:	e0bff417 	ldw	r2,-48(fp)
  8061b0:	10800844 	addi	r2,r2,33
  8061b4:	00c00b84 	movi	r3,46
  8061b8:	10c00005 	stb	r3,0(r2)
  8061bc:	e0bff717 	ldw	r2,-36(fp)
  8061c0:	e0bff115 	stw	r2,-60(fp)
            if (dj.fs->fs_type == FS_FAT32 && pcl == dj.fs->dirbase)
  8061c4:	e0bff517 	ldw	r2,-44(fp)
  8061c8:	10800003 	ldbu	r2,0(r2)
  8061cc:	10803fcc 	andi	r2,r2,255
  8061d0:	108000d8 	cmpnei	r2,r2,3
  8061d4:	1000051e 	bne	r2,zero,8061ec <f_mkdir+0x24c>
  8061d8:	e0bff517 	ldw	r2,-44(fp)
  8061dc:	10c00917 	ldw	r3,36(r2)
  8061e0:	e0bff117 	ldw	r2,-60(fp)
  8061e4:	1880011e 	bne	r3,r2,8061ec <f_mkdir+0x24c>
               pcl = 0;
  8061e8:	e03ff115 	stw	zero,-60(fp)
            ST_CLUST(dir+SZ_DIR, pcl);
  8061ec:	e0bff417 	ldw	r2,-48(fp)
  8061f0:	10800e84 	addi	r2,r2,58
  8061f4:	e0fff117 	ldw	r3,-60(fp)
  8061f8:	10c00005 	stb	r3,0(r2)
  8061fc:	e0bff417 	ldw	r2,-48(fp)
  806200:	10800ec4 	addi	r2,r2,59
  806204:	e0fff117 	ldw	r3,-60(fp)
  806208:	18ffffcc 	andi	r3,r3,65535
  80620c:	1806d23a 	srli	r3,r3,8
  806210:	10c00005 	stb	r3,0(r2)
  806214:	e0bff417 	ldw	r2,-48(fp)
  806218:	10800d04 	addi	r2,r2,52
  80621c:	e0fff117 	ldw	r3,-60(fp)
  806220:	1806d43a 	srli	r3,r3,16
  806224:	10c00005 	stb	r3,0(r2)
  806228:	e0bff417 	ldw	r2,-48(fp)
  80622c:	10800d44 	addi	r2,r2,53
  806230:	e0fff117 	ldw	r3,-60(fp)
  806234:	1806d43a 	srli	r3,r3,16
  806238:	18ffffcc 	andi	r3,r3,65535
  80623c:	1806d23a 	srli	r3,r3,8
  806240:	10c00005 	stb	r3,0(r2)
            for (n = dj.fs->csize; n; n--) { /* Write dot entries and clear following sectors */
  806244:	e0bff517 	ldw	r2,-44(fp)
  806248:	10800083 	ldbu	r2,2(r2)
  80624c:	e0bfef05 	stb	r2,-68(fp)
  806250:	00001706 	br	8062b0 <f_mkdir+0x310>
               dj.fs->winsect = dsc++;
  806254:	e0fff517 	ldw	r3,-44(fp)
  806258:	e0bff017 	ldw	r2,-64(fp)
  80625c:	11000044 	addi	r4,r2,1
  806260:	e13ff015 	stw	r4,-64(fp)
  806264:	18800b15 	stw	r2,44(r3)
               dj.fs->wflag = 1;
  806268:	e0bff517 	ldw	r2,-44(fp)
  80626c:	00c00044 	movi	r3,1
  806270:	10c00105 	stb	r3,4(r2)
               res = move_window(dj.fs, 0);
  806274:	e0bff517 	ldw	r2,-44(fp)
  806278:	1009883a 	mov	r4,r2
  80627c:	000b883a 	mov	r5,zero
  806280:	08017140 	call	801714 <move_window>
  806284:	e0bfee15 	stw	r2,-72(fp)
               if (res != FR_OK) break;
  806288:	e0bfee17 	ldw	r2,-72(fp)
  80628c:	10000126 	beq	r2,zero,806294 <f_mkdir+0x2f4>
  806290:	00000906 	br	8062b8 <f_mkdir+0x318>
               mem_set(dir, 0, SS(dj.fs));
  806294:	e13ff417 	ldw	r4,-48(fp)
  806298:	000b883a 	mov	r5,zero
  80629c:	01808004 	movi	r6,512
  8062a0:	08015b40 	call	8015b4 <mem_set>
            mem_cpy(dir+SZ_DIR, dir, SZ_DIR);   /* Create ".." entry */
            dir[33] = '.'; pcl = dj.sclust;
            if (dj.fs->fs_type == FS_FAT32 && pcl == dj.fs->dirbase)
               pcl = 0;
            ST_CLUST(dir+SZ_DIR, pcl);
            for (n = dj.fs->csize; n; n--) { /* Write dot entries and clear following sectors */
  8062a4:	e0bfef03 	ldbu	r2,-68(fp)
  8062a8:	10bfffc4 	addi	r2,r2,-1
  8062ac:	e0bfef05 	stb	r2,-68(fp)
  8062b0:	e0bfef03 	ldbu	r2,-68(fp)
  8062b4:	103fe71e 	bne	r2,zero,806254 <__alt_data_end+0xff806254>
               res = move_window(dj.fs, 0);
               if (res != FR_OK) break;
               mem_set(dir, 0, SS(dj.fs));
            }
         }
         if (res == FR_OK) res = dir_register(&dj);   /* Register the object to the directoy */
  8062b8:	e0bfee17 	ldw	r2,-72(fp)
  8062bc:	1000041e 	bne	r2,zero,8062d0 <f_mkdir+0x330>
  8062c0:	e0bff504 	addi	r2,fp,-44
  8062c4:	1009883a 	mov	r4,r2
  8062c8:	0802aa80 	call	802aa8 <dir_register>
  8062cc:	e0bfee15 	stw	r2,-72(fp)
         if (res != FR_OK) {
  8062d0:	e0bfee17 	ldw	r2,-72(fp)
  8062d4:	10000526 	beq	r2,zero,8062ec <f_mkdir+0x34c>
            remove_chain(dj.fs, dcl);        /* Could not register, remove cluster chain */
  8062d8:	e0bff517 	ldw	r2,-44(fp)
  8062dc:	1009883a 	mov	r4,r2
  8062e0:	e17ff317 	ldw	r5,-52(fp)
  8062e4:	08020ec0 	call	8020ec <remove_chain>
  8062e8:	00003706 	br	8063c8 <f_mkdir+0x428>
         } else {
            dir = dj.dir;
  8062ec:	e0bffa17 	ldw	r2,-24(fp)
  8062f0:	e0bff415 	stw	r2,-48(fp)
            dir[DIR_Attr] = AM_DIR;          /* Attribute */
  8062f4:	e0bff417 	ldw	r2,-48(fp)
  8062f8:	108002c4 	addi	r2,r2,11
  8062fc:	00c00404 	movi	r3,16
  806300:	10c00005 	stb	r3,0(r2)
            ST_DWORD(dir+DIR_WrtTime, tim);     /* Created time */
  806304:	e0bff417 	ldw	r2,-48(fp)
  806308:	10800584 	addi	r2,r2,22
  80630c:	e0fff217 	ldw	r3,-56(fp)
  806310:	10c00005 	stb	r3,0(r2)
  806314:	e0bff417 	ldw	r2,-48(fp)
  806318:	108005c4 	addi	r2,r2,23
  80631c:	e0fff217 	ldw	r3,-56(fp)
  806320:	18ffffcc 	andi	r3,r3,65535
  806324:	1806d23a 	srli	r3,r3,8
  806328:	10c00005 	stb	r3,0(r2)
  80632c:	e0bff417 	ldw	r2,-48(fp)
  806330:	10800604 	addi	r2,r2,24
  806334:	e0fff217 	ldw	r3,-56(fp)
  806338:	1806d43a 	srli	r3,r3,16
  80633c:	10c00005 	stb	r3,0(r2)
  806340:	e0bff417 	ldw	r2,-48(fp)
  806344:	10800644 	addi	r2,r2,25
  806348:	e0fff217 	ldw	r3,-56(fp)
  80634c:	1806d63a 	srli	r3,r3,24
  806350:	10c00005 	stb	r3,0(r2)
            ST_CLUST(dir, dcl);              /* Table start cluster */
  806354:	e0bff417 	ldw	r2,-48(fp)
  806358:	10800684 	addi	r2,r2,26
  80635c:	e0fff317 	ldw	r3,-52(fp)
  806360:	10c00005 	stb	r3,0(r2)
  806364:	e0bff417 	ldw	r2,-48(fp)
  806368:	108006c4 	addi	r2,r2,27
  80636c:	e0fff317 	ldw	r3,-52(fp)
  806370:	18ffffcc 	andi	r3,r3,65535
  806374:	1806d23a 	srli	r3,r3,8
  806378:	10c00005 	stb	r3,0(r2)
  80637c:	e0bff417 	ldw	r2,-48(fp)
  806380:	10800504 	addi	r2,r2,20
  806384:	e0fff317 	ldw	r3,-52(fp)
  806388:	1806d43a 	srli	r3,r3,16
  80638c:	10c00005 	stb	r3,0(r2)
  806390:	e0bff417 	ldw	r2,-48(fp)
  806394:	10800544 	addi	r2,r2,21
  806398:	e0fff317 	ldw	r3,-52(fp)
  80639c:	1806d43a 	srli	r3,r3,16
  8063a0:	18ffffcc 	andi	r3,r3,65535
  8063a4:	1806d23a 	srli	r3,r3,8
  8063a8:	10c00005 	stb	r3,0(r2)
            dj.fs->wflag = 1;
  8063ac:	e0bff517 	ldw	r2,-44(fp)
  8063b0:	00c00044 	movi	r3,1
  8063b4:	10c00105 	stb	r3,4(r2)
            res = sync(dj.fs);
  8063b8:	e0bff517 	ldw	r2,-44(fp)
  8063bc:	1009883a 	mov	r4,r2
  8063c0:	08018700 	call	801870 <sync>
  8063c4:	e0bfee15 	stw	r2,-72(fp)
         }
      }
      FREE_BUF();
   }

   LEAVE_FF(dj.fs, res);
  8063c8:	e0bfee17 	ldw	r2,-72(fp)
}
  8063cc:	e037883a 	mov	sp,fp
  8063d0:	dfc00117 	ldw	ra,4(sp)
  8063d4:	df000017 	ldw	fp,0(sp)
  8063d8:	dec00204 	addi	sp,sp,8
  8063dc:	f800283a 	ret

008063e0 <f_chmod>:
FRESULT f_chmod (
   const TCHAR *path,   /* Pointer to the file path */
   uint8_t value,       /* Attribute bits */
   uint8_t mask         /* Attribute mask to change */
)
{
  8063e0:	deffef04 	addi	sp,sp,-68
  8063e4:	dfc01015 	stw	ra,64(sp)
  8063e8:	df000f15 	stw	fp,60(sp)
  8063ec:	df000f04 	addi	fp,sp,60
  8063f0:	e13ffd15 	stw	r4,-12(fp)
  8063f4:	2807883a 	mov	r3,r5
  8063f8:	3005883a 	mov	r2,r6
  8063fc:	e0fffe05 	stb	r3,-8(fp)
  806400:	e0bfff05 	stb	r2,-4(fp)
   DIR dj;
   uint8_t *dir;
   DEF_NAMEBUF;


   res = chk_mounted(&path, &dj.fs, 1);
  806404:	e0fffd04 	addi	r3,fp,-12
  806408:	e0bff304 	addi	r2,fp,-52
  80640c:	1809883a 	mov	r4,r3
  806410:	100b883a 	mov	r5,r2
  806414:	01800044 	movi	r6,1
  806418:	08034c00 	call	8034c0 <chk_mounted>
  80641c:	e0bff115 	stw	r2,-60(fp)
   if (res == FR_OK) {
  806420:	e0bff117 	ldw	r2,-60(fp)
  806424:	1000291e 	bne	r2,zero,8064cc <f_chmod+0xec>
      INIT_BUF(dj);
  806428:	e0bffa04 	addi	r2,fp,-24
  80642c:	e0bff915 	stw	r2,-28(fp)
      res = follow_path(&dj, path);    /* Follow the file path */
  806430:	e0bffd17 	ldw	r2,-12(fp)
  806434:	e0fff304 	addi	r3,fp,-52
  806438:	1809883a 	mov	r4,r3
  80643c:	100b883a 	mov	r5,r2
  806440:	080317c0 	call	80317c <follow_path>
  806444:	e0bff115 	stw	r2,-60(fp)
      FREE_BUF();
      if (_FS_RPATH && res == FR_OK && (dj.fn[NS] & NS_DOT))
         res = FR_INVALID_NAME;
      if (res == FR_OK) {
  806448:	e0bff117 	ldw	r2,-60(fp)
  80644c:	10001f1e 	bne	r2,zero,8064cc <f_chmod+0xec>
         dir = dj.dir;
  806450:	e0bff817 	ldw	r2,-32(fp)
  806454:	e0bff215 	stw	r2,-56(fp)
         if (!dir) {                /* Is it a root directory? */
  806458:	e0bff217 	ldw	r2,-56(fp)
  80645c:	1000031e 	bne	r2,zero,80646c <f_chmod+0x8c>
            res = FR_INVALID_NAME;
  806460:	00800184 	movi	r2,6
  806464:	e0bff115 	stw	r2,-60(fp)
  806468:	00001806 	br	8064cc <f_chmod+0xec>
         } else {                /* File or sub directory */
            mask &= AM_RDO|AM_HID|AM_SYS|AM_ARC;   /* Valid attribute mask */
  80646c:	e0bfff03 	ldbu	r2,-4(fp)
  806470:	108009cc 	andi	r2,r2,39
  806474:	e0bfff05 	stb	r2,-4(fp)
            dir[DIR_Attr] = (value & mask) | (dir[DIR_Attr] & (uint8_t)~mask);   /* Apply attribute change */
  806478:	e0bff217 	ldw	r2,-56(fp)
  80647c:	108002c4 	addi	r2,r2,11
  806480:	e13ffe03 	ldbu	r4,-8(fp)
  806484:	e0ffff03 	ldbu	r3,-4(fp)
  806488:	20c6703a 	and	r3,r4,r3
  80648c:	180b883a 	mov	r5,r3
  806490:	e0fff217 	ldw	r3,-56(fp)
  806494:	18c002c4 	addi	r3,r3,11
  806498:	18c00003 	ldbu	r3,0(r3)
  80649c:	e13fff03 	ldbu	r4,-4(fp)
  8064a0:	0108303a 	nor	r4,zero,r4
  8064a4:	1906703a 	and	r3,r3,r4
  8064a8:	28c6b03a 	or	r3,r5,r3
  8064ac:	10c00005 	stb	r3,0(r2)
            dj.fs->wflag = 1;
  8064b0:	e0bff317 	ldw	r2,-52(fp)
  8064b4:	00c00044 	movi	r3,1
  8064b8:	10c00105 	stb	r3,4(r2)
            res = sync(dj.fs);
  8064bc:	e0bff317 	ldw	r2,-52(fp)
  8064c0:	1009883a 	mov	r4,r2
  8064c4:	08018700 	call	801870 <sync>
  8064c8:	e0bff115 	stw	r2,-60(fp)
         }
      }
   }

   LEAVE_FF(dj.fs, res);
  8064cc:	e0bff117 	ldw	r2,-60(fp)
}
  8064d0:	e037883a 	mov	sp,fp
  8064d4:	dfc00117 	ldw	ra,4(sp)
  8064d8:	df000017 	ldw	fp,0(sp)
  8064dc:	dec00204 	addi	sp,sp,8
  8064e0:	f800283a 	ret

008064e4 <f_utime>:

FRESULT f_utime (
   const TCHAR *path,   /* Pointer to the file/directory name */
   const FILINFO *fno   /* Pointer to the time stamp to be set */
)
{
  8064e4:	defff004 	addi	sp,sp,-64
  8064e8:	dfc00f15 	stw	ra,60(sp)
  8064ec:	df000e15 	stw	fp,56(sp)
  8064f0:	df000e04 	addi	fp,sp,56
  8064f4:	e13ffe15 	stw	r4,-8(fp)
  8064f8:	e17fff15 	stw	r5,-4(fp)
   DIR dj;
   uint8_t *dir;
   DEF_NAMEBUF;


   res = chk_mounted(&path, &dj.fs, 1);
  8064fc:	e0fffe04 	addi	r3,fp,-8
  806500:	e0bff404 	addi	r2,fp,-48
  806504:	1809883a 	mov	r4,r3
  806508:	100b883a 	mov	r5,r2
  80650c:	01800044 	movi	r6,1
  806510:	08034c00 	call	8034c0 <chk_mounted>
  806514:	e0bff215 	stw	r2,-56(fp)
   if (res == FR_OK) {
  806518:	e0bff217 	ldw	r2,-56(fp)
  80651c:	1000301e 	bne	r2,zero,8065e0 <f_utime+0xfc>
      INIT_BUF(dj);
  806520:	e0bffb04 	addi	r2,fp,-20
  806524:	e0bffa15 	stw	r2,-24(fp)
      res = follow_path(&dj, path); /* Follow the file path */
  806528:	e0bffe17 	ldw	r2,-8(fp)
  80652c:	e0fff404 	addi	r3,fp,-48
  806530:	1809883a 	mov	r4,r3
  806534:	100b883a 	mov	r5,r2
  806538:	080317c0 	call	80317c <follow_path>
  80653c:	e0bff215 	stw	r2,-56(fp)
      FREE_BUF();
      if (_FS_RPATH && res == FR_OK && (dj.fn[NS] & NS_DOT))
         res = FR_INVALID_NAME;
      if (res == FR_OK) {
  806540:	e0bff217 	ldw	r2,-56(fp)
  806544:	1000261e 	bne	r2,zero,8065e0 <f_utime+0xfc>
         dir = dj.dir;
  806548:	e0bff917 	ldw	r2,-28(fp)
  80654c:	e0bff315 	stw	r2,-52(fp)
         if (!dir) {             /* Root directory */
  806550:	e0bff317 	ldw	r2,-52(fp)
  806554:	1000031e 	bne	r2,zero,806564 <f_utime+0x80>
            res = FR_INVALID_NAME;
  806558:	00800184 	movi	r2,6
  80655c:	e0bff215 	stw	r2,-56(fp)
  806560:	00001f06 	br	8065e0 <f_utime+0xfc>
         } else {             /* File or sub-directory */
            ST_WORD(dir+DIR_WrtTime, fno->ftime);
  806564:	e0bff317 	ldw	r2,-52(fp)
  806568:	10800584 	addi	r2,r2,22
  80656c:	e0ffff17 	ldw	r3,-4(fp)
  806570:	18c0018b 	ldhu	r3,6(r3)
  806574:	10c00005 	stb	r3,0(r2)
  806578:	e0bff317 	ldw	r2,-52(fp)
  80657c:	108005c4 	addi	r2,r2,23
  806580:	e0ffff17 	ldw	r3,-4(fp)
  806584:	18c0018b 	ldhu	r3,6(r3)
  806588:	18ffffcc 	andi	r3,r3,65535
  80658c:	1806d23a 	srli	r3,r3,8
  806590:	10c00005 	stb	r3,0(r2)
            ST_WORD(dir+DIR_WrtDate, fno->fdate);
  806594:	e0bff317 	ldw	r2,-52(fp)
  806598:	10800604 	addi	r2,r2,24
  80659c:	e0ffff17 	ldw	r3,-4(fp)
  8065a0:	18c0010b 	ldhu	r3,4(r3)
  8065a4:	10c00005 	stb	r3,0(r2)
  8065a8:	e0bff317 	ldw	r2,-52(fp)
  8065ac:	10800644 	addi	r2,r2,25
  8065b0:	e0ffff17 	ldw	r3,-4(fp)
  8065b4:	18c0010b 	ldhu	r3,4(r3)
  8065b8:	18ffffcc 	andi	r3,r3,65535
  8065bc:	1806d23a 	srli	r3,r3,8
  8065c0:	10c00005 	stb	r3,0(r2)
            dj.fs->wflag = 1;
  8065c4:	e0bff417 	ldw	r2,-48(fp)
  8065c8:	00c00044 	movi	r3,1
  8065cc:	10c00105 	stb	r3,4(r2)
            res = sync(dj.fs);
  8065d0:	e0bff417 	ldw	r2,-48(fp)
  8065d4:	1009883a 	mov	r4,r2
  8065d8:	08018700 	call	801870 <sync>
  8065dc:	e0bff215 	stw	r2,-56(fp)
         }
      }
   }

   LEAVE_FF(dj.fs, res);
  8065e0:	e0bff217 	ldw	r2,-56(fp)
}
  8065e4:	e037883a 	mov	sp,fp
  8065e8:	dfc00117 	ldw	ra,4(sp)
  8065ec:	df000017 	ldw	fp,0(sp)
  8065f0:	dec00204 	addi	sp,sp,8
  8065f4:	f800283a 	ret

008065f8 <f_rename>:

FRESULT f_rename (
   const TCHAR *path_old,  /* Pointer to the old name */
   const TCHAR *path_new   /* Pointer to the new name */
)
{
  8065f8:	deffe204 	addi	sp,sp,-120
  8065fc:	dfc01d15 	stw	ra,116(sp)
  806600:	df001c15 	stw	fp,112(sp)
  806604:	df001c04 	addi	fp,sp,112
  806608:	e13ffe15 	stw	r4,-8(fp)
  80660c:	e17fff15 	stw	r5,-4(fp)
   uint8_t buf[21], *dir;
   uint32_t dw;
   DEF_NAMEBUF;


   res = chk_mounted(&path_old, &djo.fs, 1);
  806610:	e0fffe04 	addi	r3,fp,-8
  806614:	e0bfe704 	addi	r2,fp,-100
  806618:	1809883a 	mov	r4,r3
  80661c:	100b883a 	mov	r5,r2
  806620:	01800044 	movi	r6,1
  806624:	08034c00 	call	8034c0 <chk_mounted>
  806628:	e0bfe415 	stw	r2,-112(fp)
   if (res == FR_OK) {
  80662c:	e0bfe417 	ldw	r2,-112(fp)
  806630:	1000b01e 	bne	r2,zero,8068f4 <f_rename+0x2fc>
      djn.fs = djo.fs;
  806634:	e0bfe717 	ldw	r2,-100(fp)
  806638:	e0bfee15 	stw	r2,-72(fp)
      INIT_BUF(djo);
  80663c:	e0bffa44 	addi	r2,fp,-23
  806640:	e0bfed15 	stw	r2,-76(fp)
      res = follow_path(&djo, path_old);     /* Check old object */
  806644:	e0bffe17 	ldw	r2,-8(fp)
  806648:	e0ffe704 	addi	r3,fp,-100
  80664c:	1809883a 	mov	r4,r3
  806650:	100b883a 	mov	r5,r2
  806654:	080317c0 	call	80317c <follow_path>
  806658:	e0bfe415 	stw	r2,-112(fp)
      if (_FS_RPATH && res == FR_OK && (djo.fn[NS] & NS_DOT))
         res = FR_INVALID_NAME;
#if _FS_SHARE
      if (res == FR_OK) res = chk_lock(&djo, 2);
#endif
      if (res == FR_OK) {                 /* Old object is found */
  80665c:	e0bfe417 	ldw	r2,-112(fp)
  806660:	1000a41e 	bne	r2,zero,8068f4 <f_rename+0x2fc>
         if (!djo.dir) {                  /* Is root dir? */
  806664:	e0bfec17 	ldw	r2,-80(fp)
  806668:	1000031e 	bne	r2,zero,806678 <f_rename+0x80>
            res = FR_NO_FILE;
  80666c:	00800104 	movi	r2,4
  806670:	e0bfe415 	stw	r2,-112(fp)
  806674:	00009f06 	br	8068f4 <f_rename+0x2fc>
         } else {
            mem_cpy(buf, djo.dir+DIR_Attr, 21);    /* Save the object information except for name */
  806678:	e0bfec17 	ldw	r2,-80(fp)
  80667c:	108002c4 	addi	r2,r2,11
  806680:	e0fff504 	addi	r3,fp,-44
  806684:	1809883a 	mov	r4,r3
  806688:	100b883a 	mov	r5,r2
  80668c:	01800544 	movi	r6,21
  806690:	08015480 	call	801548 <mem_cpy>
            mem_cpy(&djn, &djo, sizeof(DIR));      /* Check new object */
  806694:	e0ffee04 	addi	r3,fp,-72
  806698:	e0bfe704 	addi	r2,fp,-100
  80669c:	1809883a 	mov	r4,r3
  8066a0:	100b883a 	mov	r5,r2
  8066a4:	01800704 	movi	r6,28
  8066a8:	08015480 	call	801548 <mem_cpy>
            res = follow_path(&djn, path_new);
  8066ac:	e0bfee04 	addi	r2,fp,-72
  8066b0:	1009883a 	mov	r4,r2
  8066b4:	e17fff17 	ldw	r5,-4(fp)
  8066b8:	080317c0 	call	80317c <follow_path>
  8066bc:	e0bfe415 	stw	r2,-112(fp)
            if (res == FR_OK) res = FR_EXIST;      /* The new object name is already existing */
  8066c0:	e0bfe417 	ldw	r2,-112(fp)
  8066c4:	1000021e 	bne	r2,zero,8066d0 <f_rename+0xd8>
  8066c8:	00800204 	movi	r2,8
  8066cc:	e0bfe415 	stw	r2,-112(fp)
            if (res == FR_NO_FILE) {            /* Is it a valid path and no name collision? */
  8066d0:	e0bfe417 	ldw	r2,-112(fp)
  8066d4:	10800118 	cmpnei	r2,r2,4
  8066d8:	1000861e 	bne	r2,zero,8068f4 <f_rename+0x2fc>
/* Start critical section that any interruption or error can cause cross-link */
               res = dir_register(&djn);        /* Register the new entry */
  8066dc:	e0bfee04 	addi	r2,fp,-72
  8066e0:	1009883a 	mov	r4,r2
  8066e4:	0802aa80 	call	802aa8 <dir_register>
  8066e8:	e0bfe415 	stw	r2,-112(fp)
               if (res == FR_OK) {
  8066ec:	e0bfe417 	ldw	r2,-112(fp)
  8066f0:	1000801e 	bne	r2,zero,8068f4 <f_rename+0x2fc>
                  dir = djn.dir;             /* Copy object information except for name */
  8066f4:	e0bff317 	ldw	r2,-52(fp)
  8066f8:	e0bfe515 	stw	r2,-108(fp)
                  mem_cpy(dir+13, buf+2, 19);
  8066fc:	e0bfe517 	ldw	r2,-108(fp)
  806700:	10c00344 	addi	r3,r2,13
  806704:	e0bff504 	addi	r2,fp,-44
  806708:	10800084 	addi	r2,r2,2
  80670c:	1809883a 	mov	r4,r3
  806710:	100b883a 	mov	r5,r2
  806714:	018004c4 	movi	r6,19
  806718:	08015480 	call	801548 <mem_cpy>
                  dir[DIR_Attr] = buf[0] | AM_ARC;
  80671c:	e0bfe517 	ldw	r2,-108(fp)
  806720:	108002c4 	addi	r2,r2,11
  806724:	e0fff503 	ldbu	r3,-44(fp)
  806728:	18c00814 	ori	r3,r3,32
  80672c:	10c00005 	stb	r3,0(r2)
                  djo.fs->wflag = 1;
  806730:	e0bfe717 	ldw	r2,-100(fp)
  806734:	00c00044 	movi	r3,1
  806738:	10c00105 	stb	r3,4(r2)
                  if (djo.sclust != djn.sclust && (dir[DIR_Attr] & AM_DIR)) {    /* Update .. entry in the directory if needed */
  80673c:	e0ffe917 	ldw	r3,-92(fp)
  806740:	e0bff017 	ldw	r2,-64(fp)
  806744:	18805f26 	beq	r3,r2,8068c4 <f_rename+0x2cc>
  806748:	e0bfe517 	ldw	r2,-108(fp)
  80674c:	108002c4 	addi	r2,r2,11
  806750:	10800003 	ldbu	r2,0(r2)
  806754:	10803fcc 	andi	r2,r2,255
  806758:	1080040c 	andi	r2,r2,16
  80675c:	10005926 	beq	r2,zero,8068c4 <f_rename+0x2cc>
                     dw = clust2sect(djn.fs, LD_CLUST(dir));
  806760:	e13fee17 	ldw	r4,-72(fp)
  806764:	e0bfe517 	ldw	r2,-108(fp)
  806768:	10800544 	addi	r2,r2,21
  80676c:	10800003 	ldbu	r2,0(r2)
  806770:	10803fcc 	andi	r2,r2,255
  806774:	1004923a 	slli	r2,r2,8
  806778:	1007883a 	mov	r3,r2
  80677c:	e0bfe517 	ldw	r2,-108(fp)
  806780:	10800504 	addi	r2,r2,20
  806784:	10800003 	ldbu	r2,0(r2)
  806788:	10803fcc 	andi	r2,r2,255
  80678c:	1884b03a 	or	r2,r3,r2
  806790:	10bfffcc 	andi	r2,r2,65535
  806794:	1006943a 	slli	r3,r2,16
  806798:	e0bfe517 	ldw	r2,-108(fp)
  80679c:	108006c4 	addi	r2,r2,27
  8067a0:	10800003 	ldbu	r2,0(r2)
  8067a4:	10803fcc 	andi	r2,r2,255
  8067a8:	1004923a 	slli	r2,r2,8
  8067ac:	100b883a 	mov	r5,r2
  8067b0:	e0bfe517 	ldw	r2,-108(fp)
  8067b4:	10800684 	addi	r2,r2,26
  8067b8:	10800003 	ldbu	r2,0(r2)
  8067bc:	10803fcc 	andi	r2,r2,255
  8067c0:	2884b03a 	or	r2,r5,r2
  8067c4:	10bfffcc 	andi	r2,r2,65535
  8067c8:	1884b03a 	or	r2,r3,r2
  8067cc:	100b883a 	mov	r5,r2
  8067d0:	0801a8c0 	call	801a8c <clust2sect>
  8067d4:	e0bfe615 	stw	r2,-104(fp)
                     if (!dw) {
  8067d8:	e0bfe617 	ldw	r2,-104(fp)
  8067dc:	1000031e 	bne	r2,zero,8067ec <f_rename+0x1f4>
                        res = FR_INT_ERR;
  8067e0:	00800084 	movi	r2,2
  8067e4:	e0bfe415 	stw	r2,-112(fp)
  8067e8:	00003606 	br	8068c4 <f_rename+0x2cc>
                     } else {
                        res = move_window(djn.fs, dw);
  8067ec:	e0bfee17 	ldw	r2,-72(fp)
  8067f0:	1009883a 	mov	r4,r2
  8067f4:	e17fe617 	ldw	r5,-104(fp)
  8067f8:	08017140 	call	801714 <move_window>
  8067fc:	e0bfe415 	stw	r2,-112(fp)
                        dir = djn.fs->win+SZ_DIR;  /* .. entry */
  806800:	e0bfee17 	ldw	r2,-72(fp)
  806804:	10801404 	addi	r2,r2,80
  806808:	e0bfe515 	stw	r2,-108(fp)
                        if (res == FR_OK && dir[1] == '.') {
  80680c:	e0bfe417 	ldw	r2,-112(fp)
  806810:	10002c1e 	bne	r2,zero,8068c4 <f_rename+0x2cc>
  806814:	e0bfe517 	ldw	r2,-108(fp)
  806818:	10800044 	addi	r2,r2,1
  80681c:	10800003 	ldbu	r2,0(r2)
  806820:	10803fcc 	andi	r2,r2,255
  806824:	10800b98 	cmpnei	r2,r2,46
  806828:	1000261e 	bne	r2,zero,8068c4 <f_rename+0x2cc>
                           dw = (djn.fs->fs_type == FS_FAT32 && djn.sclust == djn.fs->dirbase) ? 0 : djn.sclust;
  80682c:	e0bfee17 	ldw	r2,-72(fp)
  806830:	10800003 	ldbu	r2,0(r2)
  806834:	10803fcc 	andi	r2,r2,255
  806838:	108000d8 	cmpnei	r2,r2,3
  80683c:	1000041e 	bne	r2,zero,806850 <f_rename+0x258>
  806840:	e0fff017 	ldw	r3,-64(fp)
  806844:	e0bfee17 	ldw	r2,-72(fp)
  806848:	10800917 	ldw	r2,36(r2)
  80684c:	18800226 	beq	r3,r2,806858 <f_rename+0x260>
  806850:	e0bff017 	ldw	r2,-64(fp)
  806854:	00000106 	br	80685c <f_rename+0x264>
  806858:	0005883a 	mov	r2,zero
  80685c:	e0bfe615 	stw	r2,-104(fp)
                           ST_CLUST(dir, dw);
  806860:	e0bfe517 	ldw	r2,-108(fp)
  806864:	10800684 	addi	r2,r2,26
  806868:	e0ffe617 	ldw	r3,-104(fp)
  80686c:	10c00005 	stb	r3,0(r2)
  806870:	e0bfe517 	ldw	r2,-108(fp)
  806874:	108006c4 	addi	r2,r2,27
  806878:	e0ffe617 	ldw	r3,-104(fp)
  80687c:	18ffffcc 	andi	r3,r3,65535
  806880:	1806d23a 	srli	r3,r3,8
  806884:	10c00005 	stb	r3,0(r2)
  806888:	e0bfe517 	ldw	r2,-108(fp)
  80688c:	10800504 	addi	r2,r2,20
  806890:	e0ffe617 	ldw	r3,-104(fp)
  806894:	1806d43a 	srli	r3,r3,16
  806898:	10c00005 	stb	r3,0(r2)
  80689c:	e0bfe517 	ldw	r2,-108(fp)
  8068a0:	10800544 	addi	r2,r2,21
  8068a4:	e0ffe617 	ldw	r3,-104(fp)
  8068a8:	1806d43a 	srli	r3,r3,16
  8068ac:	18ffffcc 	andi	r3,r3,65535
  8068b0:	1806d23a 	srli	r3,r3,8
  8068b4:	10c00005 	stb	r3,0(r2)
                           djn.fs->wflag = 1;
  8068b8:	e0bfee17 	ldw	r2,-72(fp)
  8068bc:	00c00044 	movi	r3,1
  8068c0:	10c00105 	stb	r3,4(r2)
                        }
                     }
                  }
                  if (res == FR_OK) {
  8068c4:	e0bfe417 	ldw	r2,-112(fp)
  8068c8:	10000a1e 	bne	r2,zero,8068f4 <f_rename+0x2fc>
                     res = dir_remove(&djo);    /* Remove old entry */
  8068cc:	e0bfe704 	addi	r2,fp,-100
  8068d0:	1009883a 	mov	r4,r2
  8068d4:	0802bc80 	call	802bc8 <dir_remove>
  8068d8:	e0bfe415 	stw	r2,-112(fp)
                     if (res == FR_OK)
  8068dc:	e0bfe417 	ldw	r2,-112(fp)
  8068e0:	1000041e 	bne	r2,zero,8068f4 <f_rename+0x2fc>
                        res = sync(djo.fs);
  8068e4:	e0bfe717 	ldw	r2,-100(fp)
  8068e8:	1009883a 	mov	r4,r2
  8068ec:	08018700 	call	801870 <sync>
  8068f0:	e0bfe415 	stw	r2,-112(fp)
            }
         }
      }
      FREE_BUF();
   }
   LEAVE_FF(djo.fs, res);
  8068f4:	e0bfe417 	ldw	r2,-112(fp)
}
  8068f8:	e037883a 	mov	sp,fp
  8068fc:	dfc00117 	ldw	ra,4(sp)
  806900:	df000017 	ldw	fp,0(sp)
  806904:	dec00204 	addi	sp,sp,8
  806908:	f800283a 	ret

0080690c <f_mkfs>:
FRESULT f_mkfs (
   uint8_t drv,      /* Logical drive number */
   uint8_t sfd,      /* Partitioning rule 0:FDISK, 1:SFD */
   uint32_t au        /* Allocation unit size [bytes] */
)
{
  80690c:	deffea04 	addi	sp,sp,-88
  806910:	dfc01515 	stw	ra,84(sp)
  806914:	df001415 	stw	fp,80(sp)
  806918:	df001404 	addi	fp,sp,80
  80691c:	2007883a 	mov	r3,r4
  806920:	2805883a 	mov	r2,r5
  806924:	e1bfff15 	stw	r6,-4(fp)
  806928:	e0fffd05 	stb	r3,-12(fp)
  80692c:	e0bffe05 	stb	r2,-8(fp)
   FATFS *fs;
   DSTATUS stat;


   /* Check mounted drive and clear work area */
   if (drv >= _VOLUMES) return FR_INVALID_DRIVE;
  806930:	e0bffd03 	ldbu	r2,-12(fp)
  806934:	10000226 	beq	r2,zero,806940 <f_mkfs+0x34>
  806938:	008002c4 	movi	r2,11
  80693c:	00039d06 	br	8077b4 <f_mkfs+0xea8>
   if (sfd > 1) return FR_INVALID_PARAMETER;
  806940:	e0bffe03 	ldbu	r2,-8(fp)
  806944:	108000b0 	cmpltui	r2,r2,2
  806948:	1000021e 	bne	r2,zero,806954 <f_mkfs+0x48>
  80694c:	008004c4 	movi	r2,19
  806950:	00039806 	br	8077b4 <f_mkfs+0xea8>
   if (au & (au - 1)) return FR_INVALID_PARAMETER;
  806954:	e0bfff17 	ldw	r2,-4(fp)
  806958:	10ffffc4 	addi	r3,r2,-1
  80695c:	e0bfff17 	ldw	r2,-4(fp)
  806960:	1884703a 	and	r2,r3,r2
  806964:	10000226 	beq	r2,zero,806970 <f_mkfs+0x64>
  806968:	008004c4 	movi	r2,19
  80696c:	00039106 	br	8077b4 <f_mkfs+0xea8>
   fs = FatFs[drv];
  806970:	e0bffd03 	ldbu	r2,-12(fp)
  806974:	1085883a 	add	r2,r2,r2
  806978:	1087883a 	add	r3,r2,r2
  80697c:	d0a74604 	addi	r2,gp,-25320
  806980:	1885883a 	add	r2,r3,r2
  806984:	10800017 	ldw	r2,0(r2)
  806988:	e0bff315 	stw	r2,-52(fp)
   if (!fs) return FR_NOT_ENABLED;
  80698c:	e0bff317 	ldw	r2,-52(fp)
  806990:	1000021e 	bne	r2,zero,80699c <f_mkfs+0x90>
  806994:	00800304 	movi	r2,12
  806998:	00038606 	br	8077b4 <f_mkfs+0xea8>
   fs->fs_type = 0;
  80699c:	e0bff317 	ldw	r2,-52(fp)
  8069a0:	10000005 	stb	zero,0(r2)
   pdrv = LD2PD(drv);   /* Physical drive */
  8069a4:	e0bffd03 	ldbu	r2,-12(fp)
  8069a8:	e0bff405 	stb	r2,-48(fp)
   part = LD2PT(drv);   /* Partition (0:auto detect, 1-4:get from partition table)*/
  8069ac:	e03ff445 	stb	zero,-47(fp)

   /* Get disk statics */
   stat = disk_initialize(pdrv);
  8069b0:	e0bff403 	ldbu	r2,-48(fp)
  8069b4:	1009883a 	mov	r4,r2
  8069b8:	0800b680 	call	800b68 <ffs_DiskIOInitialize>
  8069bc:	e0bff485 	stb	r2,-46(fp)
   if (stat & STA_NOINIT) return FR_NOT_READY;
  8069c0:	e0bff483 	ldbu	r2,-46(fp)
  8069c4:	1080004c 	andi	r2,r2,1
  8069c8:	10000226 	beq	r2,zero,8069d4 <f_mkfs+0xc8>
  8069cc:	008000c4 	movi	r2,3
  8069d0:	00037806 	br	8077b4 <f_mkfs+0xea8>
   if (stat & STA_PROTECT) return FR_WRITE_PROTECTED;
  8069d4:	e0bff483 	ldbu	r2,-46(fp)
  8069d8:	1080010c 	andi	r2,r2,4
  8069dc:	10000226 	beq	r2,zero,8069e8 <f_mkfs+0xdc>
  8069e0:	00800284 	movi	r2,10
  8069e4:	00037306 	br	8077b4 <f_mkfs+0xea8>
      if (!tbl[4]) return FR_MKFS_ABORTED;   /* No partition? */
      b_vol = LD_DWORD(tbl+8);   /* Volume start sector */
      n_vol = LD_DWORD(tbl+12);  /* Volume size */
   } else {
      /* Create a partition in this function */
      if (disk_ioctl(pdrv, GET_SECTOR_COUNT, &n_vol) != RES_OK || n_vol < 128)
  8069e8:	e0fff403 	ldbu	r3,-48(fp)
  8069ec:	e0bffc04 	addi	r2,fp,-16
  8069f0:	1809883a 	mov	r4,r3
  8069f4:	01400044 	movi	r5,1
  8069f8:	100d883a 	mov	r6,r2
  8069fc:	08010740 	call	801074 <ffs_DiskIOIoctl>
  806a00:	1000031e 	bne	r2,zero,806a10 <f_mkfs+0x104>
  806a04:	e0bffc17 	ldw	r2,-16(fp)
  806a08:	10802028 	cmpgeui	r2,r2,128
  806a0c:	1000021e 	bne	r2,zero,806a18 <f_mkfs+0x10c>
         return FR_DISK_ERR;
  806a10:	00800044 	movi	r2,1
  806a14:	00036706 	br	8077b4 <f_mkfs+0xea8>
      b_vol = (sfd) ? 0 : 63;    /* Volume start sector */
  806a18:	e0bffe03 	ldbu	r2,-8(fp)
  806a1c:	10000226 	beq	r2,zero,806a28 <f_mkfs+0x11c>
  806a20:	0005883a 	mov	r2,zero
  806a24:	00000106 	br	806a2c <f_mkfs+0x120>
  806a28:	00800fc4 	movi	r2,63
  806a2c:	e0bff515 	stw	r2,-44(fp)
      n_vol -= b_vol;            /* Volume size */
  806a30:	e0fffc17 	ldw	r3,-16(fp)
  806a34:	e0bff517 	ldw	r2,-44(fp)
  806a38:	1885c83a 	sub	r2,r3,r2
  806a3c:	e0bffc15 	stw	r2,-16(fp)
   }

   if (!au) {           /* AU auto selection */
  806a40:	e0bfff17 	ldw	r2,-4(fp)
  806a44:	10001b1e 	bne	r2,zero,806ab4 <f_mkfs+0x1a8>
      vs = n_vol / (2000 / (SS(fs) / 512));
  806a48:	e0bffc17 	ldw	r2,-16(fp)
  806a4c:	1009883a 	mov	r4,r2
  806a50:	0141f404 	movi	r5,2000
  806a54:	080a0e40 	call	80a0e4 <__udivsi3>
  806a58:	e0bff615 	stw	r2,-40(fp)
      for (i = 0; vs < vst[i]; i++) ;
  806a5c:	e03fee15 	stw	zero,-72(fp)
  806a60:	00000306 	br	806a70 <f_mkfs+0x164>
  806a64:	e0bfee17 	ldw	r2,-72(fp)
  806a68:	10800044 	addi	r2,r2,1
  806a6c:	e0bfee15 	stw	r2,-72(fp)
  806a70:	00802074 	movhi	r2,129
  806a74:	10846504 	addi	r2,r2,4500
  806a78:	e0ffee17 	ldw	r3,-72(fp)
  806a7c:	18c7883a 	add	r3,r3,r3
  806a80:	10c5883a 	add	r2,r2,r3
  806a84:	1080000b 	ldhu	r2,0(r2)
  806a88:	10bfffcc 	andi	r2,r2,65535
  806a8c:	e0fff617 	ldw	r3,-40(fp)
  806a90:	18bff436 	bltu	r3,r2,806a64 <__alt_data_end+0xff806a64>
      au = cst[i];
  806a94:	00802074 	movhi	r2,129
  806a98:	10846a84 	addi	r2,r2,4522
  806a9c:	e0ffee17 	ldw	r3,-72(fp)
  806aa0:	18c7883a 	add	r3,r3,r3
  806aa4:	10c5883a 	add	r2,r2,r3
  806aa8:	1080000b 	ldhu	r2,0(r2)
  806aac:	10bfffcc 	andi	r2,r2,65535
  806ab0:	e0bfff15 	stw	r2,-4(fp)
   }
   au /= SS(fs);     /* Number of sectors per cluster */
  806ab4:	e0bfff17 	ldw	r2,-4(fp)
  806ab8:	1004d27a 	srli	r2,r2,9
  806abc:	e0bfff15 	stw	r2,-4(fp)
   if (au == 0) au = 1;
  806ac0:	e0bfff17 	ldw	r2,-4(fp)
  806ac4:	1000021e 	bne	r2,zero,806ad0 <f_mkfs+0x1c4>
  806ac8:	00800044 	movi	r2,1
  806acc:	e0bfff15 	stw	r2,-4(fp)
   if (au > 128) au = 128;
  806ad0:	e0bfff17 	ldw	r2,-4(fp)
  806ad4:	10802070 	cmpltui	r2,r2,129
  806ad8:	1000021e 	bne	r2,zero,806ae4 <f_mkfs+0x1d8>
  806adc:	00802004 	movi	r2,128
  806ae0:	e0bfff15 	stw	r2,-4(fp)

   /* Pre-compute number of clusters and FAT syb-type */
   n_clst = n_vol / au;
  806ae4:	e0bffc17 	ldw	r2,-16(fp)
  806ae8:	1009883a 	mov	r4,r2
  806aec:	e17fff17 	ldw	r5,-4(fp)
  806af0:	080a0e40 	call	80a0e4 <__udivsi3>
  806af4:	e0bff715 	stw	r2,-36(fp)
   fmt = FS_FAT12;
  806af8:	00800044 	movi	r2,1
  806afc:	e0bfec05 	stb	r2,-80(fp)
   if (n_clst >= MIN_FAT16) fmt = FS_FAT16;
  806b00:	e0bff717 	ldw	r2,-36(fp)
  806b04:	1083fdb0 	cmpltui	r2,r2,4086
  806b08:	1000021e 	bne	r2,zero,806b14 <f_mkfs+0x208>
  806b0c:	00800084 	movi	r2,2
  806b10:	e0bfec05 	stb	r2,-80(fp)
   if (n_clst >= MIN_FAT32) fmt = FS_FAT32;
  806b14:	e0bff717 	ldw	r2,-36(fp)
  806b18:	10bffdb0 	cmpltui	r2,r2,65526
  806b1c:	1000021e 	bne	r2,zero,806b28 <f_mkfs+0x21c>
  806b20:	008000c4 	movi	r2,3
  806b24:	e0bfec05 	stb	r2,-80(fp)

   /* Determine offset and size of FAT structure */
   if (fmt == FS_FAT32) {
  806b28:	e0bfec03 	ldbu	r2,-80(fp)
  806b2c:	108000d8 	cmpnei	r2,r2,3
  806b30:	10000b1e 	bne	r2,zero,806b60 <f_mkfs+0x254>
      n_fat = ((n_clst * 4) + 8 + SS(fs) - 1) / SS(fs);
  806b34:	e0bff717 	ldw	r2,-36(fp)
  806b38:	10802084 	addi	r2,r2,130
  806b3c:	1085883a 	add	r2,r2,r2
  806b40:	1085883a 	add	r2,r2,r2
  806b44:	10bfffc4 	addi	r2,r2,-1
  806b48:	1004d27a 	srli	r2,r2,9
  806b4c:	e0bff115 	stw	r2,-60(fp)
      n_rsv = 32;
  806b50:	00800804 	movi	r2,32
  806b54:	e0bff015 	stw	r2,-64(fp)
      n_dir = 0;
  806b58:	e03ff215 	stw	zero,-56(fp)
  806b5c:	00001706 	br	806bbc <f_mkfs+0x2b0>
   } else {
      n_fat = (fmt == FS_FAT12) ? (n_clst * 3 + 1) / 2 + 3 : (n_clst * 2) + 4;
  806b60:	e0bfec03 	ldbu	r2,-80(fp)
  806b64:	10800058 	cmpnei	r2,r2,1
  806b68:	1000081e 	bne	r2,zero,806b8c <f_mkfs+0x280>
  806b6c:	e0fff717 	ldw	r3,-36(fp)
  806b70:	1805883a 	mov	r2,r3
  806b74:	1085883a 	add	r2,r2,r2
  806b78:	10c5883a 	add	r2,r2,r3
  806b7c:	10800044 	addi	r2,r2,1
  806b80:	1004d07a 	srli	r2,r2,1
  806b84:	108000c4 	addi	r2,r2,3
  806b88:	00000306 	br	806b98 <f_mkfs+0x28c>
  806b8c:	e0bff717 	ldw	r2,-36(fp)
  806b90:	10800084 	addi	r2,r2,2
  806b94:	1085883a 	add	r2,r2,r2
  806b98:	e0bff115 	stw	r2,-60(fp)
      n_fat = (n_fat + SS(fs) - 1) / SS(fs);
  806b9c:	e0bff117 	ldw	r2,-60(fp)
  806ba0:	10807fc4 	addi	r2,r2,511
  806ba4:	1004d27a 	srli	r2,r2,9
  806ba8:	e0bff115 	stw	r2,-60(fp)
      n_rsv = 1;
  806bac:	00800044 	movi	r2,1
  806bb0:	e0bff015 	stw	r2,-64(fp)
      n_dir = (uint32_t)N_ROOTDIR * SZ_DIR / SS(fs);
  806bb4:	00800804 	movi	r2,32
  806bb8:	e0bff215 	stw	r2,-56(fp)
   }
   b_fat = b_vol + n_rsv;           /* FAT area start sector */
  806bbc:	e0fff517 	ldw	r3,-44(fp)
  806bc0:	e0bff017 	ldw	r2,-64(fp)
  806bc4:	1885883a 	add	r2,r3,r2
  806bc8:	e0bfef15 	stw	r2,-68(fp)
   b_dir = b_fat + n_fat * N_FATS;     /* Directory area start sector */
  806bcc:	e0ffef17 	ldw	r3,-68(fp)
  806bd0:	e0bff117 	ldw	r2,-60(fp)
  806bd4:	1885883a 	add	r2,r3,r2
  806bd8:	e0bff815 	stw	r2,-32(fp)
   b_data = b_dir + n_dir;          /* Data area start sector */
  806bdc:	e0fff817 	ldw	r3,-32(fp)
  806be0:	e0bff217 	ldw	r2,-56(fp)
  806be4:	1885883a 	add	r2,r3,r2
  806be8:	e0bff915 	stw	r2,-28(fp)
   if (n_vol < b_data + au - b_vol) return FR_MKFS_ABORTED; /* Too small volume */
  806bec:	e0fff917 	ldw	r3,-28(fp)
  806bf0:	e0bfff17 	ldw	r2,-4(fp)
  806bf4:	1887883a 	add	r3,r3,r2
  806bf8:	e0bff517 	ldw	r2,-44(fp)
  806bfc:	1885c83a 	sub	r2,r3,r2
  806c00:	e0fffc17 	ldw	r3,-16(fp)
  806c04:	1880022e 	bgeu	r3,r2,806c10 <f_mkfs+0x304>
  806c08:	00800384 	movi	r2,14
  806c0c:	0002e906 	br	8077b4 <f_mkfs+0xea8>

   /* Align data start sector to erase block boundary (for flash memory media) */
   if (disk_ioctl(pdrv, GET_BLOCK_SIZE, &n) != RES_OK || !n || n > 32768) n = 1;
  806c10:	e0fff403 	ldbu	r3,-48(fp)
  806c14:	e0bffb04 	addi	r2,fp,-20
  806c18:	1809883a 	mov	r4,r3
  806c1c:	014000c4 	movi	r5,3
  806c20:	100d883a 	mov	r6,r2
  806c24:	08010740 	call	801074 <ffs_DiskIOIoctl>
  806c28:	1000051e 	bne	r2,zero,806c40 <f_mkfs+0x334>
  806c2c:	e0bffb17 	ldw	r2,-20(fp)
  806c30:	10000326 	beq	r2,zero,806c40 <f_mkfs+0x334>
  806c34:	e0bffb17 	ldw	r2,-20(fp)
  806c38:	10a00070 	cmpltui	r2,r2,32769
  806c3c:	1000021e 	bne	r2,zero,806c48 <f_mkfs+0x33c>
  806c40:	00800044 	movi	r2,1
  806c44:	e0bffb15 	stw	r2,-20(fp)
   n = (b_data + n - 1) & ~(n - 1); /* Next nearest erase block from current data start */
  806c48:	e0fffb17 	ldw	r3,-20(fp)
  806c4c:	e0bff917 	ldw	r2,-28(fp)
  806c50:	1885883a 	add	r2,r3,r2
  806c54:	10ffffc4 	addi	r3,r2,-1
  806c58:	e0bffb17 	ldw	r2,-20(fp)
  806c5c:	0085c83a 	sub	r2,zero,r2
  806c60:	1884703a 	and	r2,r3,r2
  806c64:	e0bffb15 	stw	r2,-20(fp)
   n = (n - b_data) / N_FATS;
  806c68:	e0fffb17 	ldw	r3,-20(fp)
  806c6c:	e0bff917 	ldw	r2,-28(fp)
  806c70:	1885c83a 	sub	r2,r3,r2
  806c74:	e0bffb15 	stw	r2,-20(fp)
   if (fmt == FS_FAT32) {     /* FAT32: Move FAT offset */
  806c78:	e0bfec03 	ldbu	r2,-80(fp)
  806c7c:	108000d8 	cmpnei	r2,r2,3
  806c80:	1000091e 	bne	r2,zero,806ca8 <f_mkfs+0x39c>
      n_rsv += n;
  806c84:	e0bffb17 	ldw	r2,-20(fp)
  806c88:	e0fff017 	ldw	r3,-64(fp)
  806c8c:	1885883a 	add	r2,r3,r2
  806c90:	e0bff015 	stw	r2,-64(fp)
      b_fat += n;
  806c94:	e0bffb17 	ldw	r2,-20(fp)
  806c98:	e0ffef17 	ldw	r3,-68(fp)
  806c9c:	1885883a 	add	r2,r3,r2
  806ca0:	e0bfef15 	stw	r2,-68(fp)
  806ca4:	00000406 	br	806cb8 <f_mkfs+0x3ac>
   } else {             /* FAT12/16: Expand FAT size */
      n_fat += n;
  806ca8:	e0bffb17 	ldw	r2,-20(fp)
  806cac:	e0fff117 	ldw	r3,-60(fp)
  806cb0:	1885883a 	add	r2,r3,r2
  806cb4:	e0bff115 	stw	r2,-60(fp)
   }

   /* Determine number of clusters and final check of validity of the FAT sub-type */
   n_clst = (n_vol - n_rsv - n_fat * N_FATS - n_dir) / au;
  806cb8:	e0fffc17 	ldw	r3,-16(fp)
  806cbc:	e0bff017 	ldw	r2,-64(fp)
  806cc0:	1887c83a 	sub	r3,r3,r2
  806cc4:	e0bff117 	ldw	r2,-60(fp)
  806cc8:	1887c83a 	sub	r3,r3,r2
  806ccc:	e0bff217 	ldw	r2,-56(fp)
  806cd0:	1885c83a 	sub	r2,r3,r2
  806cd4:	1009883a 	mov	r4,r2
  806cd8:	e17fff17 	ldw	r5,-4(fp)
  806cdc:	080a0e40 	call	80a0e4 <__udivsi3>
  806ce0:	e0bff715 	stw	r2,-36(fp)
   if (   (fmt == FS_FAT16 && n_clst < MIN_FAT16)
  806ce4:	e0bfec03 	ldbu	r2,-80(fp)
  806ce8:	10800098 	cmpnei	r2,r2,2
  806cec:	1000031e 	bne	r2,zero,806cfc <f_mkfs+0x3f0>
  806cf0:	e0bff717 	ldw	r2,-36(fp)
  806cf4:	1083fdb0 	cmpltui	r2,r2,4086
  806cf8:	1000061e 	bne	r2,zero,806d14 <f_mkfs+0x408>
      || (fmt == FS_FAT32 && n_clst < MIN_FAT32))
  806cfc:	e0bfec03 	ldbu	r2,-80(fp)
  806d00:	108000d8 	cmpnei	r2,r2,3
  806d04:	1000051e 	bne	r2,zero,806d1c <f_mkfs+0x410>
  806d08:	e0bff717 	ldw	r2,-36(fp)
  806d0c:	10bffda8 	cmpgeui	r2,r2,65526
  806d10:	1000021e 	bne	r2,zero,806d1c <f_mkfs+0x410>
      return FR_MKFS_ABORTED;
  806d14:	00800384 	movi	r2,14
  806d18:	0002a606 	br	8077b4 <f_mkfs+0xea8>

   switch (fmt) { /* Determine system ID for partition table */
  806d1c:	e0bfec03 	ldbu	r2,-80(fp)
  806d20:	10c00060 	cmpeqi	r3,r2,1
  806d24:	1800031e 	bne	r3,zero,806d34 <f_mkfs+0x428>
  806d28:	108000a0 	cmpeqi	r2,r2,2
  806d2c:	1000041e 	bne	r2,zero,806d40 <f_mkfs+0x434>
  806d30:	00000b06 	br	806d60 <f_mkfs+0x454>
   case FS_FAT12: sys = 0x01; break;
  806d34:	00800044 	movi	r2,1
  806d38:	e0bfec85 	stb	r2,-78(fp)
  806d3c:	00000a06 	br	806d68 <f_mkfs+0x45c>
   case FS_FAT16: sys = (n_vol < 0x10000) ? 0x04 : 0x06; break;
  806d40:	e0bffc17 	ldw	r2,-16(fp)
  806d44:	00ffffd4 	movui	r3,65535
  806d48:	18800236 	bltu	r3,r2,806d54 <f_mkfs+0x448>
  806d4c:	00800104 	movi	r2,4
  806d50:	00000106 	br	806d58 <f_mkfs+0x44c>
  806d54:	00800184 	movi	r2,6
  806d58:	e0bfec85 	stb	r2,-78(fp)
  806d5c:	00000206 	br	806d68 <f_mkfs+0x45c>
   default:       sys = 0x0C;
  806d60:	00800304 	movi	r2,12
  806d64:	e0bfec85 	stb	r2,-78(fp)
      tbl = &fs->win[MBR_Table + (part - 1) * SZ_PTE];
      tbl[4] = sys;
      if (disk_write(pdrv, fs->win, 0, 1) != RES_OK) return FR_DISK_ERR;
      md = 0xF8;
   } else {
      if (sfd) {  /* No patition table (SFD) */
  806d68:	e0bffe03 	ldbu	r2,-8(fp)
  806d6c:	10000326 	beq	r2,zero,806d7c <f_mkfs+0x470>
         md = 0xF0;
  806d70:	00bffc04 	movi	r2,-16
  806d74:	e0bfec45 	stb	r2,-79(fp)
  806d78:	00006106 	br	806f00 <f_mkfs+0x5f4>
      } else { /* Create partition table (FDISK) */
         mem_set(fs->win, 0, SS(fs));
  806d7c:	e0bff317 	ldw	r2,-52(fp)
  806d80:	10800c04 	addi	r2,r2,48
  806d84:	1009883a 	mov	r4,r2
  806d88:	000b883a 	mov	r5,zero
  806d8c:	01808004 	movi	r6,512
  806d90:	08015b40 	call	8015b4 <mem_set>
         tbl = fs->win+MBR_Table;   /* Create partiton table for single partition in the drive */
  806d94:	e0bff317 	ldw	r2,-52(fp)
  806d98:	10807b84 	addi	r2,r2,494
  806d9c:	e0bffa15 	stw	r2,-24(fp)
         tbl[1] = 1;                /* Partition start head */
  806da0:	e0bffa17 	ldw	r2,-24(fp)
  806da4:	10800044 	addi	r2,r2,1
  806da8:	00c00044 	movi	r3,1
  806dac:	10c00005 	stb	r3,0(r2)
         tbl[2] = 1;                /* Partition start sector */
  806db0:	e0bffa17 	ldw	r2,-24(fp)
  806db4:	10800084 	addi	r2,r2,2
  806db8:	00c00044 	movi	r3,1
  806dbc:	10c00005 	stb	r3,0(r2)
         tbl[3] = 0;                /* Partition start cylinder */
  806dc0:	e0bffa17 	ldw	r2,-24(fp)
  806dc4:	108000c4 	addi	r2,r2,3
  806dc8:	10000005 	stb	zero,0(r2)
         tbl[4] = sys;              /* System type */
  806dcc:	e0bffa17 	ldw	r2,-24(fp)
  806dd0:	10800104 	addi	r2,r2,4
  806dd4:	e0ffec83 	ldbu	r3,-78(fp)
  806dd8:	10c00005 	stb	r3,0(r2)
         tbl[5] = 254;              /* Partition end head */
  806ddc:	e0bffa17 	ldw	r2,-24(fp)
  806de0:	10800144 	addi	r2,r2,5
  806de4:	00ffff84 	movi	r3,-2
  806de8:	10c00005 	stb	r3,0(r2)
         n = (b_vol + n_vol) / 63 / 255;
  806dec:	e0fffc17 	ldw	r3,-16(fp)
  806df0:	e0bff517 	ldw	r2,-44(fp)
  806df4:	1885883a 	add	r2,r3,r2
  806df8:	1009883a 	mov	r4,r2
  806dfc:	014fb044 	movi	r5,16065
  806e00:	080a0e40 	call	80a0e4 <__udivsi3>
  806e04:	e0bffb15 	stw	r2,-20(fp)
         tbl[6] = (uint8_t)((n >> 2) | 63);  /* Partiiton end sector */
  806e08:	e0bffa17 	ldw	r2,-24(fp)
  806e0c:	10800184 	addi	r2,r2,6
  806e10:	e0fffb17 	ldw	r3,-20(fp)
  806e14:	1806d0ba 	srli	r3,r3,2
  806e18:	18c00fd4 	ori	r3,r3,63
  806e1c:	10c00005 	stb	r3,0(r2)
         tbl[7] = (uint8_t)n;          /* End cylinder */
  806e20:	e0bffa17 	ldw	r2,-24(fp)
  806e24:	108001c4 	addi	r2,r2,7
  806e28:	e0fffb17 	ldw	r3,-20(fp)
  806e2c:	10c00005 	stb	r3,0(r2)
         ST_DWORD(tbl+8, 63);       /* Partition start in LBA */
  806e30:	e0bffa17 	ldw	r2,-24(fp)
  806e34:	10800204 	addi	r2,r2,8
  806e38:	00c00fc4 	movi	r3,63
  806e3c:	10c00005 	stb	r3,0(r2)
  806e40:	e0bffa17 	ldw	r2,-24(fp)
  806e44:	10800244 	addi	r2,r2,9
  806e48:	10000005 	stb	zero,0(r2)
  806e4c:	e0bffa17 	ldw	r2,-24(fp)
  806e50:	10800284 	addi	r2,r2,10
  806e54:	10000005 	stb	zero,0(r2)
  806e58:	e0bffa17 	ldw	r2,-24(fp)
  806e5c:	108002c4 	addi	r2,r2,11
  806e60:	10000005 	stb	zero,0(r2)
         ST_DWORD(tbl+12, n_vol);      /* Partition size in LBA */
  806e64:	e0bffa17 	ldw	r2,-24(fp)
  806e68:	10800304 	addi	r2,r2,12
  806e6c:	e0fffc17 	ldw	r3,-16(fp)
  806e70:	10c00005 	stb	r3,0(r2)
  806e74:	e0bffa17 	ldw	r2,-24(fp)
  806e78:	10800344 	addi	r2,r2,13
  806e7c:	e0fffc17 	ldw	r3,-16(fp)
  806e80:	18ffffcc 	andi	r3,r3,65535
  806e84:	1806d23a 	srli	r3,r3,8
  806e88:	10c00005 	stb	r3,0(r2)
  806e8c:	e0bffa17 	ldw	r2,-24(fp)
  806e90:	10800384 	addi	r2,r2,14
  806e94:	e0fffc17 	ldw	r3,-16(fp)
  806e98:	1806d43a 	srli	r3,r3,16
  806e9c:	10c00005 	stb	r3,0(r2)
  806ea0:	e0bffa17 	ldw	r2,-24(fp)
  806ea4:	108003c4 	addi	r2,r2,15
  806ea8:	e0fffc17 	ldw	r3,-16(fp)
  806eac:	1806d63a 	srli	r3,r3,24
  806eb0:	10c00005 	stb	r3,0(r2)
         ST_WORD(fs->win+BS_55AA, 0xAA55);   /* MBR signature */
  806eb4:	e0bff317 	ldw	r2,-52(fp)
  806eb8:	00c01544 	movi	r3,85
  806ebc:	10c08b85 	stb	r3,558(r2)
  806ec0:	e0bff317 	ldw	r2,-52(fp)
  806ec4:	00ffea84 	movi	r3,-86
  806ec8:	10c08bc5 	stb	r3,559(r2)
         if (disk_write(pdrv, fs->win, 0, 1) != RES_OK)  /* Write it to the MBR sector */
  806ecc:	e0fff403 	ldbu	r3,-48(fp)
  806ed0:	e0bff317 	ldw	r2,-52(fp)
  806ed4:	10800c04 	addi	r2,r2,48
  806ed8:	1809883a 	mov	r4,r3
  806edc:	100b883a 	mov	r5,r2
  806ee0:	000d883a 	mov	r6,zero
  806ee4:	01c00044 	movi	r7,1
  806ee8:	0800f080 	call	800f08 <ffs_DiskIOWrite>
  806eec:	10000226 	beq	r2,zero,806ef8 <f_mkfs+0x5ec>
            return FR_DISK_ERR;
  806ef0:	00800044 	movi	r2,1
  806ef4:	00022f06 	br	8077b4 <f_mkfs+0xea8>
         md = 0xF8;
  806ef8:	00bffe04 	movi	r2,-8
  806efc:	e0bfec45 	stb	r2,-79(fp)
      }
   }

   /* Create BPB in the VBR */
   tbl = fs->win;                   /* Clear sector */
  806f00:	e0bff317 	ldw	r2,-52(fp)
  806f04:	10800c04 	addi	r2,r2,48
  806f08:	e0bffa15 	stw	r2,-24(fp)
   mem_set(tbl, 0, SS(fs));
  806f0c:	e13ffa17 	ldw	r4,-24(fp)
  806f10:	000b883a 	mov	r5,zero
  806f14:	01808004 	movi	r6,512
  806f18:	08015b40 	call	8015b4 <mem_set>
   mem_cpy(tbl, "\xEB\xFE\x90" "MSDOS5.0", 11);/* Boot jump code, OEM name */
  806f1c:	e13ffa17 	ldw	r4,-24(fp)
  806f20:	01402074 	movhi	r5,129
  806f24:	29443804 	addi	r5,r5,4320
  806f28:	018002c4 	movi	r6,11
  806f2c:	08015480 	call	801548 <mem_cpy>
   i = SS(fs);                      /* Sector size */
  806f30:	00808004 	movi	r2,512
  806f34:	e0bfee15 	stw	r2,-72(fp)
   ST_WORD(tbl+BPB_BytsPerSec, i);
  806f38:	e0bffa17 	ldw	r2,-24(fp)
  806f3c:	108002c4 	addi	r2,r2,11
  806f40:	e0ffee17 	ldw	r3,-72(fp)
  806f44:	10c00005 	stb	r3,0(r2)
  806f48:	e0bffa17 	ldw	r2,-24(fp)
  806f4c:	10800304 	addi	r2,r2,12
  806f50:	e0ffee17 	ldw	r3,-72(fp)
  806f54:	18ffffcc 	andi	r3,r3,65535
  806f58:	1806d23a 	srli	r3,r3,8
  806f5c:	10c00005 	stb	r3,0(r2)
   tbl[BPB_SecPerClus] = (uint8_t)au;        /* Sectors per cluster */
  806f60:	e0bffa17 	ldw	r2,-24(fp)
  806f64:	10800344 	addi	r2,r2,13
  806f68:	e0ffff17 	ldw	r3,-4(fp)
  806f6c:	10c00005 	stb	r3,0(r2)
   ST_WORD(tbl+BPB_RsvdSecCnt, n_rsv);    /* Reserved sectors */
  806f70:	e0bffa17 	ldw	r2,-24(fp)
  806f74:	10800384 	addi	r2,r2,14
  806f78:	e0fff017 	ldw	r3,-64(fp)
  806f7c:	10c00005 	stb	r3,0(r2)
  806f80:	e0bffa17 	ldw	r2,-24(fp)
  806f84:	108003c4 	addi	r2,r2,15
  806f88:	e0fff017 	ldw	r3,-64(fp)
  806f8c:	18ffffcc 	andi	r3,r3,65535
  806f90:	1806d23a 	srli	r3,r3,8
  806f94:	10c00005 	stb	r3,0(r2)
   tbl[BPB_NumFATs] = N_FATS;          /* Number of FATs */
  806f98:	e0bffa17 	ldw	r2,-24(fp)
  806f9c:	10800404 	addi	r2,r2,16
  806fa0:	00c00044 	movi	r3,1
  806fa4:	10c00005 	stb	r3,0(r2)
   i = (fmt == FS_FAT32) ? 0 : N_ROOTDIR; /* Number of rootdir entries */
  806fa8:	e0bfec03 	ldbu	r2,-80(fp)
  806fac:	108000d8 	cmpnei	r2,r2,3
  806fb0:	1000021e 	bne	r2,zero,806fbc <f_mkfs+0x6b0>
  806fb4:	0005883a 	mov	r2,zero
  806fb8:	00000106 	br	806fc0 <f_mkfs+0x6b4>
  806fbc:	00808004 	movi	r2,512
  806fc0:	e0bfee15 	stw	r2,-72(fp)
   ST_WORD(tbl+BPB_RootEntCnt, i);
  806fc4:	e0bffa17 	ldw	r2,-24(fp)
  806fc8:	10800444 	addi	r2,r2,17
  806fcc:	e0ffee17 	ldw	r3,-72(fp)
  806fd0:	10c00005 	stb	r3,0(r2)
  806fd4:	e0bffa17 	ldw	r2,-24(fp)
  806fd8:	10800484 	addi	r2,r2,18
  806fdc:	e0ffee17 	ldw	r3,-72(fp)
  806fe0:	18ffffcc 	andi	r3,r3,65535
  806fe4:	1806d23a 	srli	r3,r3,8
  806fe8:	10c00005 	stb	r3,0(r2)
   if (n_vol < 0x10000) {              /* Number of total sectors */
  806fec:	e0bffc17 	ldw	r2,-16(fp)
  806ff0:	00ffffd4 	movui	r3,65535
  806ff4:	18800b36 	bltu	r3,r2,807024 <f_mkfs+0x718>
      ST_WORD(tbl+BPB_TotSec16, n_vol);
  806ff8:	e0bffa17 	ldw	r2,-24(fp)
  806ffc:	108004c4 	addi	r2,r2,19
  807000:	e0fffc17 	ldw	r3,-16(fp)
  807004:	10c00005 	stb	r3,0(r2)
  807008:	e0bffa17 	ldw	r2,-24(fp)
  80700c:	10800504 	addi	r2,r2,20
  807010:	e0fffc17 	ldw	r3,-16(fp)
  807014:	18ffffcc 	andi	r3,r3,65535
  807018:	1806d23a 	srli	r3,r3,8
  80701c:	10c00005 	stb	r3,0(r2)
  807020:	00001406 	br	807074 <f_mkfs+0x768>
   } else {
      ST_DWORD(tbl+BPB_TotSec32, n_vol);
  807024:	e0bffa17 	ldw	r2,-24(fp)
  807028:	10800804 	addi	r2,r2,32
  80702c:	e0fffc17 	ldw	r3,-16(fp)
  807030:	10c00005 	stb	r3,0(r2)
  807034:	e0bffa17 	ldw	r2,-24(fp)
  807038:	10800844 	addi	r2,r2,33
  80703c:	e0fffc17 	ldw	r3,-16(fp)
  807040:	18ffffcc 	andi	r3,r3,65535
  807044:	1806d23a 	srli	r3,r3,8
  807048:	10c00005 	stb	r3,0(r2)
  80704c:	e0bffa17 	ldw	r2,-24(fp)
  807050:	10800884 	addi	r2,r2,34
  807054:	e0fffc17 	ldw	r3,-16(fp)
  807058:	1806d43a 	srli	r3,r3,16
  80705c:	10c00005 	stb	r3,0(r2)
  807060:	e0bffa17 	ldw	r2,-24(fp)
  807064:	108008c4 	addi	r2,r2,35
  807068:	e0fffc17 	ldw	r3,-16(fp)
  80706c:	1806d63a 	srli	r3,r3,24
  807070:	10c00005 	stb	r3,0(r2)
   }
   tbl[BPB_Media] = md;             /* Media descriptor */
  807074:	e0bffa17 	ldw	r2,-24(fp)
  807078:	10800544 	addi	r2,r2,21
  80707c:	e0ffec43 	ldbu	r3,-79(fp)
  807080:	10c00005 	stb	r3,0(r2)
   ST_WORD(tbl+BPB_SecPerTrk, 63);        /* Number of sectors per track */
  807084:	e0bffa17 	ldw	r2,-24(fp)
  807088:	10800604 	addi	r2,r2,24
  80708c:	00c00fc4 	movi	r3,63
  807090:	10c00005 	stb	r3,0(r2)
  807094:	e0bffa17 	ldw	r2,-24(fp)
  807098:	10800644 	addi	r2,r2,25
  80709c:	10000005 	stb	zero,0(r2)
   ST_WORD(tbl+BPB_NumHeads, 255);        /* Number of heads */
  8070a0:	e0bffa17 	ldw	r2,-24(fp)
  8070a4:	10800684 	addi	r2,r2,26
  8070a8:	00ffffc4 	movi	r3,-1
  8070ac:	10c00005 	stb	r3,0(r2)
  8070b0:	e0bffa17 	ldw	r2,-24(fp)
  8070b4:	108006c4 	addi	r2,r2,27
  8070b8:	10000005 	stb	zero,0(r2)
   ST_DWORD(tbl+BPB_HiddSec, b_vol);      /* Hidden sectors */
  8070bc:	e0bffa17 	ldw	r2,-24(fp)
  8070c0:	10800704 	addi	r2,r2,28
  8070c4:	e0fff517 	ldw	r3,-44(fp)
  8070c8:	10c00005 	stb	r3,0(r2)
  8070cc:	e0bffa17 	ldw	r2,-24(fp)
  8070d0:	10800744 	addi	r2,r2,29
  8070d4:	e0fff517 	ldw	r3,-44(fp)
  8070d8:	18ffffcc 	andi	r3,r3,65535
  8070dc:	1806d23a 	srli	r3,r3,8
  8070e0:	10c00005 	stb	r3,0(r2)
  8070e4:	e0bffa17 	ldw	r2,-24(fp)
  8070e8:	10800784 	addi	r2,r2,30
  8070ec:	e0fff517 	ldw	r3,-44(fp)
  8070f0:	1806d43a 	srli	r3,r3,16
  8070f4:	10c00005 	stb	r3,0(r2)
  8070f8:	e0bffa17 	ldw	r2,-24(fp)
  8070fc:	108007c4 	addi	r2,r2,31
  807100:	e0fff517 	ldw	r3,-44(fp)
  807104:	1806d63a 	srli	r3,r3,24
  807108:	10c00005 	stb	r3,0(r2)
   n = get_fattime();                  /* Use current time as VSN */
  80710c:	080151c0 	call	80151c <get_fattime>
  807110:	e0bffb15 	stw	r2,-20(fp)
   if (fmt == FS_FAT32) {
  807114:	e0bfec03 	ldbu	r2,-80(fp)
  807118:	108000d8 	cmpnei	r2,r2,3
  80711c:	1000531e 	bne	r2,zero,80726c <f_mkfs+0x960>
      ST_DWORD(tbl+BS_VolID32, n);     /* VSN */
  807120:	e0bffa17 	ldw	r2,-24(fp)
  807124:	108010c4 	addi	r2,r2,67
  807128:	e0fffb17 	ldw	r3,-20(fp)
  80712c:	10c00005 	stb	r3,0(r2)
  807130:	e0bffa17 	ldw	r2,-24(fp)
  807134:	10801104 	addi	r2,r2,68
  807138:	e0fffb17 	ldw	r3,-20(fp)
  80713c:	18ffffcc 	andi	r3,r3,65535
  807140:	1806d23a 	srli	r3,r3,8
  807144:	10c00005 	stb	r3,0(r2)
  807148:	e0bffa17 	ldw	r2,-24(fp)
  80714c:	10801144 	addi	r2,r2,69
  807150:	e0fffb17 	ldw	r3,-20(fp)
  807154:	1806d43a 	srli	r3,r3,16
  807158:	10c00005 	stb	r3,0(r2)
  80715c:	e0bffa17 	ldw	r2,-24(fp)
  807160:	10801184 	addi	r2,r2,70
  807164:	e0fffb17 	ldw	r3,-20(fp)
  807168:	1806d63a 	srli	r3,r3,24
  80716c:	10c00005 	stb	r3,0(r2)
      ST_DWORD(tbl+BPB_FATSz32, n_fat);   /* Number of sectors per FAT */
  807170:	e0bffa17 	ldw	r2,-24(fp)
  807174:	10800904 	addi	r2,r2,36
  807178:	e0fff117 	ldw	r3,-60(fp)
  80717c:	10c00005 	stb	r3,0(r2)
  807180:	e0bffa17 	ldw	r2,-24(fp)
  807184:	10800944 	addi	r2,r2,37
  807188:	e0fff117 	ldw	r3,-60(fp)
  80718c:	18ffffcc 	andi	r3,r3,65535
  807190:	1806d23a 	srli	r3,r3,8
  807194:	10c00005 	stb	r3,0(r2)
  807198:	e0bffa17 	ldw	r2,-24(fp)
  80719c:	10800984 	addi	r2,r2,38
  8071a0:	e0fff117 	ldw	r3,-60(fp)
  8071a4:	1806d43a 	srli	r3,r3,16
  8071a8:	10c00005 	stb	r3,0(r2)
  8071ac:	e0bffa17 	ldw	r2,-24(fp)
  8071b0:	108009c4 	addi	r2,r2,39
  8071b4:	e0fff117 	ldw	r3,-60(fp)
  8071b8:	1806d63a 	srli	r3,r3,24
  8071bc:	10c00005 	stb	r3,0(r2)
      ST_DWORD(tbl+BPB_RootClus, 2);      /* Root directory start cluster (2) */
  8071c0:	e0bffa17 	ldw	r2,-24(fp)
  8071c4:	10800b04 	addi	r2,r2,44
  8071c8:	00c00084 	movi	r3,2
  8071cc:	10c00005 	stb	r3,0(r2)
  8071d0:	e0bffa17 	ldw	r2,-24(fp)
  8071d4:	10800b44 	addi	r2,r2,45
  8071d8:	10000005 	stb	zero,0(r2)
  8071dc:	e0bffa17 	ldw	r2,-24(fp)
  8071e0:	10800b84 	addi	r2,r2,46
  8071e4:	10000005 	stb	zero,0(r2)
  8071e8:	e0bffa17 	ldw	r2,-24(fp)
  8071ec:	10800bc4 	addi	r2,r2,47
  8071f0:	10000005 	stb	zero,0(r2)
      ST_WORD(tbl+BPB_FSInfo, 1);         /* FSInfo record offset (VBR+1) */
  8071f4:	e0bffa17 	ldw	r2,-24(fp)
  8071f8:	10800c04 	addi	r2,r2,48
  8071fc:	00c00044 	movi	r3,1
  807200:	10c00005 	stb	r3,0(r2)
  807204:	e0bffa17 	ldw	r2,-24(fp)
  807208:	10800c44 	addi	r2,r2,49
  80720c:	10000005 	stb	zero,0(r2)
      ST_WORD(tbl+BPB_BkBootSec, 6);      /* Backup boot record offset (VBR+6) */
  807210:	e0bffa17 	ldw	r2,-24(fp)
  807214:	10800c84 	addi	r2,r2,50
  807218:	00c00184 	movi	r3,6
  80721c:	10c00005 	stb	r3,0(r2)
  807220:	e0bffa17 	ldw	r2,-24(fp)
  807224:	10800cc4 	addi	r2,r2,51
  807228:	10000005 	stb	zero,0(r2)
      tbl[BS_DrvNum32] = 0x80;         /* Drive number */
  80722c:	e0bffa17 	ldw	r2,-24(fp)
  807230:	10801004 	addi	r2,r2,64
  807234:	00ffe004 	movi	r3,-128
  807238:	10c00005 	stb	r3,0(r2)
      tbl[BS_BootSig32] = 0x29;        /* Extended boot signature */
  80723c:	e0bffa17 	ldw	r2,-24(fp)
  807240:	10801084 	addi	r2,r2,66
  807244:	00c00a44 	movi	r3,41
  807248:	10c00005 	stb	r3,0(r2)
      mem_cpy(tbl+BS_VolLab32, "NO NAME    " "FAT32   ", 19);  /* Volume label, FAT signature */
  80724c:	e0bffa17 	ldw	r2,-24(fp)
  807250:	108011c4 	addi	r2,r2,71
  807254:	1009883a 	mov	r4,r2
  807258:	01402074 	movhi	r5,129
  80725c:	29443b04 	addi	r5,r5,4332
  807260:	018004c4 	movi	r6,19
  807264:	08015480 	call	801548 <mem_cpy>
  807268:	00002d06 	br	807320 <f_mkfs+0xa14>
   } else {
      ST_DWORD(tbl+BS_VolID, n);       /* VSN */
  80726c:	e0bffa17 	ldw	r2,-24(fp)
  807270:	108009c4 	addi	r2,r2,39
  807274:	e0fffb17 	ldw	r3,-20(fp)
  807278:	10c00005 	stb	r3,0(r2)
  80727c:	e0bffa17 	ldw	r2,-24(fp)
  807280:	10800a04 	addi	r2,r2,40
  807284:	e0fffb17 	ldw	r3,-20(fp)
  807288:	18ffffcc 	andi	r3,r3,65535
  80728c:	1806d23a 	srli	r3,r3,8
  807290:	10c00005 	stb	r3,0(r2)
  807294:	e0bffa17 	ldw	r2,-24(fp)
  807298:	10800a44 	addi	r2,r2,41
  80729c:	e0fffb17 	ldw	r3,-20(fp)
  8072a0:	1806d43a 	srli	r3,r3,16
  8072a4:	10c00005 	stb	r3,0(r2)
  8072a8:	e0bffa17 	ldw	r2,-24(fp)
  8072ac:	10800a84 	addi	r2,r2,42
  8072b0:	e0fffb17 	ldw	r3,-20(fp)
  8072b4:	1806d63a 	srli	r3,r3,24
  8072b8:	10c00005 	stb	r3,0(r2)
      ST_WORD(tbl+BPB_FATSz16, n_fat); /* Number of sectors per FAT */
  8072bc:	e0bffa17 	ldw	r2,-24(fp)
  8072c0:	10800584 	addi	r2,r2,22
  8072c4:	e0fff117 	ldw	r3,-60(fp)
  8072c8:	10c00005 	stb	r3,0(r2)
  8072cc:	e0bffa17 	ldw	r2,-24(fp)
  8072d0:	108005c4 	addi	r2,r2,23
  8072d4:	e0fff117 	ldw	r3,-60(fp)
  8072d8:	18ffffcc 	andi	r3,r3,65535
  8072dc:	1806d23a 	srli	r3,r3,8
  8072e0:	10c00005 	stb	r3,0(r2)
      tbl[BS_DrvNum] = 0x80;           /* Drive number */
  8072e4:	e0bffa17 	ldw	r2,-24(fp)
  8072e8:	10800904 	addi	r2,r2,36
  8072ec:	00ffe004 	movi	r3,-128
  8072f0:	10c00005 	stb	r3,0(r2)
      tbl[BS_BootSig] = 0x29;          /* Extended boot signature */
  8072f4:	e0bffa17 	ldw	r2,-24(fp)
  8072f8:	10800984 	addi	r2,r2,38
  8072fc:	00c00a44 	movi	r3,41
  807300:	10c00005 	stb	r3,0(r2)
      mem_cpy(tbl+BS_VolLab, "NO NAME    " "FAT     ", 19); /* Volume label, FAT signature */
  807304:	e0bffa17 	ldw	r2,-24(fp)
  807308:	10800ac4 	addi	r2,r2,43
  80730c:	1009883a 	mov	r4,r2
  807310:	01402074 	movhi	r5,129
  807314:	29444004 	addi	r5,r5,4352
  807318:	018004c4 	movi	r6,19
  80731c:	08015480 	call	801548 <mem_cpy>
   }
   ST_WORD(tbl+BS_55AA, 0xAA55);       /* Signature (Offset is fixed here regardless of sector size) */
  807320:	e0bffa17 	ldw	r2,-24(fp)
  807324:	10807f84 	addi	r2,r2,510
  807328:	00c01544 	movi	r3,85
  80732c:	10c00005 	stb	r3,0(r2)
  807330:	e0bffa17 	ldw	r2,-24(fp)
  807334:	10807fc4 	addi	r2,r2,511
  807338:	00ffea84 	movi	r3,-86
  80733c:	10c00005 	stb	r3,0(r2)
   if (disk_write(pdrv, tbl, b_vol, 1) != RES_OK)  /* Write it to the VBR sector */
  807340:	e0bff403 	ldbu	r2,-48(fp)
  807344:	1009883a 	mov	r4,r2
  807348:	e17ffa17 	ldw	r5,-24(fp)
  80734c:	e1bff517 	ldw	r6,-44(fp)
  807350:	01c00044 	movi	r7,1
  807354:	0800f080 	call	800f08 <ffs_DiskIOWrite>
  807358:	10000226 	beq	r2,zero,807364 <f_mkfs+0xa58>
      return FR_DISK_ERR;
  80735c:	00800044 	movi	r2,1
  807360:	00011406 	br	8077b4 <f_mkfs+0xea8>
   if (fmt == FS_FAT32)                   /* Write backup VBR if needed (VBR+6) */
  807364:	e0bfec03 	ldbu	r2,-80(fp)
  807368:	108000d8 	cmpnei	r2,r2,3
  80736c:	1000081e 	bne	r2,zero,807390 <f_mkfs+0xa84>
      disk_write(pdrv, tbl, b_vol + 6, 1);
  807370:	e0fff403 	ldbu	r3,-48(fp)
  807374:	e0bff517 	ldw	r2,-44(fp)
  807378:	10800184 	addi	r2,r2,6
  80737c:	1809883a 	mov	r4,r3
  807380:	e17ffa17 	ldw	r5,-24(fp)
  807384:	100d883a 	mov	r6,r2
  807388:	01c00044 	movi	r7,1
  80738c:	0800f080 	call	800f08 <ffs_DiskIOWrite>

   /* Initialize FAT area */
   wsect = b_fat;
  807390:	e0bfef17 	ldw	r2,-68(fp)
  807394:	e0bfed15 	stw	r2,-76(fp)
   for (i = 0; i < N_FATS; i++) {      /* Initialize each FAT copy */
  807398:	e03fee15 	stw	zero,-72(fp)
  80739c:	00008606 	br	8075b8 <f_mkfs+0xcac>
      mem_set(tbl, 0, SS(fs));         /* 1st sector of the FAT  */
  8073a0:	e13ffa17 	ldw	r4,-24(fp)
  8073a4:	000b883a 	mov	r5,zero
  8073a8:	01808004 	movi	r6,512
  8073ac:	08015b40 	call	8015b4 <mem_set>
      n = md;                       /* Media descriptor byte */
  8073b0:	e0bfec43 	ldbu	r2,-79(fp)
  8073b4:	e0bffb15 	stw	r2,-20(fp)
      if (fmt != FS_FAT32) {
  8073b8:	e0bfec03 	ldbu	r2,-80(fp)
  8073bc:	108000e0 	cmpeqi	r2,r2,3
  8073c0:	10001f1e 	bne	r2,zero,807440 <f_mkfs+0xb34>
         n |= (fmt == FS_FAT12) ? 0x00FFFF00 : 0xFFFFFF00;
  8073c4:	e0bfec03 	ldbu	r2,-80(fp)
  8073c8:	10800058 	cmpnei	r2,r2,1
  8073cc:	1000031e 	bne	r2,zero,8073dc <f_mkfs+0xad0>
  8073d0:	00804034 	movhi	r2,256
  8073d4:	10bfc004 	addi	r2,r2,-256
  8073d8:	00000106 	br	8073e0 <f_mkfs+0xad4>
  8073dc:	00bfc004 	movi	r2,-256
  8073e0:	e0fffb17 	ldw	r3,-20(fp)
  8073e4:	10c4b03a 	or	r2,r2,r3
  8073e8:	e0bffb15 	stw	r2,-20(fp)
         ST_DWORD(tbl+0, n);           /* Reserve cluster #0-1 (FAT12/16) */
  8073ec:	e0bffb17 	ldw	r2,-20(fp)
  8073f0:	1007883a 	mov	r3,r2
  8073f4:	e0bffa17 	ldw	r2,-24(fp)
  8073f8:	10c00005 	stb	r3,0(r2)
  8073fc:	e0bffa17 	ldw	r2,-24(fp)
  807400:	10800044 	addi	r2,r2,1
  807404:	e0fffb17 	ldw	r3,-20(fp)
  807408:	18ffffcc 	andi	r3,r3,65535
  80740c:	1806d23a 	srli	r3,r3,8
  807410:	10c00005 	stb	r3,0(r2)
  807414:	e0bffa17 	ldw	r2,-24(fp)
  807418:	10800084 	addi	r2,r2,2
  80741c:	e0fffb17 	ldw	r3,-20(fp)
  807420:	1806d43a 	srli	r3,r3,16
  807424:	10c00005 	stb	r3,0(r2)
  807428:	e0bffa17 	ldw	r2,-24(fp)
  80742c:	108000c4 	addi	r2,r2,3
  807430:	e0fffb17 	ldw	r3,-20(fp)
  807434:	1806d63a 	srli	r3,r3,24
  807438:	10c00005 	stb	r3,0(r2)
  80743c:	00003806 	br	807520 <f_mkfs+0xc14>
      } else {
         n |= 0xFFFFFF00;
  807440:	e0fffb17 	ldw	r3,-20(fp)
  807444:	00bfc004 	movi	r2,-256
  807448:	1884b03a 	or	r2,r3,r2
  80744c:	e0bffb15 	stw	r2,-20(fp)
         ST_DWORD(tbl+0, n);           /* Reserve cluster #0-1 (FAT32) */
  807450:	e0bffb17 	ldw	r2,-20(fp)
  807454:	1007883a 	mov	r3,r2
  807458:	e0bffa17 	ldw	r2,-24(fp)
  80745c:	10c00005 	stb	r3,0(r2)
  807460:	e0bffa17 	ldw	r2,-24(fp)
  807464:	10800044 	addi	r2,r2,1
  807468:	e0fffb17 	ldw	r3,-20(fp)
  80746c:	18ffffcc 	andi	r3,r3,65535
  807470:	1806d23a 	srli	r3,r3,8
  807474:	10c00005 	stb	r3,0(r2)
  807478:	e0bffa17 	ldw	r2,-24(fp)
  80747c:	10800084 	addi	r2,r2,2
  807480:	e0fffb17 	ldw	r3,-20(fp)
  807484:	1806d43a 	srli	r3,r3,16
  807488:	10c00005 	stb	r3,0(r2)
  80748c:	e0bffa17 	ldw	r2,-24(fp)
  807490:	108000c4 	addi	r2,r2,3
  807494:	e0fffb17 	ldw	r3,-20(fp)
  807498:	1806d63a 	srli	r3,r3,24
  80749c:	10c00005 	stb	r3,0(r2)
         ST_DWORD(tbl+4, 0xFFFFFFFF);
  8074a0:	e0bffa17 	ldw	r2,-24(fp)
  8074a4:	10800104 	addi	r2,r2,4
  8074a8:	00ffffc4 	movi	r3,-1
  8074ac:	10c00005 	stb	r3,0(r2)
  8074b0:	e0bffa17 	ldw	r2,-24(fp)
  8074b4:	10800144 	addi	r2,r2,5
  8074b8:	00ffffc4 	movi	r3,-1
  8074bc:	10c00005 	stb	r3,0(r2)
  8074c0:	e0bffa17 	ldw	r2,-24(fp)
  8074c4:	10800184 	addi	r2,r2,6
  8074c8:	00ffffc4 	movi	r3,-1
  8074cc:	10c00005 	stb	r3,0(r2)
  8074d0:	e0bffa17 	ldw	r2,-24(fp)
  8074d4:	108001c4 	addi	r2,r2,7
  8074d8:	00ffffc4 	movi	r3,-1
  8074dc:	10c00005 	stb	r3,0(r2)
         ST_DWORD(tbl+8, 0x0FFFFFFF);  /* Reserve cluster #2 for root dir */
  8074e0:	e0bffa17 	ldw	r2,-24(fp)
  8074e4:	10800204 	addi	r2,r2,8
  8074e8:	00ffffc4 	movi	r3,-1
  8074ec:	10c00005 	stb	r3,0(r2)
  8074f0:	e0bffa17 	ldw	r2,-24(fp)
  8074f4:	10800244 	addi	r2,r2,9
  8074f8:	00ffffc4 	movi	r3,-1
  8074fc:	10c00005 	stb	r3,0(r2)
  807500:	e0bffa17 	ldw	r2,-24(fp)
  807504:	10800284 	addi	r2,r2,10
  807508:	00ffffc4 	movi	r3,-1
  80750c:	10c00005 	stb	r3,0(r2)
  807510:	e0bffa17 	ldw	r2,-24(fp)
  807514:	108002c4 	addi	r2,r2,11
  807518:	00c003c4 	movi	r3,15
  80751c:	10c00005 	stb	r3,0(r2)
      }
      if (disk_write(pdrv, tbl, wsect++, 1) != RES_OK)
  807520:	e13ff403 	ldbu	r4,-48(fp)
  807524:	e0bfed17 	ldw	r2,-76(fp)
  807528:	10c00044 	addi	r3,r2,1
  80752c:	e0ffed15 	stw	r3,-76(fp)
  807530:	e17ffa17 	ldw	r5,-24(fp)
  807534:	100d883a 	mov	r6,r2
  807538:	01c00044 	movi	r7,1
  80753c:	0800f080 	call	800f08 <ffs_DiskIOWrite>
  807540:	10000226 	beq	r2,zero,80754c <f_mkfs+0xc40>
         return FR_DISK_ERR;
  807544:	00800044 	movi	r2,1
  807548:	00009a06 	br	8077b4 <f_mkfs+0xea8>
      mem_set(tbl, 0, SS(fs));         /* Fill following FAT entries with zero */
  80754c:	e13ffa17 	ldw	r4,-24(fp)
  807550:	000b883a 	mov	r5,zero
  807554:	01808004 	movi	r6,512
  807558:	08015b40 	call	8015b4 <mem_set>
      for (n = 1; n < n_fat; n++) {    /* This loop may take a time on FAT32 volume due to many single sector writes */
  80755c:	00800044 	movi	r2,1
  807560:	e0bffb15 	stw	r2,-20(fp)
  807564:	00000e06 	br	8075a0 <f_mkfs+0xc94>
         if (disk_write(pdrv, tbl, wsect++, 1) != RES_OK)
  807568:	e13ff403 	ldbu	r4,-48(fp)
  80756c:	e0bfed17 	ldw	r2,-76(fp)
  807570:	10c00044 	addi	r3,r2,1
  807574:	e0ffed15 	stw	r3,-76(fp)
  807578:	e17ffa17 	ldw	r5,-24(fp)
  80757c:	100d883a 	mov	r6,r2
  807580:	01c00044 	movi	r7,1
  807584:	0800f080 	call	800f08 <ffs_DiskIOWrite>
  807588:	10000226 	beq	r2,zero,807594 <f_mkfs+0xc88>
            return FR_DISK_ERR;
  80758c:	00800044 	movi	r2,1
  807590:	00008806 	br	8077b4 <f_mkfs+0xea8>
         ST_DWORD(tbl+8, 0x0FFFFFFF);  /* Reserve cluster #2 for root dir */
      }
      if (disk_write(pdrv, tbl, wsect++, 1) != RES_OK)
         return FR_DISK_ERR;
      mem_set(tbl, 0, SS(fs));         /* Fill following FAT entries with zero */
      for (n = 1; n < n_fat; n++) {    /* This loop may take a time on FAT32 volume due to many single sector writes */
  807594:	e0bffb17 	ldw	r2,-20(fp)
  807598:	10800044 	addi	r2,r2,1
  80759c:	e0bffb15 	stw	r2,-20(fp)
  8075a0:	e0fffb17 	ldw	r3,-20(fp)
  8075a4:	e0bff117 	ldw	r2,-60(fp)
  8075a8:	18bfef36 	bltu	r3,r2,807568 <__alt_data_end+0xff807568>
   if (fmt == FS_FAT32)                   /* Write backup VBR if needed (VBR+6) */
      disk_write(pdrv, tbl, b_vol + 6, 1);

   /* Initialize FAT area */
   wsect = b_fat;
   for (i = 0; i < N_FATS; i++) {      /* Initialize each FAT copy */
  8075ac:	e0bfee17 	ldw	r2,-72(fp)
  8075b0:	10800044 	addi	r2,r2,1
  8075b4:	e0bfee15 	stw	r2,-72(fp)
  8075b8:	e0bfee17 	ldw	r2,-72(fp)
  8075bc:	103f7826 	beq	r2,zero,8073a0 <__alt_data_end+0xff8073a0>
            return FR_DISK_ERR;
      }
   }

   /* Initialize root directory */
   i = (fmt == FS_FAT32) ? au : n_dir;
  8075c0:	e0bfec03 	ldbu	r2,-80(fp)
  8075c4:	108000d8 	cmpnei	r2,r2,3
  8075c8:	1000021e 	bne	r2,zero,8075d4 <f_mkfs+0xcc8>
  8075cc:	e0bfff17 	ldw	r2,-4(fp)
  8075d0:	00000106 	br	8075d8 <f_mkfs+0xccc>
  8075d4:	e0bff217 	ldw	r2,-56(fp)
  8075d8:	e0bfee15 	stw	r2,-72(fp)
   do {
      if (disk_write(pdrv, tbl, wsect++, 1) != RES_OK)
  8075dc:	e13ff403 	ldbu	r4,-48(fp)
  8075e0:	e0bfed17 	ldw	r2,-76(fp)
  8075e4:	10c00044 	addi	r3,r2,1
  8075e8:	e0ffed15 	stw	r3,-76(fp)
  8075ec:	e17ffa17 	ldw	r5,-24(fp)
  8075f0:	100d883a 	mov	r6,r2
  8075f4:	01c00044 	movi	r7,1
  8075f8:	0800f080 	call	800f08 <ffs_DiskIOWrite>
  8075fc:	10000226 	beq	r2,zero,807608 <f_mkfs+0xcfc>
         return FR_DISK_ERR;
  807600:	00800044 	movi	r2,1
  807604:	00006b06 	br	8077b4 <f_mkfs+0xea8>
   } while (--i);
  807608:	e0bfee17 	ldw	r2,-72(fp)
  80760c:	10bfffc4 	addi	r2,r2,-1
  807610:	e0bfee15 	stw	r2,-72(fp)
  807614:	e0bfee17 	ldw	r2,-72(fp)
  807618:	103ff01e 	bne	r2,zero,8075dc <__alt_data_end+0xff8075dc>
      disk_ioctl(pdrv, CTRL_ERASE_SECTOR, eb);
   }
#endif

   /* Create FSInfo if needed */
   if (fmt == FS_FAT32) {
  80761c:	e0bfec03 	ldbu	r2,-80(fp)
  807620:	108000d8 	cmpnei	r2,r2,3
  807624:	10005c1e 	bne	r2,zero,807798 <f_mkfs+0xe8c>
      ST_DWORD(tbl+FSI_LeadSig, 0x41615252);
  807628:	e0bffa17 	ldw	r2,-24(fp)
  80762c:	00c01484 	movi	r3,82
  807630:	10c00005 	stb	r3,0(r2)
  807634:	e0bffa17 	ldw	r2,-24(fp)
  807638:	10800044 	addi	r2,r2,1
  80763c:	00c01484 	movi	r3,82
  807640:	10c00005 	stb	r3,0(r2)
  807644:	e0bffa17 	ldw	r2,-24(fp)
  807648:	10800084 	addi	r2,r2,2
  80764c:	00c01844 	movi	r3,97
  807650:	10c00005 	stb	r3,0(r2)
  807654:	e0bffa17 	ldw	r2,-24(fp)
  807658:	108000c4 	addi	r2,r2,3
  80765c:	00c01044 	movi	r3,65
  807660:	10c00005 	stb	r3,0(r2)
      ST_DWORD(tbl+FSI_StrucSig, 0x61417272);
  807664:	e0bffa17 	ldw	r2,-24(fp)
  807668:	10807904 	addi	r2,r2,484
  80766c:	00c01c84 	movi	r3,114
  807670:	10c00005 	stb	r3,0(r2)
  807674:	e0bffa17 	ldw	r2,-24(fp)
  807678:	10807944 	addi	r2,r2,485
  80767c:	00c01c84 	movi	r3,114
  807680:	10c00005 	stb	r3,0(r2)
  807684:	e0bffa17 	ldw	r2,-24(fp)
  807688:	10807984 	addi	r2,r2,486
  80768c:	00c01044 	movi	r3,65
  807690:	10c00005 	stb	r3,0(r2)
  807694:	e0bffa17 	ldw	r2,-24(fp)
  807698:	108079c4 	addi	r2,r2,487
  80769c:	00c01844 	movi	r3,97
  8076a0:	10c00005 	stb	r3,0(r2)
      ST_DWORD(tbl+FSI_Free_Count, n_clst - 1); /* Number of free clusters */
  8076a4:	e0bffa17 	ldw	r2,-24(fp)
  8076a8:	10807a04 	addi	r2,r2,488
  8076ac:	e0fff717 	ldw	r3,-36(fp)
  8076b0:	18ffffc4 	addi	r3,r3,-1
  8076b4:	10c00005 	stb	r3,0(r2)
  8076b8:	e0bffa17 	ldw	r2,-24(fp)
  8076bc:	10807a44 	addi	r2,r2,489
  8076c0:	e0fff717 	ldw	r3,-36(fp)
  8076c4:	18ffffc4 	addi	r3,r3,-1
  8076c8:	18ffffcc 	andi	r3,r3,65535
  8076cc:	1806d23a 	srli	r3,r3,8
  8076d0:	10c00005 	stb	r3,0(r2)
  8076d4:	e0bffa17 	ldw	r2,-24(fp)
  8076d8:	10807a84 	addi	r2,r2,490
  8076dc:	e0fff717 	ldw	r3,-36(fp)
  8076e0:	18ffffc4 	addi	r3,r3,-1
  8076e4:	1806d43a 	srli	r3,r3,16
  8076e8:	10c00005 	stb	r3,0(r2)
  8076ec:	e0bffa17 	ldw	r2,-24(fp)
  8076f0:	10807ac4 	addi	r2,r2,491
  8076f4:	e0fff717 	ldw	r3,-36(fp)
  8076f8:	18ffffc4 	addi	r3,r3,-1
  8076fc:	1806d63a 	srli	r3,r3,24
  807700:	10c00005 	stb	r3,0(r2)
      ST_DWORD(tbl+FSI_Nxt_Free, 2);            /* Last allocated cluster# */
  807704:	e0bffa17 	ldw	r2,-24(fp)
  807708:	10807b04 	addi	r2,r2,492
  80770c:	00c00084 	movi	r3,2
  807710:	10c00005 	stb	r3,0(r2)
  807714:	e0bffa17 	ldw	r2,-24(fp)
  807718:	10807b44 	addi	r2,r2,493
  80771c:	10000005 	stb	zero,0(r2)
  807720:	e0bffa17 	ldw	r2,-24(fp)
  807724:	10807b84 	addi	r2,r2,494
  807728:	10000005 	stb	zero,0(r2)
  80772c:	e0bffa17 	ldw	r2,-24(fp)
  807730:	10807bc4 	addi	r2,r2,495
  807734:	10000005 	stb	zero,0(r2)
      ST_WORD(tbl+BS_55AA, 0xAA55);
  807738:	e0bffa17 	ldw	r2,-24(fp)
  80773c:	10807f84 	addi	r2,r2,510
  807740:	00c01544 	movi	r3,85
  807744:	10c00005 	stb	r3,0(r2)
  807748:	e0bffa17 	ldw	r2,-24(fp)
  80774c:	10807fc4 	addi	r2,r2,511
  807750:	00ffea84 	movi	r3,-86
  807754:	10c00005 	stb	r3,0(r2)
      disk_write(pdrv, tbl, b_vol + 1, 1);   /* Write original (VBR+1) */
  807758:	e0fff403 	ldbu	r3,-48(fp)
  80775c:	e0bff517 	ldw	r2,-44(fp)
  807760:	10800044 	addi	r2,r2,1
  807764:	1809883a 	mov	r4,r3
  807768:	e17ffa17 	ldw	r5,-24(fp)
  80776c:	100d883a 	mov	r6,r2
  807770:	01c00044 	movi	r7,1
  807774:	0800f080 	call	800f08 <ffs_DiskIOWrite>
      disk_write(pdrv, tbl, b_vol + 7, 1);   /* Write backup (VBR+7) */
  807778:	e0fff403 	ldbu	r3,-48(fp)
  80777c:	e0bff517 	ldw	r2,-44(fp)
  807780:	108001c4 	addi	r2,r2,7
  807784:	1809883a 	mov	r4,r3
  807788:	e17ffa17 	ldw	r5,-24(fp)
  80778c:	100d883a 	mov	r6,r2
  807790:	01c00044 	movi	r7,1
  807794:	0800f080 	call	800f08 <ffs_DiskIOWrite>
   }

   return (disk_ioctl(pdrv, CTRL_SYNC, 0) == RES_OK) ? FR_OK : FR_DISK_ERR;
  807798:	e0bff403 	ldbu	r2,-48(fp)
  80779c:	1009883a 	mov	r4,r2
  8077a0:	000b883a 	mov	r5,zero
  8077a4:	000d883a 	mov	r6,zero
  8077a8:	08010740 	call	801074 <ffs_DiskIOIoctl>
  8077ac:	1004c03a 	cmpne	r2,r2,zero
  8077b0:	10803fcc 	andi	r2,r2,255
}
  8077b4:	e037883a 	mov	sp,fp
  8077b8:	dfc00117 	ldw	ra,4(sp)
  8077bc:	df000017 	ldw	fp,0(sp)
  8077c0:	dec00204 	addi	sp,sp,8
  8077c4:	f800283a 	ret

008077c8 <f_gets>:
TCHAR* f_gets (
   TCHAR* buff,   /* Pointer to the string buffer to read */
   int len,    /* Size of string buffer (characters) */
   FIL* fil    /* Pointer to the file object */
)
{
  8077c8:	defff704 	addi	sp,sp,-36
  8077cc:	dfc00815 	stw	ra,32(sp)
  8077d0:	df000715 	stw	fp,28(sp)
  8077d4:	df000704 	addi	fp,sp,28
  8077d8:	e13ffd15 	stw	r4,-12(fp)
  8077dc:	e17ffe15 	stw	r5,-8(fp)
  8077e0:	e1bfff15 	stw	r6,-4(fp)
   int n = 0;
  8077e4:	e03ff915 	stw	zero,-28(fp)
   TCHAR c, *p = buff;
  8077e8:	e0bffd17 	ldw	r2,-12(fp)
  8077ec:	e0bffa15 	stw	r2,-24(fp)
   uint8_t s[2];
   uint32_t rc;


   while (n < len - 1) {         /* Read bytes until buffer gets filled */
  8077f0:	00001906 	br	807858 <f_gets+0x90>
      f_read(fil, s, 1, &rc);
  8077f4:	e0fffb44 	addi	r3,fp,-19
  8077f8:	e0bffc04 	addi	r2,fp,-16
  8077fc:	e13fff17 	ldw	r4,-4(fp)
  807800:	180b883a 	mov	r5,r3
  807804:	01800044 	movi	r6,1
  807808:	100f883a 	mov	r7,r2
  80780c:	08043a40 	call	8043a4 <f_read>
      if (rc != 1) break;        /* Break on EOF or error */
  807810:	e0bffc17 	ldw	r2,-16(fp)
  807814:	10800060 	cmpeqi	r2,r2,1
  807818:	1000011e 	bne	r2,zero,807820 <f_gets+0x58>
  80781c:	00001206 	br	807868 <f_gets+0xa0>
      c = s[0];
  807820:	e0bffb43 	ldbu	r2,-19(fp)
  807824:	e0bffb05 	stb	r2,-20(fp)
      }
#endif
#if _USE_STRFUNC >= 2
      if (c == '\r') continue;   /* Strip '\r' */
#endif
      *p++ = c;
  807828:	e0bffa17 	ldw	r2,-24(fp)
  80782c:	10c00044 	addi	r3,r2,1
  807830:	e0fffa15 	stw	r3,-24(fp)
  807834:	e0fffb03 	ldbu	r3,-20(fp)
  807838:	10c00005 	stb	r3,0(r2)
      n++;
  80783c:	e0bff917 	ldw	r2,-28(fp)
  807840:	10800044 	addi	r2,r2,1
  807844:	e0bff915 	stw	r2,-28(fp)
      if (c == '\n') break;      /* Break on EOL */
  807848:	e0bffb07 	ldb	r2,-20(fp)
  80784c:	10800298 	cmpnei	r2,r2,10
  807850:	1000011e 	bne	r2,zero,807858 <f_gets+0x90>
  807854:	00000406 	br	807868 <f_gets+0xa0>
   TCHAR c, *p = buff;
   uint8_t s[2];
   uint32_t rc;


   while (n < len - 1) {         /* Read bytes until buffer gets filled */
  807858:	e0bffe17 	ldw	r2,-8(fp)
  80785c:	10bfffc4 	addi	r2,r2,-1
  807860:	e0fff917 	ldw	r3,-28(fp)
  807864:	18bfe316 	blt	r3,r2,8077f4 <__alt_data_end+0xff8077f4>
#endif
      *p++ = c;
      n++;
      if (c == '\n') break;      /* Break on EOL */
   }
   *p = 0;
  807868:	e0bffa17 	ldw	r2,-24(fp)
  80786c:	10000005 	stb	zero,0(r2)
   return n ? buff : 0;       /* When no data read (eof or error), return with error. */
  807870:	e0bff917 	ldw	r2,-28(fp)
  807874:	10000226 	beq	r2,zero,807880 <f_gets+0xb8>
  807878:	e0bffd17 	ldw	r2,-12(fp)
  80787c:	00000106 	br	807884 <f_gets+0xbc>
  807880:	0005883a 	mov	r2,zero
}
  807884:	e037883a 	mov	sp,fp
  807888:	dfc00117 	ldw	ra,4(sp)
  80788c:	df000017 	ldw	fp,0(sp)
  807890:	dec00204 	addi	sp,sp,8
  807894:	f800283a 	ret

00807898 <f_putc>:
/*-----------------------------------------------------------------------*/
int f_putc (
   TCHAR c, /* A character to be output */
   FIL* fil /* Pointer to the file object */
)
{
  807898:	defff904 	addi	sp,sp,-28
  80789c:	dfc00615 	stw	ra,24(sp)
  8078a0:	df000515 	stw	fp,20(sp)
  8078a4:	df000504 	addi	fp,sp,20
  8078a8:	2005883a 	mov	r2,r4
  8078ac:	e17fff15 	stw	r5,-4(fp)
  8078b0:	e0bffe05 	stb	r2,-8(fp)
         s[2] = (uint8_t)(0x80 | (c & 0x3F));
         btw = 3;
      }
   }
#else          /* Write the character without conversion */
   s[0] = (uint8_t)c;
  8078b4:	e0bffe03 	ldbu	r2,-8(fp)
  8078b8:	e0bffd05 	stb	r2,-12(fp)
   btw = 1;
  8078bc:	00800044 	movi	r2,1
  8078c0:	e0bffb15 	stw	r2,-20(fp)
#endif
   f_write(fil, s, btw, &bw);    /* Write the char to the file */
  8078c4:	e0fffd04 	addi	r3,fp,-12
  8078c8:	e0bffc04 	addi	r2,fp,-16
  8078cc:	e13fff17 	ldw	r4,-4(fp)
  8078d0:	180b883a 	mov	r5,r3
  8078d4:	e1bffb17 	ldw	r6,-20(fp)
  8078d8:	100f883a 	mov	r7,r2
  8078dc:	08048880 	call	804888 <f_write>
   return (bw == btw) ? 1 : EOF; /* Return the result */
  8078e0:	e0fffc17 	ldw	r3,-16(fp)
  8078e4:	e0bffb17 	ldw	r2,-20(fp)
  8078e8:	1880021e 	bne	r3,r2,8078f4 <f_putc+0x5c>
  8078ec:	00800044 	movi	r2,1
  8078f0:	00000106 	br	8078f8 <f_putc+0x60>
  8078f4:	00bfffc4 	movi	r2,-1
}
  8078f8:	e037883a 	mov	sp,fp
  8078fc:	dfc00117 	ldw	ra,4(sp)
  807900:	df000017 	ldw	fp,0(sp)
  807904:	dec00204 	addi	sp,sp,8
  807908:	f800283a 	ret

0080790c <f_puts>:
/*-----------------------------------------------------------------------*/
int f_puts (
   const TCHAR* str, /* Pointer to the string to be output */
   FIL* fil       /* Pointer to the file object */
)
{
  80790c:	defffb04 	addi	sp,sp,-20
  807910:	dfc00415 	stw	ra,16(sp)
  807914:	df000315 	stw	fp,12(sp)
  807918:	df000304 	addi	fp,sp,12
  80791c:	e13ffe15 	stw	r4,-8(fp)
  807920:	e17fff15 	stw	r5,-4(fp)
   int n;


   for (n = 0; *str; str++, n++) {
  807924:	e03ffd15 	stw	zero,-12(fp)
  807928:	00001206 	br	807974 <f_puts+0x68>
      if (f_putc(*str, fil) == EOF) return EOF;
  80792c:	e0bffe17 	ldw	r2,-8(fp)
  807930:	10800003 	ldbu	r2,0(r2)
  807934:	10803fcc 	andi	r2,r2,255
  807938:	1080201c 	xori	r2,r2,128
  80793c:	10bfe004 	addi	r2,r2,-128
  807940:	1009883a 	mov	r4,r2
  807944:	e17fff17 	ldw	r5,-4(fp)
  807948:	08078980 	call	807898 <f_putc>
  80794c:	10bfffd8 	cmpnei	r2,r2,-1
  807950:	1000021e 	bne	r2,zero,80795c <f_puts+0x50>
  807954:	00bfffc4 	movi	r2,-1
  807958:	00000d06 	br	807990 <f_puts+0x84>
)
{
   int n;


   for (n = 0; *str; str++, n++) {
  80795c:	e0bffe17 	ldw	r2,-8(fp)
  807960:	10800044 	addi	r2,r2,1
  807964:	e0bffe15 	stw	r2,-8(fp)
  807968:	e0bffd17 	ldw	r2,-12(fp)
  80796c:	10800044 	addi	r2,r2,1
  807970:	e0bffd15 	stw	r2,-12(fp)
  807974:	e0bffe17 	ldw	r2,-8(fp)
  807978:	10800003 	ldbu	r2,0(r2)
  80797c:	10803fcc 	andi	r2,r2,255
  807980:	1080201c 	xori	r2,r2,128
  807984:	10bfe004 	addi	r2,r2,-128
  807988:	103fe81e 	bne	r2,zero,80792c <__alt_data_end+0xff80792c>
      if (f_putc(*str, fil) == EOF) return EOF;
   }
   return n;
  80798c:	e0bffd17 	ldw	r2,-12(fp)
}
  807990:	e037883a 	mov	sp,fp
  807994:	dfc00117 	ldw	ra,4(sp)
  807998:	df000017 	ldw	fp,0(sp)
  80799c:	dec00204 	addi	sp,sp,8
  8079a0:	f800283a 	ret

008079a4 <f_printf>:
int f_printf (
   FIL* fil,         /* Pointer to the file object */
   const TCHAR* str, /* Pointer to the format string */
   ...               /* Optional arguments... */
)
{
  8079a4:	deffeb04 	addi	sp,sp,-84
  8079a8:	dfc01215 	stw	ra,72(sp)
  8079ac:	df001115 	stw	fp,68(sp)
  8079b0:	df001104 	addi	fp,sp,68
  8079b4:	e13ffe15 	stw	r4,-8(fp)
  8079b8:	e1800215 	stw	r6,8(fp)
  8079bc:	e1c00315 	stw	r7,12(fp)
  8079c0:	e17fff15 	stw	r5,-4(fp)
   uint32_t v;
   TCHAR c, d, s[16], *p;
   int res, chc, cc;


   va_start(arp, str);
  8079c4:	e0800204 	addi	r2,fp,8
  8079c8:	e0bff915 	stw	r2,-28(fp)

   for (cc = res = 0; cc != EOF; res += cc) {
  8079cc:	e03ff515 	stw	zero,-44(fp)
  8079d0:	e0bff517 	ldw	r2,-44(fp)
  8079d4:	e0bff715 	stw	r2,-36(fp)
  8079d8:	00017806 	br	807fbc <f_printf+0x618>
      c = *str++;
  8079dc:	e0bfff17 	ldw	r2,-4(fp)
  8079e0:	10c00044 	addi	r3,r2,1
  8079e4:	e0ffff15 	stw	r3,-4(fp)
  8079e8:	10800003 	ldbu	r2,0(r2)
  8079ec:	e0bff405 	stb	r2,-48(fp)
      if (c == 0) break;         /* End of string */
  8079f0:	e0bff407 	ldb	r2,-48(fp)
  8079f4:	1000011e 	bne	r2,zero,8079fc <f_printf+0x58>
  8079f8:	00017306 	br	807fc8 <f_printf+0x624>
      if (c != '%') {            /* Non escape character */
  8079fc:	e0bff407 	ldb	r2,-48(fp)
  807a00:	10800960 	cmpeqi	r2,r2,37
  807a04:	10000c1e 	bne	r2,zero,807a38 <f_printf+0x94>
         cc = f_putc(c, fil);
  807a08:	e0bff407 	ldb	r2,-48(fp)
  807a0c:	1009883a 	mov	r4,r2
  807a10:	e17ffe17 	ldw	r5,-8(fp)
  807a14:	08078980 	call	807898 <f_putc>
  807a18:	e0bff715 	stw	r2,-36(fp)
         if (cc != EOF) cc = 1;
  807a1c:	e0bff717 	ldw	r2,-36(fp)
  807a20:	10bfffe0 	cmpeqi	r2,r2,-1
  807a24:	1000031e 	bne	r2,zero,807a34 <f_printf+0x90>
  807a28:	00800044 	movi	r2,1
  807a2c:	e0bff715 	stw	r2,-36(fp)
         continue;
  807a30:	00015e06 	br	807fac <f_printf+0x608>
  807a34:	00015d06 	br	807fac <f_printf+0x608>
      }
      w = f = 0;
  807a38:	e03fef05 	stb	zero,-68(fp)
  807a3c:	e03ff215 	stw	zero,-56(fp)
      c = *str++;
  807a40:	e0bfff17 	ldw	r2,-4(fp)
  807a44:	10c00044 	addi	r3,r2,1
  807a48:	e0ffff15 	stw	r3,-4(fp)
  807a4c:	10800003 	ldbu	r2,0(r2)
  807a50:	e0bff405 	stb	r2,-48(fp)
      if (c == '0') {            /* Flag: '0' padding */
  807a54:	e0bff407 	ldb	r2,-48(fp)
  807a58:	10800c18 	cmpnei	r2,r2,48
  807a5c:	1000081e 	bne	r2,zero,807a80 <f_printf+0xdc>
         f = 1; c = *str++;
  807a60:	00800044 	movi	r2,1
  807a64:	e0bfef05 	stb	r2,-68(fp)
  807a68:	e0bfff17 	ldw	r2,-4(fp)
  807a6c:	10c00044 	addi	r3,r2,1
  807a70:	e0ffff15 	stw	r3,-4(fp)
  807a74:	10800003 	ldbu	r2,0(r2)
  807a78:	e0bff405 	stb	r2,-48(fp)
  807a7c:	00000a06 	br	807aa8 <f_printf+0x104>
      } else {
         if (c == '-') {         /* Flag: left justified */
  807a80:	e0bff407 	ldb	r2,-48(fp)
  807a84:	10800b58 	cmpnei	r2,r2,45
  807a88:	1000071e 	bne	r2,zero,807aa8 <f_printf+0x104>
            f = 2; c = *str++;
  807a8c:	00800084 	movi	r2,2
  807a90:	e0bfef05 	stb	r2,-68(fp)
  807a94:	e0bfff17 	ldw	r2,-4(fp)
  807a98:	10c00044 	addi	r3,r2,1
  807a9c:	e0ffff15 	stw	r3,-4(fp)
  807aa0:	10800003 	ldbu	r2,0(r2)
  807aa4:	e0bff405 	stb	r2,-48(fp)
         }
      }
      while (IsDigit(c)) {    /* Precision */
  807aa8:	00000b06 	br	807ad8 <f_printf+0x134>
         w = w * 10 + c - '0';
  807aac:	e0bff217 	ldw	r2,-56(fp)
  807ab0:	10c002a4 	muli	r3,r2,10
  807ab4:	e0bff407 	ldb	r2,-48(fp)
  807ab8:	1885883a 	add	r2,r3,r2
  807abc:	10bff404 	addi	r2,r2,-48
  807ac0:	e0bff215 	stw	r2,-56(fp)
         c = *str++;
  807ac4:	e0bfff17 	ldw	r2,-4(fp)
  807ac8:	10c00044 	addi	r3,r2,1
  807acc:	e0ffff15 	stw	r3,-4(fp)
  807ad0:	10800003 	ldbu	r2,0(r2)
  807ad4:	e0bff405 	stb	r2,-48(fp)
      } else {
         if (c == '-') {         /* Flag: left justified */
            f = 2; c = *str++;
         }
      }
      while (IsDigit(c)) {    /* Precision */
  807ad8:	e0bff407 	ldb	r2,-48(fp)
  807adc:	10800c10 	cmplti	r2,r2,48
  807ae0:	1000031e 	bne	r2,zero,807af0 <f_printf+0x14c>
  807ae4:	e0bff407 	ldb	r2,-48(fp)
  807ae8:	10800e90 	cmplti	r2,r2,58
  807aec:	103fef1e 	bne	r2,zero,807aac <__alt_data_end+0xff807aac>
         w = w * 10 + c - '0';
         c = *str++;
      }
      if (c == 'l' || c == 'L') {   /* Prefix: Size is long int */
  807af0:	e0bff407 	ldb	r2,-48(fp)
  807af4:	10801b20 	cmpeqi	r2,r2,108
  807af8:	1000031e 	bne	r2,zero,807b08 <f_printf+0x164>
  807afc:	e0bff407 	ldb	r2,-48(fp)
  807b00:	10801318 	cmpnei	r2,r2,76
  807b04:	1000081e 	bne	r2,zero,807b28 <f_printf+0x184>
         f |= 4; c = *str++;
  807b08:	e0bfef03 	ldbu	r2,-68(fp)
  807b0c:	10800114 	ori	r2,r2,4
  807b10:	e0bfef05 	stb	r2,-68(fp)
  807b14:	e0bfff17 	ldw	r2,-4(fp)
  807b18:	10c00044 	addi	r3,r2,1
  807b1c:	e0ffff15 	stw	r3,-4(fp)
  807b20:	10800003 	ldbu	r2,0(r2)
  807b24:	e0bff405 	stb	r2,-48(fp)
      }
      if (!c) break;
  807b28:	e0bff407 	ldb	r2,-48(fp)
  807b2c:	1000011e 	bne	r2,zero,807b34 <f_printf+0x190>
  807b30:	00012506 	br	807fc8 <f_printf+0x624>
      d = c;
  807b34:	e0bff403 	ldbu	r2,-48(fp)
  807b38:	e0bff445 	stb	r2,-47(fp)
      if (IsLower(d)) d -= 0x20;
  807b3c:	e0bff447 	ldb	r2,-47(fp)
  807b40:	10801850 	cmplti	r2,r2,97
  807b44:	1000061e 	bne	r2,zero,807b60 <f_printf+0x1bc>
  807b48:	e0bff447 	ldb	r2,-47(fp)
  807b4c:	10801ec8 	cmpgei	r2,r2,123
  807b50:	1000031e 	bne	r2,zero,807b60 <f_printf+0x1bc>
  807b54:	e0bff443 	ldbu	r2,-47(fp)
  807b58:	10bff804 	addi	r2,r2,-32
  807b5c:	e0bff445 	stb	r2,-47(fp)
      switch (d) {            /* Type is... */
  807b60:	e0bff447 	ldb	r2,-47(fp)
  807b64:	10bfef84 	addi	r2,r2,-66
  807b68:	10c005e8 	cmpgeui	r3,r2,23
  807b6c:	1800761e 	bne	r3,zero,807d48 <f_printf+0x3a4>
  807b70:	100690ba 	slli	r3,r2,2
  807b74:	00802034 	movhi	r2,128
  807b78:	109ee204 	addi	r2,r2,31624
  807b7c:	1885883a 	add	r2,r3,r2
  807b80:	10800017 	ldw	r2,0(r2)
  807b84:	1000683a 	jmp	r2
  807b88:	00807d18 	cmpnei	r2,zero,500
  807b8c:	00807ce8 	cmpgeui	r2,zero,499
  807b90:	00807d30 	cmpltui	r2,zero,500
  807b94:	00807d48 	cmpgei	r2,zero,501
  807b98:	00807d48 	cmpgei	r2,zero,501
  807b9c:	00807d48 	cmpgei	r2,zero,501
  807ba0:	00807d48 	cmpgei	r2,zero,501
  807ba4:	00807d48 	cmpgei	r2,zero,501
  807ba8:	00807d48 	cmpgei	r2,zero,501
  807bac:	00807d48 	cmpgei	r2,zero,501
  807bb0:	00807d48 	cmpgei	r2,zero,501
  807bb4:	00807d48 	cmpgei	r2,zero,501
  807bb8:	00807d48 	cmpgei	r2,zero,501
  807bbc:	00807d24 	muli	r2,zero,500
  807bc0:	00807d48 	cmpgei	r2,zero,501
  807bc4:	00807d48 	cmpgei	r2,zero,501
  807bc8:	00807d48 	cmpgei	r2,zero,501
  807bcc:	00807be4 	muli	r2,zero,495
  807bd0:	00807d48 	cmpgei	r2,zero,501
  807bd4:	00807d30 	cmpltui	r2,zero,500
  807bd8:	00807d48 	cmpgei	r2,zero,501
  807bdc:	00807d48 	cmpgei	r2,zero,501
  807be0:	00807d3c 	xorhi	r2,zero,500
      case 'S' :              /* String */
         p = va_arg(arp, TCHAR*);
  807be4:	e0bff917 	ldw	r2,-28(fp)
  807be8:	10c00104 	addi	r3,r2,4
  807bec:	e0fff915 	stw	r3,-28(fp)
  807bf0:	10800017 	ldw	r2,0(r2)
  807bf4:	e0bff815 	stw	r2,-32(fp)
         for (j = 0; p[j]; j++) ;
  807bf8:	e03ff115 	stw	zero,-60(fp)
  807bfc:	00000306 	br	807c0c <f_printf+0x268>
  807c00:	e0bff117 	ldw	r2,-60(fp)
  807c04:	10800044 	addi	r2,r2,1
  807c08:	e0bff115 	stw	r2,-60(fp)
  807c0c:	e0fff817 	ldw	r3,-32(fp)
  807c10:	e0bff117 	ldw	r2,-60(fp)
  807c14:	1885883a 	add	r2,r3,r2
  807c18:	10800003 	ldbu	r2,0(r2)
  807c1c:	10803fcc 	andi	r2,r2,255
  807c20:	1080201c 	xori	r2,r2,128
  807c24:	10bfe004 	addi	r2,r2,-128
  807c28:	103ff51e 	bne	r2,zero,807c00 <__alt_data_end+0xff807c00>
         chc = 0;
  807c2c:	e03ff615 	stw	zero,-40(fp)
         if (!(f & 2)) {
  807c30:	e0bfef03 	ldbu	r2,-68(fp)
  807c34:	1080008c 	andi	r2,r2,2
  807c38:	10000e1e 	bne	r2,zero,807c74 <f_printf+0x2d0>
            while (j++ < w) chc += (cc = f_putc(' ', fil));
  807c3c:	00000806 	br	807c60 <f_printf+0x2bc>
  807c40:	01000804 	movi	r4,32
  807c44:	e17ffe17 	ldw	r5,-8(fp)
  807c48:	08078980 	call	807898 <f_putc>
  807c4c:	e0bff715 	stw	r2,-36(fp)
  807c50:	e0bff717 	ldw	r2,-36(fp)
  807c54:	e0fff617 	ldw	r3,-40(fp)
  807c58:	1885883a 	add	r2,r3,r2
  807c5c:	e0bff615 	stw	r2,-40(fp)
  807c60:	e0bff117 	ldw	r2,-60(fp)
  807c64:	10c00044 	addi	r3,r2,1
  807c68:	e0fff115 	stw	r3,-60(fp)
  807c6c:	e0fff217 	ldw	r3,-56(fp)
  807c70:	10fff336 	bltu	r2,r3,807c40 <__alt_data_end+0xff807c40>
         }
         chc += (cc = f_puts(p, fil));
  807c74:	e13ff817 	ldw	r4,-32(fp)
  807c78:	e17ffe17 	ldw	r5,-8(fp)
  807c7c:	080790c0 	call	80790c <f_puts>
  807c80:	e0bff715 	stw	r2,-36(fp)
  807c84:	e0bff717 	ldw	r2,-36(fp)
  807c88:	e0fff617 	ldw	r3,-40(fp)
  807c8c:	1885883a 	add	r2,r3,r2
  807c90:	e0bff615 	stw	r2,-40(fp)
         while (j++ < w) chc += (cc = f_putc(' ', fil));
  807c94:	00000806 	br	807cb8 <f_printf+0x314>
  807c98:	01000804 	movi	r4,32
  807c9c:	e17ffe17 	ldw	r5,-8(fp)
  807ca0:	08078980 	call	807898 <f_putc>
  807ca4:	e0bff715 	stw	r2,-36(fp)
  807ca8:	e0bff717 	ldw	r2,-36(fp)
  807cac:	e0fff617 	ldw	r3,-40(fp)
  807cb0:	1885883a 	add	r2,r3,r2
  807cb4:	e0bff615 	stw	r2,-40(fp)
  807cb8:	e0bff117 	ldw	r2,-60(fp)
  807cbc:	10c00044 	addi	r3,r2,1
  807cc0:	e0fff115 	stw	r3,-60(fp)
  807cc4:	e0fff217 	ldw	r3,-56(fp)
  807cc8:	10fff336 	bltu	r2,r3,807c98 <__alt_data_end+0xff807c98>
         if (cc != EOF) cc = chc;
  807ccc:	e0bff717 	ldw	r2,-36(fp)
  807cd0:	10bfffe0 	cmpeqi	r2,r2,-1
  807cd4:	1000031e 	bne	r2,zero,807ce4 <f_printf+0x340>
  807cd8:	e0bff617 	ldw	r2,-40(fp)
  807cdc:	e0bff715 	stw	r2,-36(fp)
         continue;
  807ce0:	0000b206 	br	807fac <f_printf+0x608>
  807ce4:	0000b106 	br	807fac <f_printf+0x608>
      case 'C' :              /* Character */
         cc = f_putc((TCHAR)va_arg(arp, int), fil); continue;
  807ce8:	e0bff917 	ldw	r2,-28(fp)
  807cec:	10c00104 	addi	r3,r2,4
  807cf0:	e0fff915 	stw	r3,-28(fp)
  807cf4:	10800017 	ldw	r2,0(r2)
  807cf8:	10803fcc 	andi	r2,r2,255
  807cfc:	1080201c 	xori	r2,r2,128
  807d00:	10bfe004 	addi	r2,r2,-128
  807d04:	1009883a 	mov	r4,r2
  807d08:	e17ffe17 	ldw	r5,-8(fp)
  807d0c:	08078980 	call	807898 <f_putc>
  807d10:	e0bff715 	stw	r2,-36(fp)
  807d14:	0000a506 	br	807fac <f_printf+0x608>
      case 'B' :              /* Binary */
         r = 2; break;
  807d18:	00800084 	movi	r2,2
  807d1c:	e0bfef45 	stb	r2,-67(fp)
  807d20:	00000f06 	br	807d60 <f_printf+0x3bc>
      case 'O' :              /* Octal */
         r = 8; break;
  807d24:	00800204 	movi	r2,8
  807d28:	e0bfef45 	stb	r2,-67(fp)
  807d2c:	00000c06 	br	807d60 <f_printf+0x3bc>
      case 'D' :              /* Signed decimal */
      case 'U' :              /* Unsigned decimal */
         r = 10; break;
  807d30:	00800284 	movi	r2,10
  807d34:	e0bfef45 	stb	r2,-67(fp)
  807d38:	00000906 	br	807d60 <f_printf+0x3bc>
      case 'X' :              /* Hexdecimal */
         r = 16; break;
  807d3c:	00800404 	movi	r2,16
  807d40:	e0bfef45 	stb	r2,-67(fp)
  807d44:	00000606 	br	807d60 <f_printf+0x3bc>
      default:             /* Unknown type (passthrough) */
         cc = f_putc(c, fil); continue;
  807d48:	e0bff407 	ldb	r2,-48(fp)
  807d4c:	1009883a 	mov	r4,r2
  807d50:	e17ffe17 	ldw	r5,-8(fp)
  807d54:	08078980 	call	807898 <f_putc>
  807d58:	e0bff715 	stw	r2,-36(fp)
  807d5c:	00009306 	br	807fac <f_printf+0x608>
      }

      /* Get an argument and put it in numeral */
      v = (f & 4) ? (uint32_t)va_arg(arp, long) : ((d == 'D') ? (uint32_t)(long)va_arg(arp, int) : (uint32_t)va_arg(arp, unsigned int));
  807d60:	e0bfef03 	ldbu	r2,-68(fp)
  807d64:	1080010c 	andi	r2,r2,4
  807d68:	10000526 	beq	r2,zero,807d80 <f_printf+0x3dc>
  807d6c:	e0bff917 	ldw	r2,-28(fp)
  807d70:	10c00104 	addi	r3,r2,4
  807d74:	e0fff915 	stw	r3,-28(fp)
  807d78:	10800017 	ldw	r2,0(r2)
  807d7c:	00000c06 	br	807db0 <f_printf+0x40c>
  807d80:	e0bff447 	ldb	r2,-47(fp)
  807d84:	10801118 	cmpnei	r2,r2,68
  807d88:	1000051e 	bne	r2,zero,807da0 <f_printf+0x3fc>
  807d8c:	e0bff917 	ldw	r2,-28(fp)
  807d90:	10c00104 	addi	r3,r2,4
  807d94:	e0fff915 	stw	r3,-28(fp)
  807d98:	10800017 	ldw	r2,0(r2)
  807d9c:	00000406 	br	807db0 <f_printf+0x40c>
  807da0:	e0bff917 	ldw	r2,-28(fp)
  807da4:	10c00104 	addi	r3,r2,4
  807da8:	e0fff915 	stw	r3,-28(fp)
  807dac:	10800017 	ldw	r2,0(r2)
  807db0:	e0bff315 	stw	r2,-52(fp)
      if (d == 'D' && (v & 0x80000000)) {
  807db4:	e0bff447 	ldb	r2,-47(fp)
  807db8:	10801118 	cmpnei	r2,r2,68
  807dbc:	1000081e 	bne	r2,zero,807de0 <f_printf+0x43c>
  807dc0:	e0bff317 	ldw	r2,-52(fp)
  807dc4:	1000060e 	bge	r2,zero,807de0 <f_printf+0x43c>
         v = 0 - v;
  807dc8:	e0bff317 	ldw	r2,-52(fp)
  807dcc:	0085c83a 	sub	r2,zero,r2
  807dd0:	e0bff315 	stw	r2,-52(fp)
         f |= 8;
  807dd4:	e0bfef03 	ldbu	r2,-68(fp)
  807dd8:	10800214 	ori	r2,r2,8
  807ddc:	e0bfef05 	stb	r2,-68(fp)
      }
      i = 0;
  807de0:	e03ff015 	stw	zero,-64(fp)
      do {
         d = (TCHAR)(v % r); v /= r;
  807de4:	e0bfef43 	ldbu	r2,-67(fp)
  807de8:	e0fff317 	ldw	r3,-52(fp)
  807dec:	1809883a 	mov	r4,r3
  807df0:	100b883a 	mov	r5,r2
  807df4:	080a0ec0 	call	80a0ec <__umodsi3>
  807df8:	e0bff445 	stb	r2,-47(fp)
  807dfc:	e0bfef43 	ldbu	r2,-67(fp)
  807e00:	e13ff317 	ldw	r4,-52(fp)
  807e04:	100b883a 	mov	r5,r2
  807e08:	080a0e40 	call	80a0e4 <__udivsi3>
  807e0c:	e0bff315 	stw	r2,-52(fp)
         if (d > 9) d += (c == 'x') ? 0x27 : 0x07;
  807e10:	e0bff447 	ldb	r2,-47(fp)
  807e14:	10800290 	cmplti	r2,r2,10
  807e18:	1000091e 	bne	r2,zero,807e40 <f_printf+0x49c>
  807e1c:	e0bff407 	ldb	r2,-48(fp)
  807e20:	10801e18 	cmpnei	r2,r2,120
  807e24:	1000021e 	bne	r2,zero,807e30 <f_printf+0x48c>
  807e28:	008009c4 	movi	r2,39
  807e2c:	00000106 	br	807e34 <f_printf+0x490>
  807e30:	008001c4 	movi	r2,7
  807e34:	e0fff443 	ldbu	r3,-47(fp)
  807e38:	10c5883a 	add	r2,r2,r3
  807e3c:	e0bff445 	stb	r2,-47(fp)
         s[i++] = d + '0';
  807e40:	e0bff017 	ldw	r2,-64(fp)
  807e44:	10c00044 	addi	r3,r2,1
  807e48:	e0fff015 	stw	r3,-64(fp)
  807e4c:	e0fff443 	ldbu	r3,-47(fp)
  807e50:	18c00c04 	addi	r3,r3,48
  807e54:	1809883a 	mov	r4,r3
  807e58:	e0fffa04 	addi	r3,fp,-24
  807e5c:	1885883a 	add	r2,r3,r2
  807e60:	11000005 	stb	r4,0(r2)
      } while (v && i < sizeof(s) / sizeof(s[0]));
  807e64:	e0bff317 	ldw	r2,-52(fp)
  807e68:	10000326 	beq	r2,zero,807e78 <f_printf+0x4d4>
  807e6c:	e0bff017 	ldw	r2,-64(fp)
  807e70:	10800430 	cmpltui	r2,r2,16
  807e74:	103fdb1e 	bne	r2,zero,807de4 <__alt_data_end+0xff807de4>
      if (f & 8) s[i++] = '-';
  807e78:	e0bfef03 	ldbu	r2,-68(fp)
  807e7c:	1080020c 	andi	r2,r2,8
  807e80:	10000726 	beq	r2,zero,807ea0 <f_printf+0x4fc>
  807e84:	e0bff017 	ldw	r2,-64(fp)
  807e88:	10c00044 	addi	r3,r2,1
  807e8c:	e0fff015 	stw	r3,-64(fp)
  807e90:	e0fffa04 	addi	r3,fp,-24
  807e94:	1885883a 	add	r2,r3,r2
  807e98:	00c00b44 	movi	r3,45
  807e9c:	10c00005 	stb	r3,0(r2)
      j = i; d = (f & 1) ? '0' : ' ';
  807ea0:	e0bff017 	ldw	r2,-64(fp)
  807ea4:	e0bff115 	stw	r2,-60(fp)
  807ea8:	e0bfef03 	ldbu	r2,-68(fp)
  807eac:	1080004c 	andi	r2,r2,1
  807eb0:	10000226 	beq	r2,zero,807ebc <f_printf+0x518>
  807eb4:	00800c04 	movi	r2,48
  807eb8:	00000106 	br	807ec0 <f_printf+0x51c>
  807ebc:	00800804 	movi	r2,32
  807ec0:	e0bff445 	stb	r2,-47(fp)
      res = 0;
  807ec4:	e03ff515 	stw	zero,-44(fp)
      while (!(f & 2) && j++ < w) res += (cc = f_putc(d, fil));
  807ec8:	00000906 	br	807ef0 <f_printf+0x54c>
  807ecc:	e0bff447 	ldb	r2,-47(fp)
  807ed0:	1009883a 	mov	r4,r2
  807ed4:	e17ffe17 	ldw	r5,-8(fp)
  807ed8:	08078980 	call	807898 <f_putc>
  807edc:	e0bff715 	stw	r2,-36(fp)
  807ee0:	e0bff717 	ldw	r2,-36(fp)
  807ee4:	e0fff517 	ldw	r3,-44(fp)
  807ee8:	1885883a 	add	r2,r3,r2
  807eec:	e0bff515 	stw	r2,-44(fp)
  807ef0:	e0bfef03 	ldbu	r2,-68(fp)
  807ef4:	1080008c 	andi	r2,r2,2
  807ef8:	1000051e 	bne	r2,zero,807f10 <f_printf+0x56c>
  807efc:	e0bff117 	ldw	r2,-60(fp)
  807f00:	10c00044 	addi	r3,r2,1
  807f04:	e0fff115 	stw	r3,-60(fp)
  807f08:	e0fff217 	ldw	r3,-56(fp)
  807f0c:	10ffef36 	bltu	r2,r3,807ecc <__alt_data_end+0xff807ecc>
      do res += (cc = f_putc(s[--i], fil)); while(i);
  807f10:	e0bff017 	ldw	r2,-64(fp)
  807f14:	10bfffc4 	addi	r2,r2,-1
  807f18:	e0bff015 	stw	r2,-64(fp)
  807f1c:	e0fffa04 	addi	r3,fp,-24
  807f20:	e0bff017 	ldw	r2,-64(fp)
  807f24:	1885883a 	add	r2,r3,r2
  807f28:	10800003 	ldbu	r2,0(r2)
  807f2c:	10803fcc 	andi	r2,r2,255
  807f30:	1080201c 	xori	r2,r2,128
  807f34:	10bfe004 	addi	r2,r2,-128
  807f38:	1009883a 	mov	r4,r2
  807f3c:	e17ffe17 	ldw	r5,-8(fp)
  807f40:	08078980 	call	807898 <f_putc>
  807f44:	e0bff715 	stw	r2,-36(fp)
  807f48:	e0bff717 	ldw	r2,-36(fp)
  807f4c:	e0fff517 	ldw	r3,-44(fp)
  807f50:	1885883a 	add	r2,r3,r2
  807f54:	e0bff515 	stw	r2,-44(fp)
  807f58:	e0bff017 	ldw	r2,-64(fp)
  807f5c:	103fec1e 	bne	r2,zero,807f10 <__alt_data_end+0xff807f10>
      while (j++ < w) res += (cc = f_putc(' ', fil));
  807f60:	00000806 	br	807f84 <f_printf+0x5e0>
  807f64:	01000804 	movi	r4,32
  807f68:	e17ffe17 	ldw	r5,-8(fp)
  807f6c:	08078980 	call	807898 <f_putc>
  807f70:	e0bff715 	stw	r2,-36(fp)
  807f74:	e0bff717 	ldw	r2,-36(fp)
  807f78:	e0fff517 	ldw	r3,-44(fp)
  807f7c:	1885883a 	add	r2,r3,r2
  807f80:	e0bff515 	stw	r2,-44(fp)
  807f84:	e0bff117 	ldw	r2,-60(fp)
  807f88:	10c00044 	addi	r3,r2,1
  807f8c:	e0fff115 	stw	r3,-60(fp)
  807f90:	e0fff217 	ldw	r3,-56(fp)
  807f94:	10fff336 	bltu	r2,r3,807f64 <__alt_data_end+0xff807f64>
      if (cc != EOF) cc = res;
  807f98:	e0bff717 	ldw	r2,-36(fp)
  807f9c:	10bfffe0 	cmpeqi	r2,r2,-1
  807fa0:	1000021e 	bne	r2,zero,807fac <f_printf+0x608>
  807fa4:	e0bff517 	ldw	r2,-44(fp)
  807fa8:	e0bff715 	stw	r2,-36(fp)
   int res, chc, cc;


   va_start(arp, str);

   for (cc = res = 0; cc != EOF; res += cc) {
  807fac:	e0fff517 	ldw	r3,-44(fp)
  807fb0:	e0bff717 	ldw	r2,-36(fp)
  807fb4:	1885883a 	add	r2,r3,r2
  807fb8:	e0bff515 	stw	r2,-44(fp)
  807fbc:	e0bff717 	ldw	r2,-36(fp)
  807fc0:	10bfffd8 	cmpnei	r2,r2,-1
  807fc4:	103e851e 	bne	r2,zero,8079dc <__alt_data_end+0xff8079dc>
      while (j++ < w) res += (cc = f_putc(' ', fil));
      if (cc != EOF) cc = res;
   }

   va_end(arp);
   return (cc == EOF) ? cc : res;
  807fc8:	e0bff717 	ldw	r2,-36(fp)
  807fcc:	10bfffd8 	cmpnei	r2,r2,-1
  807fd0:	1000021e 	bne	r2,zero,807fdc <f_printf+0x638>
  807fd4:	e0bff717 	ldw	r2,-36(fp)
  807fd8:	00000106 	br	807fe0 <f_printf+0x63c>
  807fdc:	e0bff517 	ldw	r2,-44(fp)
}
  807fe0:	e037883a 	mov	sp,fp
  807fe4:	dfc00117 	ldw	ra,4(sp)
  807fe8:	df000017 	ldw	fp,0(sp)
  807fec:	dec00404 	addi	sp,sp,16
  807ff0:	f800283a 	ret

00807ff4 <TimerFunction>:
/*  In    : none                                                           */
/*  Out   : none                                                           */
/*  Return: none                                                           */
/***************************************************************************/
static alt_u32 TimerFunction (void *context)
{
  807ff4:	defffd04 	addi	sp,sp,-12
  807ff8:	dfc00215 	stw	ra,8(sp)
  807ffc:	df000115 	stw	fp,4(sp)
  808000:	df000104 	addi	fp,sp,4
  808004:	e13fff15 	stw	r4,-4(fp)
   static unsigned short wTimer10ms = 0;

   (void)context;

   Systick++;
  808008:	d0a74817 	ldw	r2,-25312(gp)
  80800c:	10800044 	addi	r2,r2,1
  808010:	d0a74815 	stw	r2,-25312(gp)
   wTimer10ms++;
  808014:	d0a7498b 	ldhu	r2,-25306(gp)
  808018:	10800044 	addi	r2,r2,1
  80801c:	d0a7498d 	sth	r2,-25306(gp)
   Timer++; /* Performance counter for this module */
  808020:	d0a7490b 	ldhu	r2,-25308(gp)
  808024:	10800044 	addi	r2,r2,1
  808028:	d0a7490d 	sth	r2,-25308(gp)

   if (wTimer10ms == 10)
  80802c:	d0a7498b 	ldhu	r2,-25306(gp)
  808030:	10bfffcc 	andi	r2,r2,65535
  808034:	10800298 	cmpnei	r2,r2,10
  808038:	1000021e 	bne	r2,zero,808044 <TimerFunction+0x50>
   {
      wTimer10ms = 0;
  80803c:	d027498d 	sth	zero,-25306(gp)
      ffs_DiskIOTimerproc();  /* Drive timer procedure of low level disk I/O module */
  808040:	0800a600 	call	800a60 <ffs_DiskIOTimerproc>
   }

   return(1);
  808044:	00800044 	movi	r2,1
} /* TimerFunction */
  808048:	e037883a 	mov	sp,fp
  80804c:	dfc00117 	ldw	ra,4(sp)
  808050:	df000017 	ldw	fp,0(sp)
  808054:	dec00204 	addi	sp,sp,8
  808058:	f800283a 	ret

0080805c <IoInit>:
/*  In    : none                                                           */
/*  Out   : none                                                           */
/*  Return: none                                                           */
/***************************************************************************/
static void IoInit(void)
{
  80805c:	defffe04 	addi	sp,sp,-8
  808060:	dfc00115 	stw	ra,4(sp)
  808064:	df000015 	stw	fp,0(sp)
  808068:	d839883a 	mov	fp,sp
   uart0_init(115200);
  80806c:	010000b4 	movhi	r4,2
  808070:	21308004 	addi	r4,r4,-15872
  808074:	0809f180 	call	809f18 <uart0_init>

   /* Init diskio interface */
   ffs_DiskIOInit();
  808078:	0800a340 	call	800a34 <ffs_DiskIOInit>

   //SetHighSpeed();

   /* Init timer system */
   alt_alarm_start(&alarm, 1, &TimerFunction, NULL);
  80807c:	01002074 	movhi	r4,129
  808080:	21154004 	addi	r4,r4,21760
  808084:	01400044 	movi	r5,1
  808088:	01802034 	movhi	r6,128
  80808c:	319ffd04 	addi	r6,r6,32756
  808090:	000f883a 	mov	r7,zero
  808094:	080c4bc0 	call	80c4bc <alt_alarm_start>

} /* IoInit */
  808098:	e037883a 	mov	sp,fp
  80809c:	dfc00117 	ldw	ra,4(sp)
  8080a0:	df000017 	ldw	fp,0(sp)
  8080a4:	dec00204 	addi	sp,sp,8
  8080a8:	f800283a 	ret

008080ac <scan_files>:



static
FRESULT scan_files(char *path)
{
  8080ac:	defff304 	addi	sp,sp,-52
  8080b0:	dfc00c15 	stw	ra,48(sp)
  8080b4:	df000b15 	stw	fp,44(sp)
  8080b8:	df000b04 	addi	fp,sp,44
  8080bc:	e13fff15 	stw	r4,-4(fp)
    FRESULT res;
    uint8_t i;
    char *fn;


    if ((res = f_opendir(&dirs, path)) == FR_OK) {
  8080c0:	e0bff804 	addi	r2,fp,-32
  8080c4:	1009883a 	mov	r4,r2
  8080c8:	e17fff17 	ldw	r5,-4(fp)
  8080cc:	08055c00 	call	8055c0 <f_opendir>
  8080d0:	e0bff515 	stw	r2,-44(fp)
  8080d4:	e0bff517 	ldw	r2,-44(fp)
  8080d8:	10003e1e 	bne	r2,zero,8081d4 <scan_files+0x128>
        i = (uint8_t)strlen(path);
  8080dc:	e13fff17 	ldw	r4,-4(fp)
  8080e0:	080a4480 	call	80a448 <strlen>
  8080e4:	e0bff605 	stb	r2,-40(fp)
        while (((res = f_readdir(&dirs, &Finfo)) == FR_OK) && Finfo.fname[0]) {
  8080e8:	00002b06 	br	808198 <scan_files+0xec>
            if (_FS_RPATH && Finfo.fname[0] == '.')
                continue;
#if _USE_LFN
            fn = *Finfo.lfname ? Finfo.lfname : Finfo.fname;
#else
            fn = Finfo.fname;
  8080ec:	00802074 	movhi	r2,129
  8080f0:	10966744 	addi	r2,r2,22941
  8080f4:	e0bff715 	stw	r2,-36(fp)
#endif
            if (Finfo.fattrib & AM_DIR) {
  8080f8:	00802074 	movhi	r2,129
  8080fc:	10966504 	addi	r2,r2,22932
  808100:	10800203 	ldbu	r2,8(r2)
  808104:	10803fcc 	andi	r2,r2,255
  808108:	1080040c 	andi	r2,r2,16
  80810c:	10001926 	beq	r2,zero,808174 <scan_files+0xc8>
                acc_dirs++;
  808110:	d0a74a0b 	ldhu	r2,-25304(gp)
  808114:	10800044 	addi	r2,r2,1
  808118:	d0a74a0d 	sth	r2,-25304(gp)
                *(path + i) = '/';
  80811c:	e0bff603 	ldbu	r2,-40(fp)
  808120:	e0ffff17 	ldw	r3,-4(fp)
  808124:	1885883a 	add	r2,r3,r2
  808128:	00c00bc4 	movi	r3,47
  80812c:	10c00005 	stb	r3,0(r2)
                strcpy(path + i + 1, fn);
  808130:	e0bff603 	ldbu	r2,-40(fp)
  808134:	10800044 	addi	r2,r2,1
  808138:	e0ffff17 	ldw	r3,-4(fp)
  80813c:	1885883a 	add	r2,r3,r2
  808140:	1009883a 	mov	r4,r2
  808144:	e17ff717 	ldw	r5,-36(fp)
  808148:	080a3b80 	call	80a3b8 <strcpy>
                res = scan_files(path);
  80814c:	e13fff17 	ldw	r4,-4(fp)
  808150:	08080ac0 	call	8080ac <scan_files>
  808154:	e0bff515 	stw	r2,-44(fp)
                *(path + i) = '\0';
  808158:	e0bff603 	ldbu	r2,-40(fp)
  80815c:	e0ffff17 	ldw	r3,-4(fp)
  808160:	1885883a 	add	r2,r3,r2
  808164:	10000005 	stb	zero,0(r2)
                if (res != FR_OK)
  808168:	e0bff517 	ldw	r2,-44(fp)
  80816c:	10000a26 	beq	r2,zero,808198 <scan_files+0xec>
                    break;
  808170:	00001806 	br	8081d4 <scan_files+0x128>
            } else {
                //      xprintf("%s/%s\n", path, fn);
                acc_files++;
  808174:	d0a74a8b 	ldhu	r2,-25302(gp)
  808178:	10800044 	addi	r2,r2,1
  80817c:	d0a74a8d 	sth	r2,-25302(gp)
                acc_size += Finfo.fsize;
  808180:	00802074 	movhi	r2,129
  808184:	10966504 	addi	r2,r2,22932
  808188:	10c00017 	ldw	r3,0(r2)
  80818c:	d0a74b17 	ldw	r2,-25300(gp)
  808190:	1885883a 	add	r2,r3,r2
  808194:	d0a74b15 	stw	r2,-25300(gp)
    char *fn;


    if ((res = f_opendir(&dirs, path)) == FR_OK) {
        i = (uint8_t)strlen(path);
        while (((res = f_readdir(&dirs, &Finfo)) == FR_OK) && Finfo.fname[0]) {
  808198:	e0bff804 	addi	r2,fp,-32
  80819c:	1009883a 	mov	r4,r2
  8081a0:	01402074 	movhi	r5,129
  8081a4:	29566504 	addi	r5,r5,22932
  8081a8:	08057300 	call	805730 <f_readdir>
  8081ac:	e0bff515 	stw	r2,-44(fp)
  8081b0:	e0bff517 	ldw	r2,-44(fp)
  8081b4:	1000071e 	bne	r2,zero,8081d4 <scan_files+0x128>
  8081b8:	00802074 	movhi	r2,129
  8081bc:	10966504 	addi	r2,r2,22932
  8081c0:	10800243 	ldbu	r2,9(r2)
  8081c4:	10803fcc 	andi	r2,r2,255
  8081c8:	1080201c 	xori	r2,r2,128
  8081cc:	10bfe004 	addi	r2,r2,-128
  8081d0:	103fc61e 	bne	r2,zero,8080ec <__alt_data_end+0xff8080ec>
                acc_size += Finfo.fsize;
            }
        }
    }

    return res;
  8081d4:	e0bff517 	ldw	r2,-44(fp)
}
  8081d8:	e037883a 	mov	sp,fp
  8081dc:	dfc00117 	ldw	ra,4(sp)
  8081e0:	df000017 	ldw	fp,0(sp)
  8081e4:	dec00204 	addi	sp,sp,8
  8081e8:	f800283a 	ret

008081ec <put_rc>:

//                put_rc(f_mount((uint8_t) p1, &Fatfs[p1]));

static
void put_rc(FRESULT rc)
{
  8081ec:	defffb04 	addi	sp,sp,-20
  8081f0:	dfc00415 	stw	ra,16(sp)
  8081f4:	df000315 	stw	fp,12(sp)
  8081f8:	df000304 	addi	fp,sp,12
  8081fc:	e13fff15 	stw	r4,-4(fp)
    const char *str =
  808200:	00802074 	movhi	r2,129
  808204:	10847004 	addi	r2,r2,4544
  808208:	e0bffd15 	stw	r2,-12(fp)
        "INVALID_NAME\0" "DENIED\0" "EXIST\0" "INVALID_OBJECT\0" "WRITE_PROTECTED\0"
        "INVALID_DRIVE\0" "NOT_ENABLED\0" "NO_FILE_SYSTEM\0" "MKFS_ABORTED\0" "TIMEOUT\0"
        "LOCKED\0" "NOT_ENOUGH_CORE\0" "TOO_MANY_OPEN_FILES\0";
    FRESULT i;

    for (i = 0; i != rc && *str; i++) {
  80820c:	e03ffe15 	stw	zero,-8(fp)
  808210:	00000c06 	br	808244 <put_rc+0x58>
        while (*str++);
  808214:	0001883a 	nop
  808218:	e0bffd17 	ldw	r2,-12(fp)
  80821c:	10c00044 	addi	r3,r2,1
  808220:	e0fffd15 	stw	r3,-12(fp)
  808224:	10800003 	ldbu	r2,0(r2)
  808228:	10803fcc 	andi	r2,r2,255
  80822c:	1080201c 	xori	r2,r2,128
  808230:	10bfe004 	addi	r2,r2,-128
  808234:	103ff81e 	bne	r2,zero,808218 <__alt_data_end+0xff808218>
        "INVALID_NAME\0" "DENIED\0" "EXIST\0" "INVALID_OBJECT\0" "WRITE_PROTECTED\0"
        "INVALID_DRIVE\0" "NOT_ENABLED\0" "NO_FILE_SYSTEM\0" "MKFS_ABORTED\0" "TIMEOUT\0"
        "LOCKED\0" "NOT_ENOUGH_CORE\0" "TOO_MANY_OPEN_FILES\0";
    FRESULT i;

    for (i = 0; i != rc && *str; i++) {
  808238:	e0bffe17 	ldw	r2,-8(fp)
  80823c:	10800044 	addi	r2,r2,1
  808240:	e0bffe15 	stw	r2,-8(fp)
  808244:	e0fffe17 	ldw	r3,-8(fp)
  808248:	e0bfff17 	ldw	r2,-4(fp)
  80824c:	18800626 	beq	r3,r2,808268 <put_rc+0x7c>
  808250:	e0bffd17 	ldw	r2,-12(fp)
  808254:	10800003 	ldbu	r2,0(r2)
  808258:	10803fcc 	andi	r2,r2,255
  80825c:	1080201c 	xori	r2,r2,128
  808260:	10bfe004 	addi	r2,r2,-128
  808264:	103feb1e 	bne	r2,zero,808214 <__alt_data_end+0xff808214>
        while (*str++);
    }
    xprintf("rc=%u FR_%s\n", (uint32_t) rc, str);
  808268:	01002074 	movhi	r4,129
  80826c:	2104a504 	addi	r4,r4,4756
  808270:	e17fff17 	ldw	r5,-4(fp)
  808274:	e1bffd17 	ldw	r6,-12(fp)
  808278:	0809a940 	call	809a94 <xprintf>
}
  80827c:	e037883a 	mov	sp,fp
  808280:	dfc00117 	ldw	ra,4(sp)
  808284:	df000017 	ldw	fp,0(sp)
  808288:	dec00204 	addi	sp,sp,8
  80828c:	f800283a 	ret

00808290 <display_help>:

static
void display_help(void)
{
  808290:	defffe04 	addi	sp,sp,-8
  808294:	dfc00115 	stw	ra,4(sp)
  808298:	df000015 	stw	fp,0(sp)
  80829c:	d839883a 	mov	fp,sp
    xputs("dd <phy_drv#> [<sector>] - Dump sector\n"
  8082a0:	01002074 	movhi	r4,129
  8082a4:	2104a904 	addi	r4,r4,4772
  8082a8:	08098740 	call	809874 <xputs>
    	  "fp -  (to be added by you) \n"
          "fr <len> - Read file\n"
          "fs [<path>] - Show logical drive status\n"
          "fz [<len>] - Get/Set transfer unit for fr/fw commands\n"
          "h view help (this)\n");
}
  8082ac:	e037883a 	mov	sp,fp
  8082b0:	dfc00117 	ldw	ra,4(sp)
  8082b4:	df000017 	ldw	fp,0(sp)
  8082b8:	dec00204 	addi	sp,sp,8
  8082bc:	f800283a 	ret

008082c0 <main>:

/***************************************************************************/
/*  main                                                                   */
/***************************************************************************/
int main(void)
{
  8082c0:	deffde04 	addi	sp,sp,-136
  8082c4:	dfc02115 	stw	ra,132(sp)
  8082c8:	df002015 	stw	fp,128(sp)
  8082cc:	dc001f15 	stw	r16,124(sp)
  8082d0:	df002004 	addi	fp,sp,128
	int fifospace;
    char *ptr, *ptr2;
    long p1, p2, p3;
    uint8_t res, b1, drv = 0;
  8082d4:	e03fe905 	stb	zero,-92(fp)
    uint16_t w1;
    uint32_t s1, s2, cnt, blen = sizeof(Buff);
  8082d8:	00808004 	movi	r2,512
  8082dc:	e0bfeb15 	stw	r2,-84(fp)
    static const uint8_t ft[] = { 0, 12, 16, 32 };
    uint32_t ofs = 0, sect = 0, blk[2];
  8082e0:	e03fec15 	stw	zero,-80(fp)
  8082e4:	e03fed15 	stw	zero,-76(fp)
    alt_up_audio_dev * audio_dev;
    /* used for audio record/playback */
    unsigned int l_buf;
    unsigned int r_buf;
    // open the Audio port
    audio_dev = alt_up_audio_open_dev ("/dev/Audio");
  8082e8:	01002074 	movhi	r4,129
  8082ec:	21054504 	addi	r4,r4,5396
  8082f0:	080f7bc0 	call	80f7bc <alt_up_audio_open_dev>
  8082f4:	e0bfef15 	stw	r2,-68(fp)
    if ( audio_dev == NULL)
  8082f8:	e0bfef17 	ldw	r2,-68(fp)
  8082fc:	1000041e 	bne	r2,zero,808310 <main+0x50>
    alt_printf ("Error: could not open audio device \n");
  808300:	01002074 	movhi	r4,129
  808304:	21054804 	addi	r4,r4,5408
  808308:	080cbfc0 	call	80cbfc <alt_printf>
  80830c:	00000306 	br	80831c <main+0x5c>
    else
    alt_printf ("Opened audio device \n");
  808310:	01002074 	movhi	r4,129
  808314:	21055204 	addi	r4,r4,5448
  808318:	080cbfc0 	call	80cbfc <alt_printf>

    IoInit();
  80831c:	080805c0 	call	80805c <IoInit>

    IOWR(SEVEN_SEG_PIO_BASE,1,0x0007);
  808320:	00c001c4 	movi	r3,7
  808324:	00804034 	movhi	r2,256
  808328:	10840904 	addi	r2,r2,4132
  80832c:	10c00035 	stwio	r3,0(r2)

    xputs(PSTR("FatFs module test monitor\n"));
  808330:	01002074 	movhi	r4,129
  808334:	21055804 	addi	r4,r4,5472
  808338:	08098740 	call	809874 <xputs>
    xputs(_USE_LFN ? "LFN Enabled" : "LFN Disabled");
  80833c:	01002074 	movhi	r4,129
  808340:	21055f04 	addi	r4,r4,5500
  808344:	08098740 	call	809874 <xputs>
    xprintf(", Code page: %u\n", _CODE_PAGE);
  808348:	01002074 	movhi	r4,129
  80834c:	21056304 	addi	r4,r4,5516
  808350:	01413884 	movi	r5,1250
  808354:	0809a940 	call	809a94 <xprintf>

    display_help();
  808358:	08082900 	call	808290 <display_help>
    Finfo.lfsize = sizeof(Lfname);
#endif

    for (;;) {

        get_line(Line, sizeof(Line));
  80835c:	01002074 	movhi	r4,129
  808360:	21177b04 	addi	r4,r4,24044
  808364:	01404004 	movi	r5,256
  808368:	0809e5c0 	call	809e5c <get_line>

        ptr = Line;
  80836c:	00802074 	movhi	r2,129
  808370:	10977b04 	addi	r2,r2,24044
  808374:	e0bff315 	stw	r2,-52(fp)
        switch (*ptr++) {
  808378:	e0bff317 	ldw	r2,-52(fp)
  80837c:	10c00044 	addi	r3,r2,1
  808380:	e0fff315 	stw	r3,-52(fp)
  808384:	10800003 	ldbu	r2,0(r2)
  808388:	10803fcc 	andi	r2,r2,255
  80838c:	1080201c 	xori	r2,r2,128
  808390:	10bfe004 	addi	r2,r2,-128
  808394:	10bfe784 	addi	r2,r2,-98
  808398:	10c00328 	cmpgeui	r3,r2,12
  80839c:	183fef1e 	bne	r3,zero,80835c <__alt_data_end+0xff80835c>
  8083a0:	100690ba 	slli	r3,r2,2
  8083a4:	00802074 	movhi	r2,129
  8083a8:	10a0ee04 	addi	r2,r2,-31816
  8083ac:	1885883a 	add	r2,r3,r2
  8083b0:	10800017 	ldw	r2,0(r2)
  8083b4:	1000683a 	jmp	r2
  8083b8:	00808980 	call	80898 <__alt_mem_sdram_0-0x77f768>
  8083bc:	0080835c 	xori	r2,zero,525
  8083c0:	008084c4 	movi	r2,531
  8083c4:	0080835c 	xori	r2,zero,525
  8083c8:	00808b1c 	xori	r2,zero,556
  8083cc:	0080835c 	xori	r2,zero,525
  8083d0:	00809590 	cmplti	r2,zero,598
  8083d4:	0080835c 	xori	r2,zero,525
  8083d8:	0080835c 	xori	r2,zero,525
  8083dc:	0080835c 	xori	r2,zero,525
  8083e0:	0080835c 	xori	r2,zero,525
  8083e4:	008083e8 	cmpgeui	r2,zero,527

        case 'm':              /* System memroy/register controls */
            switch (*ptr++) {
  8083e8:	e0bff317 	ldw	r2,-52(fp)
  8083ec:	10c00044 	addi	r3,r2,1
  8083f0:	e0fff315 	stw	r3,-52(fp)
  8083f4:	10800003 	ldbu	r2,0(r2)
  8083f8:	10803fcc 	andi	r2,r2,255
  8083fc:	1080201c 	xori	r2,r2,128
  808400:	10bfe004 	addi	r2,r2,-128
  808404:	10801920 	cmpeqi	r2,r2,100
  808408:	1000011e 	bne	r2,zero,808410 <main+0x150>
                    put_dump((uint8_t *) ptr, (uint32_t) ptr, 16);
                if (p2)
                    put_dump((uint8_t *) ptr, (uint32_t) ptr, p2);
                break;
            }
            break;
  80840c:	00046306 	br	80959c <main+0x12dc>
        switch (*ptr++) {

        case 'm':              /* System memroy/register controls */
            switch (*ptr++) {
            case 'd':          /* md <address> [<count>] - Dump memory */
                if (!xatoi(&ptr, &p1))
  808410:	e0fff304 	addi	r3,fp,-52
  808414:	e0bff404 	addi	r2,fp,-48
  808418:	1809883a 	mov	r4,r3
  80841c:	100b883a 	mov	r5,r2
  808420:	08095a00 	call	8095a0 <xatoi>
  808424:	1000011e 	bne	r2,zero,80842c <main+0x16c>
                    break;
  808428:	00002506 	br	8084c0 <main+0x200>
                if (!xatoi(&ptr, &p2))
  80842c:	e0fff304 	addi	r3,fp,-52
  808430:	e0bff504 	addi	r2,fp,-44
  808434:	1809883a 	mov	r4,r3
  808438:	100b883a 	mov	r5,r2
  80843c:	08095a00 	call	8095a0 <xatoi>
  808440:	1000021e 	bne	r2,zero,80844c <main+0x18c>
                    p2 = 128;
  808444:	00802004 	movi	r2,128
  808448:	e0bff515 	stw	r2,-44(fp)
                for (ptr = (char *) p1; p2 >= 16; ptr += 16, p2 -= 16)
  80844c:	e0bff417 	ldw	r2,-48(fp)
  808450:	e0bff315 	stw	r2,-52(fp)
  808454:	00000c06 	br	808488 <main+0x1c8>
                    put_dump((uint8_t *) ptr, (uint32_t) ptr, 16);
  808458:	e0bff317 	ldw	r2,-52(fp)
  80845c:	e0fff317 	ldw	r3,-52(fp)
  808460:	1009883a 	mov	r4,r2
  808464:	180b883a 	mov	r5,r3
  808468:	01800404 	movi	r6,16
  80846c:	0809d400 	call	809d40 <put_dump>
            case 'd':          /* md <address> [<count>] - Dump memory */
                if (!xatoi(&ptr, &p1))
                    break;
                if (!xatoi(&ptr, &p2))
                    p2 = 128;
                for (ptr = (char *) p1; p2 >= 16; ptr += 16, p2 -= 16)
  808470:	e0bff317 	ldw	r2,-52(fp)
  808474:	10800404 	addi	r2,r2,16
  808478:	e0bff315 	stw	r2,-52(fp)
  80847c:	e0bff517 	ldw	r2,-44(fp)
  808480:	10bffc04 	addi	r2,r2,-16
  808484:	e0bff515 	stw	r2,-44(fp)
  808488:	e0bff517 	ldw	r2,-44(fp)
  80848c:	10800408 	cmpgei	r2,r2,16
  808490:	103ff11e 	bne	r2,zero,808458 <__alt_data_end+0xff808458>
                    put_dump((uint8_t *) ptr, (uint32_t) ptr, 16);
                if (p2)
  808494:	e0bff517 	ldw	r2,-44(fp)
  808498:	10000826 	beq	r2,zero,8084bc <main+0x1fc>
                    put_dump((uint8_t *) ptr, (uint32_t) ptr, p2);
  80849c:	e0fff317 	ldw	r3,-52(fp)
  8084a0:	e0bff317 	ldw	r2,-52(fp)
  8084a4:	100b883a 	mov	r5,r2
  8084a8:	e0bff517 	ldw	r2,-44(fp)
  8084ac:	1809883a 	mov	r4,r3
  8084b0:	100d883a 	mov	r6,r2
  8084b4:	0809d400 	call	809d40 <put_dump>
                break;
  8084b8:	00000006 	br	8084bc <main+0x1fc>
  8084bc:	0001883a 	nop
            }
            break;
  8084c0:	00043606 	br	80959c <main+0x12dc>

        case 'd':              /* Disk I/O layer controls */
            switch (*ptr++)
  8084c4:	e0bff317 	ldw	r2,-52(fp)
  8084c8:	10c00044 	addi	r3,r2,1
  8084cc:	e0fff315 	stw	r3,-52(fp)
  8084d0:	10800003 	ldbu	r2,0(r2)
  8084d4:	10803fcc 	andi	r2,r2,255
  8084d8:	1080201c 	xori	r2,r2,128
  8084dc:	10bfe004 	addi	r2,r2,-128
  8084e0:	10c01920 	cmpeqi	r3,r2,100
  8084e4:	18000a1e 	bne	r3,zero,808510 <main+0x250>
  8084e8:	10c01948 	cmpgei	r3,r2,101
  8084ec:	1800031e 	bne	r3,zero,8084fc <main+0x23c>
  8084f0:	108018e0 	cmpeqi	r2,r2,99
  8084f4:	1000e31e 	bne	r2,zero,808884 <main+0x5c4>
                    xprintf("rc=%d\n", disk_ioctl((uint8_t) p1, CTRL_ERASE_SECTOR, blk));
                    break;
                }
                break;
            }
            break; // end of Disk Controls //
  8084f8:	00042806 	br	80959c <main+0x12dc>
                break;
            }
            break;

        case 'd':              /* Disk I/O layer controls */
            switch (*ptr++)
  8084fc:	10c01a60 	cmpeqi	r3,r2,105
  808500:	1800461e 	bne	r3,zero,80861c <main+0x35c>
  808504:	10801ce0 	cmpeqi	r2,r2,115
  808508:	1000551e 	bne	r2,zero,808660 <main+0x3a0>
                    xprintf("rc=%d\n", disk_ioctl((uint8_t) p1, CTRL_ERASE_SECTOR, blk));
                    break;
                }
                break;
            }
            break; // end of Disk Controls //
  80850c:	00042306 	br	80959c <main+0x12dc>

        case 'd':              /* Disk I/O layer controls */
            switch (*ptr++)
            {
            case 'd':          /* dd [<drv> [<lba>]] - Dump secrtor */
                if (!xatoi(&ptr, &p1))
  808510:	e0fff304 	addi	r3,fp,-52
  808514:	e0bff404 	addi	r2,fp,-48
  808518:	1809883a 	mov	r4,r3
  80851c:	100b883a 	mov	r5,r2
  808520:	08095a00 	call	8095a0 <xatoi>
  808524:	1000031e 	bne	r2,zero,808534 <main+0x274>
                {
                    p1 = drv;
  808528:	e0bfe903 	ldbu	r2,-92(fp)
  80852c:	e0bff415 	stw	r2,-48(fp)
  808530:	00000806 	br	808554 <main+0x294>
                }
                else
                {
                    if (!xatoi(&ptr, &p2))
  808534:	e0fff304 	addi	r3,fp,-52
  808538:	e0bff504 	addi	r2,fp,-44
  80853c:	1809883a 	mov	r4,r3
  808540:	100b883a 	mov	r5,r2
  808544:	08095a00 	call	8095a0 <xatoi>
  808548:	1000021e 	bne	r2,zero,808554 <main+0x294>
                        p2 = sect;
  80854c:	e0bfed17 	ldw	r2,-76(fp)
  808550:	e0bff515 	stw	r2,-44(fp)
                }
                drv = (uint8_t) p1;
  808554:	e0bff417 	ldw	r2,-48(fp)
  808558:	e0bfe905 	stb	r2,-92(fp)
                sect = p2 + 1;
  80855c:	e0bff517 	ldw	r2,-44(fp)
  808560:	10800044 	addi	r2,r2,1
  808564:	e0bfed15 	stw	r2,-76(fp)
                res = disk_read((uint8_t) p1, Buff, p2, 1);
  808568:	e0bff417 	ldw	r2,-48(fp)
  80856c:	10803fcc 	andi	r2,r2,255
  808570:	e0fff517 	ldw	r3,-44(fp)
  808574:	1009883a 	mov	r4,r2
  808578:	01402074 	movhi	r5,129
  80857c:	29566b04 	addi	r5,r5,22956
  808580:	180d883a 	mov	r6,r3
  808584:	01c00044 	movi	r7,1
  808588:	0800dec0 	call	800dec <ffs_DiskIORead>
  80858c:	e0bff005 	stb	r2,-64(fp)
                if (res)
  808590:	e0bff003 	ldbu	r2,-64(fp)
  808594:	10000626 	beq	r2,zero,8085b0 <main+0x2f0>
                {
                    xprintf("rc=%d\n", (uint16_t) res);
  808598:	e0bff003 	ldbu	r2,-64(fp)
  80859c:	01002074 	movhi	r4,129
  8085a0:	21056804 	addi	r4,r4,5536
  8085a4:	100b883a 	mov	r5,r2
  8085a8:	0809a940 	call	809a94 <xprintf>
                    break;
  8085ac:	0000f306 	br	80897c <main+0x6bc>
                }
                xprintf("D:%lu S:%lu\n", p1, p2);
  8085b0:	e0fff417 	ldw	r3,-48(fp)
  8085b4:	e0bff517 	ldw	r2,-44(fp)
  8085b8:	01002074 	movhi	r4,129
  8085bc:	21056a04 	addi	r4,r4,5544
  8085c0:	180b883a 	mov	r5,r3
  8085c4:	100d883a 	mov	r6,r2
  8085c8:	0809a940 	call	809a94 <xprintf>
                for (ptr = (char *) Buff, ofs = 0; ofs < 0x200; ptr += 16, ofs += 16)
  8085cc:	00802074 	movhi	r2,129
  8085d0:	10966b04 	addi	r2,r2,22956
  8085d4:	e0bff315 	stw	r2,-52(fp)
  8085d8:	e03fec15 	stw	zero,-80(fp)
  8085dc:	00000b06 	br	80860c <main+0x34c>
                    put_dump((uint8_t *) ptr, ofs, 16);
  8085e0:	e0bff317 	ldw	r2,-52(fp)
  8085e4:	1009883a 	mov	r4,r2
  8085e8:	e17fec17 	ldw	r5,-80(fp)
  8085ec:	01800404 	movi	r6,16
  8085f0:	0809d400 	call	809d40 <put_dump>
                {
                    xprintf("rc=%d\n", (uint16_t) res);
                    break;
                }
                xprintf("D:%lu S:%lu\n", p1, p2);
                for (ptr = (char *) Buff, ofs = 0; ofs < 0x200; ptr += 16, ofs += 16)
  8085f4:	e0bff317 	ldw	r2,-52(fp)
  8085f8:	10800404 	addi	r2,r2,16
  8085fc:	e0bff315 	stw	r2,-52(fp)
  808600:	e0bfec17 	ldw	r2,-80(fp)
  808604:	10800404 	addi	r2,r2,16
  808608:	e0bfec15 	stw	r2,-80(fp)
  80860c:	e0bfec17 	ldw	r2,-80(fp)
  808610:	10808030 	cmpltui	r2,r2,512
  808614:	103ff21e 	bne	r2,zero,8085e0 <__alt_data_end+0xff8085e0>
                    put_dump((uint8_t *) ptr, ofs, 16);
                break;
  808618:	0000d806 	br	80897c <main+0x6bc>

            case 'i':          /* di <drv> - Initialize disk */
                if (!xatoi(&ptr, &p1))
  80861c:	e0fff304 	addi	r3,fp,-52
  808620:	e0bff404 	addi	r2,fp,-48
  808624:	1809883a 	mov	r4,r3
  808628:	100b883a 	mov	r5,r2
  80862c:	08095a00 	call	8095a0 <xatoi>
  808630:	1000011e 	bne	r2,zero,808638 <main+0x378>
                    break;
  808634:	0000d106 	br	80897c <main+0x6bc>
                xprintf("rc=%d\n", (uint16_t) disk_initialize((uint8_t) p1));
  808638:	e0bff417 	ldw	r2,-48(fp)
  80863c:	10803fcc 	andi	r2,r2,255
  808640:	1009883a 	mov	r4,r2
  808644:	0800b680 	call	800b68 <ffs_DiskIOInitialize>
  808648:	10803fcc 	andi	r2,r2,255
  80864c:	01002074 	movhi	r4,129
  808650:	21056804 	addi	r4,r4,5536
  808654:	100b883a 	mov	r5,r2
  808658:	0809a940 	call	809a94 <xprintf>
                break;
  80865c:	0000c706 	br	80897c <main+0x6bc>

            case 's':          /* ds <drv> - Show disk status */
                if (!xatoi(&ptr, &p1))
  808660:	e0fff304 	addi	r3,fp,-52
  808664:	e0bff404 	addi	r2,fp,-48
  808668:	1809883a 	mov	r4,r3
  80866c:	100b883a 	mov	r5,r2
  808670:	08095a00 	call	8095a0 <xatoi>
  808674:	1000011e 	bne	r2,zero,80867c <main+0x3bc>
                    break;
  808678:	0000c006 	br	80897c <main+0x6bc>
                if (disk_ioctl((uint8_t) p1, GET_SECTOR_COUNT, &p2) == RES_OK) {
  80867c:	e0bff417 	ldw	r2,-48(fp)
  808680:	10c03fcc 	andi	r3,r2,255
  808684:	e0bff504 	addi	r2,fp,-44
  808688:	1809883a 	mov	r4,r3
  80868c:	01400044 	movi	r5,1
  808690:	100d883a 	mov	r6,r2
  808694:	08010740 	call	801074 <ffs_DiskIOIoctl>
  808698:	1000051e 	bne	r2,zero,8086b0 <main+0x3f0>
                    xprintf("Drive size: %lu sectors\n", p2);
  80869c:	e0bff517 	ldw	r2,-44(fp)
  8086a0:	01002074 	movhi	r4,129
  8086a4:	21056e04 	addi	r4,r4,5560
  8086a8:	100b883a 	mov	r5,r2
  8086ac:	0809a940 	call	809a94 <xprintf>
                }
                if (disk_ioctl((uint8_t) p1, GET_SECTOR_SIZE, &w1) == RES_OK) {
  8086b0:	e0bff417 	ldw	r2,-48(fp)
  8086b4:	10c03fcc 	andi	r3,r2,255
  8086b8:	e0bff784 	addi	r2,fp,-34
  8086bc:	1809883a 	mov	r4,r3
  8086c0:	01400084 	movi	r5,2
  8086c4:	100d883a 	mov	r6,r2
  8086c8:	08010740 	call	801074 <ffs_DiskIOIoctl>
  8086cc:	1000061e 	bne	r2,zero,8086e8 <main+0x428>
                    xprintf("Sector size: %u bytes\n", w1);
  8086d0:	e0bff78b 	ldhu	r2,-34(fp)
  8086d4:	10bfffcc 	andi	r2,r2,65535
  8086d8:	01002074 	movhi	r4,129
  8086dc:	21057504 	addi	r4,r4,5588
  8086e0:	100b883a 	mov	r5,r2
  8086e4:	0809a940 	call	809a94 <xprintf>
                }
                if (disk_ioctl((uint8_t) p1, GET_BLOCK_SIZE, &p2) == RES_OK) {
  8086e8:	e0bff417 	ldw	r2,-48(fp)
  8086ec:	10c03fcc 	andi	r3,r2,255
  8086f0:	e0bff504 	addi	r2,fp,-44
  8086f4:	1809883a 	mov	r4,r3
  8086f8:	014000c4 	movi	r5,3
  8086fc:	100d883a 	mov	r6,r2
  808700:	08010740 	call	801074 <ffs_DiskIOIoctl>
  808704:	1000051e 	bne	r2,zero,80871c <main+0x45c>
                    xprintf("Block size: %lu sectors\n", p2);
  808708:	e0bff517 	ldw	r2,-44(fp)
  80870c:	01002074 	movhi	r4,129
  808710:	21057b04 	addi	r4,r4,5612
  808714:	100b883a 	mov	r5,r2
  808718:	0809a940 	call	809a94 <xprintf>
                }
                if (disk_ioctl((uint8_t) p1, MMC_GET_TYPE, &b1) == RES_OK) {
  80871c:	e0bff417 	ldw	r2,-48(fp)
  808720:	10c03fcc 	andi	r3,r2,255
  808724:	e0bff704 	addi	r2,fp,-36
  808728:	1809883a 	mov	r4,r3
  80872c:	01400284 	movi	r5,10
  808730:	100d883a 	mov	r6,r2
  808734:	08010740 	call	801074 <ffs_DiskIOIoctl>
  808738:	1000061e 	bne	r2,zero,808754 <main+0x494>
                    xprintf("MMC/SDC type: %u\n", b1);
  80873c:	e0bff703 	ldbu	r2,-36(fp)
  808740:	10803fcc 	andi	r2,r2,255
  808744:	01002074 	movhi	r4,129
  808748:	21058204 	addi	r4,r4,5640
  80874c:	100b883a 	mov	r5,r2
  808750:	0809a940 	call	809a94 <xprintf>
                }
                if (disk_ioctl((uint8_t) p1, MMC_GET_CSD, Buff) == RES_OK) {
  808754:	e0bff417 	ldw	r2,-48(fp)
  808758:	10803fcc 	andi	r2,r2,255
  80875c:	1009883a 	mov	r4,r2
  808760:	014002c4 	movi	r5,11
  808764:	01802074 	movhi	r6,129
  808768:	31966b04 	addi	r6,r6,22956
  80876c:	08010740 	call	801074 <ffs_DiskIOIoctl>
  808770:	1000081e 	bne	r2,zero,808794 <main+0x4d4>
                    xputs("CSD:\n");
  808774:	01002074 	movhi	r4,129
  808778:	21058704 	addi	r4,r4,5660
  80877c:	08098740 	call	809874 <xputs>
                    put_dump(Buff, 0, 16);
  808780:	01002074 	movhi	r4,129
  808784:	21166b04 	addi	r4,r4,22956
  808788:	000b883a 	mov	r5,zero
  80878c:	01800404 	movi	r6,16
  808790:	0809d400 	call	809d40 <put_dump>
                }
                if (disk_ioctl((uint8_t) p1, MMC_GET_CID, Buff) == RES_OK) {
  808794:	e0bff417 	ldw	r2,-48(fp)
  808798:	10803fcc 	andi	r2,r2,255
  80879c:	1009883a 	mov	r4,r2
  8087a0:	01400304 	movi	r5,12
  8087a4:	01802074 	movhi	r6,129
  8087a8:	31966b04 	addi	r6,r6,22956
  8087ac:	08010740 	call	801074 <ffs_DiskIOIoctl>
  8087b0:	1000081e 	bne	r2,zero,8087d4 <main+0x514>
                    xputs("CID:\n");
  8087b4:	01002074 	movhi	r4,129
  8087b8:	21058904 	addi	r4,r4,5668
  8087bc:	08098740 	call	809874 <xputs>
                    put_dump(Buff, 0, 16);
  8087c0:	01002074 	movhi	r4,129
  8087c4:	21166b04 	addi	r4,r4,22956
  8087c8:	000b883a 	mov	r5,zero
  8087cc:	01800404 	movi	r6,16
  8087d0:	0809d400 	call	809d40 <put_dump>
                }
                if (disk_ioctl((uint8_t) p1, MMC_GET_OCR, Buff) == RES_OK) {
  8087d4:	e0bff417 	ldw	r2,-48(fp)
  8087d8:	10803fcc 	andi	r2,r2,255
  8087dc:	1009883a 	mov	r4,r2
  8087e0:	01400344 	movi	r5,13
  8087e4:	01802074 	movhi	r6,129
  8087e8:	31966b04 	addi	r6,r6,22956
  8087ec:	08010740 	call	801074 <ffs_DiskIOIoctl>
  8087f0:	1000081e 	bne	r2,zero,808814 <main+0x554>
                    xputs("OCR:\n");
  8087f4:	01002074 	movhi	r4,129
  8087f8:	21058b04 	addi	r4,r4,5676
  8087fc:	08098740 	call	809874 <xputs>
                    put_dump(Buff, 0, 4);
  808800:	01002074 	movhi	r4,129
  808804:	21166b04 	addi	r4,r4,22956
  808808:	000b883a 	mov	r5,zero
  80880c:	01800104 	movi	r6,4
  808810:	0809d400 	call	809d40 <put_dump>
                }
                if (disk_ioctl((uint8_t) p1, MMC_GET_SDSTAT, Buff) == RES_OK) {
  808814:	e0bff417 	ldw	r2,-48(fp)
  808818:	10803fcc 	andi	r2,r2,255
  80881c:	1009883a 	mov	r4,r2
  808820:	01400384 	movi	r5,14
  808824:	01802074 	movhi	r6,129
  808828:	31966b04 	addi	r6,r6,22956
  80882c:	08010740 	call	801074 <ffs_DiskIOIoctl>
  808830:	1000131e 	bne	r2,zero,808880 <main+0x5c0>
                    xputs("SD Status:\n");
  808834:	01002074 	movhi	r4,129
  808838:	21058d04 	addi	r4,r4,5684
  80883c:	08098740 	call	809874 <xputs>
                    for (s1 = 0; s1 < 64; s1 += 16)
  808840:	e03fea15 	stw	zero,-88(fp)
  808844:	00000b06 	br	808874 <main+0x5b4>
                        put_dump(Buff + s1, s1, 16);
  808848:	e0ffea17 	ldw	r3,-88(fp)
  80884c:	00802074 	movhi	r2,129
  808850:	10966b04 	addi	r2,r2,22956
  808854:	1885883a 	add	r2,r3,r2
  808858:	1009883a 	mov	r4,r2
  80885c:	e17fea17 	ldw	r5,-88(fp)
  808860:	01800404 	movi	r6,16
  808864:	0809d400 	call	809d40 <put_dump>
                    xputs("OCR:\n");
                    put_dump(Buff, 0, 4);
                }
                if (disk_ioctl((uint8_t) p1, MMC_GET_SDSTAT, Buff) == RES_OK) {
                    xputs("SD Status:\n");
                    for (s1 = 0; s1 < 64; s1 += 16)
  808868:	e0bfea17 	ldw	r2,-88(fp)
  80886c:	10800404 	addi	r2,r2,16
  808870:	e0bfea15 	stw	r2,-88(fp)
  808874:	e0bfea17 	ldw	r2,-88(fp)
  808878:	10801030 	cmpltui	r2,r2,64
  80887c:	103ff21e 	bne	r2,zero,808848 <__alt_data_end+0xff808848>
                        put_dump(Buff + s1, s1, 16);
                }
                break;
  808880:	00003e06 	br	80897c <main+0x6bc>

            case 'c':          /* Disk ioctl */
                switch (*ptr++) {
  808884:	e0bff317 	ldw	r2,-52(fp)
  808888:	10c00044 	addi	r3,r2,1
  80888c:	e0fff315 	stw	r3,-52(fp)
  808890:	10800003 	ldbu	r2,0(r2)
  808894:	10803fcc 	andi	r2,r2,255
  808898:	1080201c 	xori	r2,r2,128
  80889c:	10bfe004 	addi	r2,r2,-128
  8088a0:	10c01960 	cmpeqi	r3,r2,101
  8088a4:	1800151e 	bne	r3,zero,8088fc <main+0x63c>
  8088a8:	10801ce0 	cmpeqi	r2,r2,115
  8088ac:	1000011e 	bne	r2,zero,8088b4 <main+0x5f4>
                    if (!xatoi(&ptr, &p1) || !xatoi(&ptr, (long *) &blk[0]) || !xatoi(&ptr, (long *) &blk[1]))
                        break;
                    xprintf("rc=%d\n", disk_ioctl((uint8_t) p1, CTRL_ERASE_SECTOR, blk));
                    break;
                }
                break;
  8088b0:	00003106 	br	808978 <main+0x6b8>
                break;

            case 'c':          /* Disk ioctl */
                switch (*ptr++) {
                case 's':      /* dcs <drv> - CTRL_SYNC */
                    if (!xatoi(&ptr, &p1))
  8088b4:	e0fff304 	addi	r3,fp,-52
  8088b8:	e0bff404 	addi	r2,fp,-48
  8088bc:	1809883a 	mov	r4,r3
  8088c0:	100b883a 	mov	r5,r2
  8088c4:	08095a00 	call	8095a0 <xatoi>
  8088c8:	1000011e 	bne	r2,zero,8088d0 <main+0x610>
                        break;
  8088cc:	00002a06 	br	808978 <main+0x6b8>
                    xprintf("rc=%d\n", disk_ioctl((uint8_t) p1, CTRL_SYNC, 0));
  8088d0:	e0bff417 	ldw	r2,-48(fp)
  8088d4:	10803fcc 	andi	r2,r2,255
  8088d8:	1009883a 	mov	r4,r2
  8088dc:	000b883a 	mov	r5,zero
  8088e0:	000d883a 	mov	r6,zero
  8088e4:	08010740 	call	801074 <ffs_DiskIOIoctl>
  8088e8:	01002074 	movhi	r4,129
  8088ec:	21056804 	addi	r4,r4,5536
  8088f0:	100b883a 	mov	r5,r2
  8088f4:	0809a940 	call	809a94 <xprintf>
                    break;
  8088f8:	00001f06 	br	808978 <main+0x6b8>
                case 'e':      /* dce <drv> <start> <end> - CTRL_ERASE_SECTOR */
                    if (!xatoi(&ptr, &p1) || !xatoi(&ptr, (long *) &blk[0]) || !xatoi(&ptr, (long *) &blk[1]))
  8088fc:	e0fff304 	addi	r3,fp,-52
  808900:	e0bff404 	addi	r2,fp,-48
  808904:	1809883a 	mov	r4,r3
  808908:	100b883a 	mov	r5,r2
  80890c:	08095a00 	call	8095a0 <xatoi>
  808910:	10001926 	beq	r2,zero,808978 <main+0x6b8>
  808914:	e0fff304 	addi	r3,fp,-52
  808918:	e0bffa04 	addi	r2,fp,-24
  80891c:	1809883a 	mov	r4,r3
  808920:	100b883a 	mov	r5,r2
  808924:	08095a00 	call	8095a0 <xatoi>
  808928:	10001326 	beq	r2,zero,808978 <main+0x6b8>
  80892c:	e0fff304 	addi	r3,fp,-52
  808930:	e0bffa04 	addi	r2,fp,-24
  808934:	10800104 	addi	r2,r2,4
  808938:	1809883a 	mov	r4,r3
  80893c:	100b883a 	mov	r5,r2
  808940:	08095a00 	call	8095a0 <xatoi>
  808944:	10000c26 	beq	r2,zero,808978 <main+0x6b8>
                        break;
                    xprintf("rc=%d\n", disk_ioctl((uint8_t) p1, CTRL_ERASE_SECTOR, blk));
  808948:	e0bff417 	ldw	r2,-48(fp)
  80894c:	10c03fcc 	andi	r3,r2,255
  808950:	e0bffa04 	addi	r2,fp,-24
  808954:	1809883a 	mov	r4,r3
  808958:	01400104 	movi	r5,4
  80895c:	100d883a 	mov	r6,r2
  808960:	08010740 	call	801074 <ffs_DiskIOIoctl>
  808964:	01002074 	movhi	r4,129
  808968:	21056804 	addi	r4,r4,5536
  80896c:	100b883a 	mov	r5,r2
  808970:	0809a940 	call	809a94 <xprintf>
                    break;
  808974:	0001883a 	nop
                }
                break;
  808978:	0001883a 	nop
            }
            break; // end of Disk Controls //
  80897c:	00030706 	br	80959c <main+0x12dc>

        case 'b':              /* Buffer controls */
            switch (*ptr++)
  808980:	e0bff317 	ldw	r2,-52(fp)
  808984:	10c00044 	addi	r3,r2,1
  808988:	e0fff315 	stw	r3,-52(fp)
  80898c:	10800003 	ldbu	r2,0(r2)
  808990:	10803fcc 	andi	r2,r2,255
  808994:	1080201c 	xori	r2,r2,128
  808998:	10bfe004 	addi	r2,r2,-128
  80899c:	10c019a0 	cmpeqi	r3,r2,102
  8089a0:	18004e1e 	bne	r3,zero,808adc <main+0x81c>
  8089a4:	10c01ca0 	cmpeqi	r3,r2,114
  8089a8:	1800251e 	bne	r3,zero,808a40 <main+0x780>
  8089ac:	10801920 	cmpeqi	r2,r2,100
  8089b0:	1000011e 	bne	r2,zero,8089b8 <main+0x6f8>
                    break;
                memset(Buff, (uint8_t) p1, sizeof(Buff));
                break;

            }
            break; // end of Buffer Controls //
  8089b4:	0002f906 	br	80959c <main+0x12dc>

        case 'b':              /* Buffer controls */
            switch (*ptr++)
            {
            case 'd':          /* bd <addr> - Dump R/W buffer */
                if (!xatoi(&ptr, &p1))
  8089b8:	e0fff304 	addi	r3,fp,-52
  8089bc:	e0bff404 	addi	r2,fp,-48
  8089c0:	1809883a 	mov	r4,r3
  8089c4:	100b883a 	mov	r5,r2
  8089c8:	08095a00 	call	8095a0 <xatoi>
  8089cc:	1000011e 	bne	r2,zero,8089d4 <main+0x714>
                    break;
  8089d0:	00005106 	br	808b18 <main+0x858>
                for (ptr = (char *) &Buff[p1], ofs = p1, cnt = 32; cnt; cnt--, ptr += 16, ofs += 16)
  8089d4:	e0fff417 	ldw	r3,-48(fp)
  8089d8:	00802074 	movhi	r2,129
  8089dc:	10966b04 	addi	r2,r2,22956
  8089e0:	1885883a 	add	r2,r3,r2
  8089e4:	e0bff315 	stw	r2,-52(fp)
  8089e8:	e0bff417 	ldw	r2,-48(fp)
  8089ec:	e0bfec15 	stw	r2,-80(fp)
  8089f0:	00800804 	movi	r2,32
  8089f4:	e0bff915 	stw	r2,-28(fp)
  8089f8:	00000e06 	br	808a34 <main+0x774>
                    put_dump((uint8_t *) ptr, ofs, 16);
  8089fc:	e0bff317 	ldw	r2,-52(fp)
  808a00:	1009883a 	mov	r4,r2
  808a04:	e17fec17 	ldw	r5,-80(fp)
  808a08:	01800404 	movi	r6,16
  808a0c:	0809d400 	call	809d40 <put_dump>
            switch (*ptr++)
            {
            case 'd':          /* bd <addr> - Dump R/W buffer */
                if (!xatoi(&ptr, &p1))
                    break;
                for (ptr = (char *) &Buff[p1], ofs = p1, cnt = 32; cnt; cnt--, ptr += 16, ofs += 16)
  808a10:	e0bff917 	ldw	r2,-28(fp)
  808a14:	10bfffc4 	addi	r2,r2,-1
  808a18:	e0bff915 	stw	r2,-28(fp)
  808a1c:	e0bff317 	ldw	r2,-52(fp)
  808a20:	10800404 	addi	r2,r2,16
  808a24:	e0bff315 	stw	r2,-52(fp)
  808a28:	e0bfec17 	ldw	r2,-80(fp)
  808a2c:	10800404 	addi	r2,r2,16
  808a30:	e0bfec15 	stw	r2,-80(fp)
  808a34:	e0bff917 	ldw	r2,-28(fp)
  808a38:	103ff01e 	bne	r2,zero,8089fc <__alt_data_end+0xff8089fc>
                    put_dump((uint8_t *) ptr, ofs, 16);
                break;
  808a3c:	00003606 	br	808b18 <main+0x858>


            case 'r':          /* br <drv> <lba> [<num>] - Read disk into R/W buffer */
                if (!xatoi(&ptr, &p1))
  808a40:	e0fff304 	addi	r3,fp,-52
  808a44:	e0bff404 	addi	r2,fp,-48
  808a48:	1809883a 	mov	r4,r3
  808a4c:	100b883a 	mov	r5,r2
  808a50:	08095a00 	call	8095a0 <xatoi>
  808a54:	1000011e 	bne	r2,zero,808a5c <main+0x79c>
                    break;
  808a58:	00002f06 	br	808b18 <main+0x858>
                if (!xatoi(&ptr, &p2))
  808a5c:	e0fff304 	addi	r3,fp,-52
  808a60:	e0bff504 	addi	r2,fp,-44
  808a64:	1809883a 	mov	r4,r3
  808a68:	100b883a 	mov	r5,r2
  808a6c:	08095a00 	call	8095a0 <xatoi>
  808a70:	1000011e 	bne	r2,zero,808a78 <main+0x7b8>
                    break;
  808a74:	00002806 	br	808b18 <main+0x858>
                if (!xatoi(&ptr, &p3))
  808a78:	e0fff304 	addi	r3,fp,-52
  808a7c:	e0bff604 	addi	r2,fp,-40
  808a80:	1809883a 	mov	r4,r3
  808a84:	100b883a 	mov	r5,r2
  808a88:	08095a00 	call	8095a0 <xatoi>
  808a8c:	1000021e 	bne	r2,zero,808a98 <main+0x7d8>
                    p3 = 1;
  808a90:	00800044 	movi	r2,1
  808a94:	e0bff615 	stw	r2,-40(fp)
                xprintf("rc=%u\n", (uint16_t) disk_read((uint8_t) p1, Buff, p2, p3));
  808a98:	e0bff417 	ldw	r2,-48(fp)
  808a9c:	10c03fcc 	andi	r3,r2,255
  808aa0:	e0bff517 	ldw	r2,-44(fp)
  808aa4:	100d883a 	mov	r6,r2
  808aa8:	e0bff617 	ldw	r2,-40(fp)
  808aac:	10803fcc 	andi	r2,r2,255
  808ab0:	1809883a 	mov	r4,r3
  808ab4:	01402074 	movhi	r5,129
  808ab8:	29566b04 	addi	r5,r5,22956
  808abc:	100f883a 	mov	r7,r2
  808ac0:	0800dec0 	call	800dec <ffs_DiskIORead>
  808ac4:	10bfffcc 	andi	r2,r2,65535
  808ac8:	01002074 	movhi	r4,129
  808acc:	21059004 	addi	r4,r4,5696
  808ad0:	100b883a 	mov	r5,r2
  808ad4:	0809a940 	call	809a94 <xprintf>
                break;
  808ad8:	00000f06 	br	808b18 <main+0x858>


            case 'f':          /* bf <val> - Fill working buffer */
                if (!xatoi(&ptr, &p1))
  808adc:	e0fff304 	addi	r3,fp,-52
  808ae0:	e0bff404 	addi	r2,fp,-48
  808ae4:	1809883a 	mov	r4,r3
  808ae8:	100b883a 	mov	r5,r2
  808aec:	08095a00 	call	8095a0 <xatoi>
  808af0:	1000011e 	bne	r2,zero,808af8 <main+0x838>
                    break;
  808af4:	00000806 	br	808b18 <main+0x858>
                memset(Buff, (uint8_t) p1, sizeof(Buff));
  808af8:	e0bff417 	ldw	r2,-48(fp)
  808afc:	10803fcc 	andi	r2,r2,255
  808b00:	01002074 	movhi	r4,129
  808b04:	21166b04 	addi	r4,r4,22956
  808b08:	100b883a 	mov	r5,r2
  808b0c:	01808004 	movi	r6,512
  808b10:	080a1ec0 	call	80a1ec <memset>
                break;
  808b14:	0001883a 	nop

            }
            break; // end of Buffer Controls //
  808b18:	0002a006 	br	80959c <main+0x12dc>

        case 'f':              /* FatFS API controls */
            switch (*ptr++)
  808b1c:	e0bff317 	ldw	r2,-52(fp)
  808b20:	10c00044 	addi	r3,r2,1
  808b24:	e0fff315 	stw	r3,-52(fp)
  808b28:	10800003 	ldbu	r2,0(r2)
  808b2c:	10803fcc 	andi	r2,r2,255
  808b30:	1080201c 	xori	r2,r2,128
  808b34:	10bfe004 	addi	r2,r2,-128
  808b38:	10bfe744 	addi	r2,r2,-99
  808b3c:	10c00628 	cmpgeui	r3,r2,24
  808b40:	1802951e 	bne	r3,zero,809598 <main+0x12d8>
  808b44:	100690ba 	slli	r3,r2,2
  808b48:	00802074 	movhi	r2,129
  808b4c:	10a2d704 	addi	r2,r2,-29860
  808b50:	1885883a 	add	r2,r3,r2
  808b54:	10800017 	ldw	r2,0(r2)
  808b58:	1000683a 	jmp	r2
  808b5c:	00808bbc 	xorhi	r2,zero,558
  808b60:	00808bd4 	movui	r2,559
  808b64:	00808cb0 	cmpltui	r2,zero,562
  808b68:	00809598 	cmpnei	r2,zero,598
  808b6c:	00809598 	cmpnei	r2,zero,598
  808b70:	00809598 	cmpnei	r2,zero,598
  808b74:	00808d2c 	andhi	r2,zero,564
  808b78:	00809598 	cmpnei	r2,zero,598
  808b7c:	00809598 	cmpnei	r2,zero,598
  808b80:	00808d84 	movi	r2,566
  808b84:	00809598 	cmpnei	r2,zero,598
  808b88:	00809598 	cmpnei	r2,zero,598
  808b8c:	00809070 	cmpltui	r2,zero,577
  808b90:	008090e4 	muli	r2,zero,579
  808b94:	00809598 	cmpnei	r2,zero,598
  808b98:	008092a8 	cmpgeui	r2,zero,586
  808b9c:	008093c0 	call	8093c <__alt_mem_sdram_0-0x77f6c4>
  808ba0:	00809598 	cmpnei	r2,zero,598
  808ba4:	00809598 	cmpnei	r2,zero,598
  808ba8:	00809598 	cmpnei	r2,zero,598
  808bac:	00809598 	cmpnei	r2,zero,598
  808bb0:	00809598 	cmpnei	r2,zero,598
  808bb4:	00809598 	cmpnei	r2,zero,598
  808bb8:	00809544 	movi	r2,597
            {

            case 'c':          /* fc - Close a file */
                put_rc(f_close(&File1));
  808bbc:	01002074 	movhi	r4,129
  808bc0:	2115dc04 	addi	r4,r4,22384
  808bc4:	080508c0 	call	80508c <f_close>
  808bc8:	1009883a 	mov	r4,r2
  808bcc:	08081ec0 	call	8081ec <put_rc>
                break;
  808bd0:	00026e06 	br	80958c <main+0x12cc>

            case 'd':          /* fd <len> - read and dump file from current fp */
                if (!xatoi(&ptr, &p1))
  808bd4:	e0fff304 	addi	r3,fp,-52
  808bd8:	e0bff404 	addi	r2,fp,-48
  808bdc:	1809883a 	mov	r4,r3
  808be0:	100b883a 	mov	r5,r2
  808be4:	08095a00 	call	8095a0 <xatoi>
  808be8:	1000011e 	bne	r2,zero,808bf0 <main+0x930>
                    break;
  808bec:	00026706 	br	80958c <main+0x12cc>
                ofs = File1.fptr;
  808bf0:	00802074 	movhi	r2,129
  808bf4:	1095dc04 	addi	r2,r2,22384
  808bf8:	10800217 	ldw	r2,8(r2)
  808bfc:	e0bfec15 	stw	r2,-80(fp)
                while (p1)
  808c00:	00002806 	br	808ca4 <main+0x9e4>
                {
                    if ((uint32_t) p1 >= 16)
  808c04:	e0bff417 	ldw	r2,-48(fp)
  808c08:	10800430 	cmpltui	r2,r2,16
  808c0c:	1000061e 	bne	r2,zero,808c28 <main+0x968>
                    {
                        cnt = 16;
  808c10:	00800404 	movi	r2,16
  808c14:	e0bff915 	stw	r2,-28(fp)
                        p1 -= 16;
  808c18:	e0bff417 	ldw	r2,-48(fp)
  808c1c:	10bffc04 	addi	r2,r2,-16
  808c20:	e0bff415 	stw	r2,-48(fp)
  808c24:	00000306 	br	808c34 <main+0x974>
                    }
                    else
                    {
                        cnt = p1;
  808c28:	e0bff417 	ldw	r2,-48(fp)
  808c2c:	e0bff915 	stw	r2,-28(fp)
                        p1 = 0;
  808c30:	e03ff415 	stw	zero,-48(fp)
                    }
                    res = f_read(&File1, Buff, cnt, &cnt);
  808c34:	e0fff917 	ldw	r3,-28(fp)
  808c38:	e0bff904 	addi	r2,fp,-28
  808c3c:	01002074 	movhi	r4,129
  808c40:	2115dc04 	addi	r4,r4,22384
  808c44:	01402074 	movhi	r5,129
  808c48:	29566b04 	addi	r5,r5,22956
  808c4c:	180d883a 	mov	r6,r3
  808c50:	100f883a 	mov	r7,r2
  808c54:	08043a40 	call	8043a4 <f_read>
  808c58:	e0bff005 	stb	r2,-64(fp)
                    if (res != FR_OK)
  808c5c:	e0bff003 	ldbu	r2,-64(fp)
  808c60:	10000426 	beq	r2,zero,808c74 <main+0x9b4>
                    {
                        put_rc(res);
  808c64:	e0bff003 	ldbu	r2,-64(fp)
  808c68:	1009883a 	mov	r4,r2
  808c6c:	08081ec0 	call	8081ec <put_rc>
                        break;
  808c70:	00000e06 	br	808cac <main+0x9ec>
                    }
                    if (!cnt)
  808c74:	e0bff917 	ldw	r2,-28(fp)
  808c78:	1000011e 	bne	r2,zero,808c80 <main+0x9c0>
                        break;
  808c7c:	00000b06 	br	808cac <main+0x9ec>

                    put_dump(Buff, ofs, cnt);
  808c80:	e0bff917 	ldw	r2,-28(fp)
  808c84:	01002074 	movhi	r4,129
  808c88:	21166b04 	addi	r4,r4,22956
  808c8c:	e17fec17 	ldw	r5,-80(fp)
  808c90:	100d883a 	mov	r6,r2
  808c94:	0809d400 	call	809d40 <put_dump>
                    ofs += 16;
  808c98:	e0bfec17 	ldw	r2,-80(fp)
  808c9c:	10800404 	addi	r2,r2,16
  808ca0:	e0bfec15 	stw	r2,-80(fp)

            case 'd':          /* fd <len> - read and dump file from current fp */
                if (!xatoi(&ptr, &p1))
                    break;
                ofs = File1.fptr;
                while (p1)
  808ca4:	e0bff417 	ldw	r2,-48(fp)
  808ca8:	103fd61e 	bne	r2,zero,808c04 <__alt_data_end+0xff808c04>
                        break;

                    put_dump(Buff, ofs, cnt);
                    ofs += 16;
                }
                break;
  808cac:	00023706 	br	80958c <main+0x12cc>

            case 'e':          /* fe - Seek file pointer */
                if (!xatoi(&ptr, &p1))
  808cb0:	e0fff304 	addi	r3,fp,-52
  808cb4:	e0bff404 	addi	r2,fp,-48
  808cb8:	1809883a 	mov	r4,r3
  808cbc:	100b883a 	mov	r5,r2
  808cc0:	08095a00 	call	8095a0 <xatoi>
  808cc4:	1000011e 	bne	r2,zero,808ccc <main+0xa0c>
                    break;
  808cc8:	00023006 	br	80958c <main+0x12cc>
                res = f_lseek(&File1, p1);
  808ccc:	e0bff417 	ldw	r2,-48(fp)
  808cd0:	01002074 	movhi	r4,129
  808cd4:	2115dc04 	addi	r4,r4,22384
  808cd8:	100b883a 	mov	r5,r2
  808cdc:	08050d40 	call	8050d4 <f_lseek>
  808ce0:	e0bff005 	stb	r2,-64(fp)
                put_rc(res);
  808ce4:	e0bff003 	ldbu	r2,-64(fp)
  808ce8:	1009883a 	mov	r4,r2
  808cec:	08081ec0 	call	8081ec <put_rc>
                if (res == FR_OK)
  808cf0:	e0bff003 	ldbu	r2,-64(fp)
  808cf4:	10000c1e 	bne	r2,zero,808d28 <main+0xa68>
                    xprintf("fptr=%lu(0x%lX)\n", File1.fptr, File1.fptr);
  808cf8:	00802074 	movhi	r2,129
  808cfc:	1095dc04 	addi	r2,r2,22384
  808d00:	10c00217 	ldw	r3,8(r2)
  808d04:	00802074 	movhi	r2,129
  808d08:	1095dc04 	addi	r2,r2,22384
  808d0c:	10800217 	ldw	r2,8(r2)
  808d10:	01002074 	movhi	r4,129
  808d14:	21059204 	addi	r4,r4,5704
  808d18:	180b883a 	mov	r5,r3
  808d1c:	100d883a 	mov	r6,r2
  808d20:	0809a940 	call	809a94 <xprintf>
                break;
  808d24:	00021906 	br	80958c <main+0x12cc>
  808d28:	00021806 	br	80958c <main+0x12cc>

            case 'i':          /* fi <vol> - Force initialized the logical drive */
                if (!xatoi(&ptr, &p1))
  808d2c:	e0fff304 	addi	r3,fp,-52
  808d30:	e0bff404 	addi	r2,fp,-48
  808d34:	1809883a 	mov	r4,r3
  808d38:	100b883a 	mov	r5,r2
  808d3c:	08095a00 	call	8095a0 <xatoi>
  808d40:	1000011e 	bne	r2,zero,808d48 <main+0xa88>
                    break;
  808d44:	00021106 	br	80958c <main+0x12cc>
                put_rc(f_mount((uint8_t) p1, &Fatfs[p1]));
  808d48:	e0bff417 	ldw	r2,-48(fp)
  808d4c:	11003fcc 	andi	r4,r2,255
  808d50:	e0bff417 	ldw	r2,-48(fp)
  808d54:	10c08c24 	muli	r3,r2,560
  808d58:	00802074 	movhi	r2,129
  808d5c:	10955004 	addi	r2,r2,21824
  808d60:	1885883a 	add	r2,r3,r2
  808d64:	100b883a 	mov	r5,r2
  808d68:	0803e8c0 	call	803e8c <f_mount>
  808d6c:	1009883a 	mov	r4,r2
  808d70:	08081ec0 	call	8081ec <put_rc>
                break;
  808d74:	00020506 	br	80958c <main+0x12cc>

            case 'l':          /* fl [<path>] - Directory listing */
                while (*ptr == ' ')
                    ptr++;
  808d78:	e0bff317 	ldw	r2,-52(fp)
  808d7c:	10800044 	addi	r2,r2,1
  808d80:	e0bff315 	stw	r2,-52(fp)
                    break;
                put_rc(f_mount((uint8_t) p1, &Fatfs[p1]));
                break;

            case 'l':          /* fl [<path>] - Directory listing */
                while (*ptr == ' ')
  808d84:	e0bff317 	ldw	r2,-52(fp)
  808d88:	10800003 	ldbu	r2,0(r2)
  808d8c:	10803fcc 	andi	r2,r2,255
  808d90:	1080201c 	xori	r2,r2,128
  808d94:	10bfe004 	addi	r2,r2,-128
  808d98:	10800820 	cmpeqi	r2,r2,32
  808d9c:	103ff61e 	bne	r2,zero,808d78 <__alt_data_end+0xff808d78>
                    ptr++;
                res = f_opendir(&Dir, ptr);
  808da0:	e0bff317 	ldw	r2,-52(fp)
  808da4:	01002074 	movhi	r4,129
  808da8:	21177404 	addi	r4,r4,24016
  808dac:	100b883a 	mov	r5,r2
  808db0:	08055c00 	call	8055c0 <f_opendir>
  808db4:	e0bff005 	stb	r2,-64(fp)
                if (res) // if res in non-zero there is an error; print the error.
  808db8:	e0bff003 	ldbu	r2,-64(fp)
  808dbc:	10000426 	beq	r2,zero,808dd0 <main+0xb10>
                {
                    put_rc(res);
  808dc0:	e0bff003 	ldbu	r2,-64(fp)
  808dc4:	1009883a 	mov	r4,r2
  808dc8:	08081ec0 	call	8081ec <put_rc>
                    break;
  808dcc:	0001ef06 	br	80958c <main+0x12cc>
                }
                p1 = s1 = s2 = 0; // otherwise initialize the pointers and proceed.
  808dd0:	e03ff815 	stw	zero,-32(fp)
  808dd4:	e0bff817 	ldw	r2,-32(fp)
  808dd8:	e0bfea15 	stw	r2,-88(fp)
  808ddc:	e0bfea17 	ldw	r2,-88(fp)
  808de0:	e0bff415 	stw	r2,-48(fp)
                for (;;)
                {
                    res = f_readdir(&Dir, &Finfo);
  808de4:	01002074 	movhi	r4,129
  808de8:	21177404 	addi	r4,r4,24016
  808dec:	01402074 	movhi	r5,129
  808df0:	29566504 	addi	r5,r5,22932
  808df4:	08057300 	call	805730 <f_readdir>
  808df8:	e0bff005 	stb	r2,-64(fp)
                    if ((res != FR_OK) || !Finfo.fname[0])
  808dfc:	e0bff003 	ldbu	r2,-64(fp)
  808e00:	10007b1e 	bne	r2,zero,808ff0 <main+0xd30>
  808e04:	00802074 	movhi	r2,129
  808e08:	10966504 	addi	r2,r2,22932
  808e0c:	10800243 	ldbu	r2,9(r2)
  808e10:	10803fcc 	andi	r2,r2,255
  808e14:	1080201c 	xori	r2,r2,128
  808e18:	10bfe004 	addi	r2,r2,-128
  808e1c:	10007426 	beq	r2,zero,808ff0 <main+0xd30>
                        break;
                    if (Finfo.fattrib & AM_DIR)
  808e20:	00802074 	movhi	r2,129
  808e24:	10966504 	addi	r2,r2,22932
  808e28:	10800203 	ldbu	r2,8(r2)
  808e2c:	10803fcc 	andi	r2,r2,255
  808e30:	1080040c 	andi	r2,r2,16
  808e34:	10000426 	beq	r2,zero,808e48 <main+0xb88>
                    {
                        s2++;
  808e38:	e0bff817 	ldw	r2,-32(fp)
  808e3c:	10800044 	addi	r2,r2,1
  808e40:	e0bff815 	stw	r2,-32(fp)
  808e44:	00000906 	br	808e6c <main+0xbac>
                    }
                    else
                    {
                        s1++;
  808e48:	e0bfea17 	ldw	r2,-88(fp)
  808e4c:	10800044 	addi	r2,r2,1
  808e50:	e0bfea15 	stw	r2,-88(fp)
                        p1 += Finfo.fsize;
  808e54:	00802074 	movhi	r2,129
  808e58:	10966504 	addi	r2,r2,22932
  808e5c:	10800017 	ldw	r2,0(r2)
  808e60:	e0fff417 	ldw	r3,-48(fp)
  808e64:	10c5883a 	add	r2,r2,r3
  808e68:	e0bff415 	stw	r2,-48(fp)
                    }
                    xprintf("%c%c%c%c%c %u/%02u/%02u %02u:%02u %9lu  %s",
                            (Finfo.fattrib & AM_DIR) ? 'D' : '-',
  808e6c:	00802074 	movhi	r2,129
  808e70:	10966504 	addi	r2,r2,22932
  808e74:	10800203 	ldbu	r2,8(r2)
  808e78:	10803fcc 	andi	r2,r2,255
  808e7c:	1080040c 	andi	r2,r2,16
                    else
                    {
                        s1++;
                        p1 += Finfo.fsize;
                    }
                    xprintf("%c%c%c%c%c %u/%02u/%02u %02u:%02u %9lu  %s",
  808e80:	10000226 	beq	r2,zero,808e8c <main+0xbcc>
  808e84:	01401104 	movi	r5,68
  808e88:	00000106 	br	808e90 <main+0xbd0>
  808e8c:	01400b44 	movi	r5,45
                            (Finfo.fattrib & AM_DIR) ? 'D' : '-',
                            (Finfo.fattrib & AM_RDO) ? 'R' : '-',
  808e90:	00802074 	movhi	r2,129
  808e94:	10966504 	addi	r2,r2,22932
  808e98:	10800203 	ldbu	r2,8(r2)
  808e9c:	10803fcc 	andi	r2,r2,255
  808ea0:	1080004c 	andi	r2,r2,1
                    else
                    {
                        s1++;
                        p1 += Finfo.fsize;
                    }
                    xprintf("%c%c%c%c%c %u/%02u/%02u %02u:%02u %9lu  %s",
  808ea4:	10000226 	beq	r2,zero,808eb0 <main+0xbf0>
  808ea8:	01801484 	movi	r6,82
  808eac:	00000106 	br	808eb4 <main+0xbf4>
  808eb0:	01800b44 	movi	r6,45
                            (Finfo.fattrib & AM_DIR) ? 'D' : '-',
                            (Finfo.fattrib & AM_RDO) ? 'R' : '-',
                            (Finfo.fattrib & AM_HID) ? 'H' : '-',
  808eb4:	00802074 	movhi	r2,129
  808eb8:	10966504 	addi	r2,r2,22932
  808ebc:	10800203 	ldbu	r2,8(r2)
  808ec0:	10803fcc 	andi	r2,r2,255
  808ec4:	1080008c 	andi	r2,r2,2
                    else
                    {
                        s1++;
                        p1 += Finfo.fsize;
                    }
                    xprintf("%c%c%c%c%c %u/%02u/%02u %02u:%02u %9lu  %s",
  808ec8:	10000226 	beq	r2,zero,808ed4 <main+0xc14>
  808ecc:	01c01204 	movi	r7,72
  808ed0:	00000106 	br	808ed8 <main+0xc18>
  808ed4:	01c00b44 	movi	r7,45
                            (Finfo.fattrib & AM_DIR) ? 'D' : '-',
                            (Finfo.fattrib & AM_RDO) ? 'R' : '-',
                            (Finfo.fattrib & AM_HID) ? 'H' : '-',
                            (Finfo.fattrib & AM_SYS) ? 'S' : '-',
  808ed8:	00802074 	movhi	r2,129
  808edc:	10966504 	addi	r2,r2,22932
  808ee0:	10800203 	ldbu	r2,8(r2)
  808ee4:	10803fcc 	andi	r2,r2,255
  808ee8:	1080010c 	andi	r2,r2,4
                    else
                    {
                        s1++;
                        p1 += Finfo.fsize;
                    }
                    xprintf("%c%c%c%c%c %u/%02u/%02u %02u:%02u %9lu  %s",
  808eec:	10000226 	beq	r2,zero,808ef8 <main+0xc38>
  808ef0:	010014c4 	movi	r4,83
  808ef4:	00000106 	br	808efc <main+0xc3c>
  808ef8:	01000b44 	movi	r4,45
                            (Finfo.fattrib & AM_DIR) ? 'D' : '-',
                            (Finfo.fattrib & AM_RDO) ? 'R' : '-',
                            (Finfo.fattrib & AM_HID) ? 'H' : '-',
                            (Finfo.fattrib & AM_SYS) ? 'S' : '-',
                            (Finfo.fattrib & AM_ARC) ? 'A' : '-',
  808efc:	00802074 	movhi	r2,129
  808f00:	10966504 	addi	r2,r2,22932
  808f04:	10800203 	ldbu	r2,8(r2)
  808f08:	10803fcc 	andi	r2,r2,255
  808f0c:	1080080c 	andi	r2,r2,32
                    else
                    {
                        s1++;
                        p1 += Finfo.fsize;
                    }
                    xprintf("%c%c%c%c%c %u/%02u/%02u %02u:%02u %9lu  %s",
  808f10:	10000226 	beq	r2,zero,808f1c <main+0xc5c>
  808f14:	00c01044 	movi	r3,65
  808f18:	00000106 	br	808f20 <main+0xc60>
  808f1c:	00c00b44 	movi	r3,45
                            (Finfo.fattrib & AM_DIR) ? 'D' : '-',
                            (Finfo.fattrib & AM_RDO) ? 'R' : '-',
                            (Finfo.fattrib & AM_HID) ? 'H' : '-',
                            (Finfo.fattrib & AM_SYS) ? 'S' : '-',
                            (Finfo.fattrib & AM_ARC) ? 'A' : '-',
                            (Finfo.fdate >> 9) + 1980, (Finfo.fdate >> 5) & 15, Finfo.fdate & 31,
  808f20:	00802074 	movhi	r2,129
  808f24:	10966504 	addi	r2,r2,22932
  808f28:	1080010b 	ldhu	r2,4(r2)
  808f2c:	10bfffcc 	andi	r2,r2,65535
  808f30:	1004d27a 	srli	r2,r2,9
  808f34:	10bfffcc 	andi	r2,r2,65535
                    else
                    {
                        s1++;
                        p1 += Finfo.fsize;
                    }
                    xprintf("%c%c%c%c%c %u/%02u/%02u %02u:%02u %9lu  %s",
  808f38:	1301ef04 	addi	r12,r2,1980
                            (Finfo.fattrib & AM_DIR) ? 'D' : '-',
                            (Finfo.fattrib & AM_RDO) ? 'R' : '-',
                            (Finfo.fattrib & AM_HID) ? 'H' : '-',
                            (Finfo.fattrib & AM_SYS) ? 'S' : '-',
                            (Finfo.fattrib & AM_ARC) ? 'A' : '-',
                            (Finfo.fdate >> 9) + 1980, (Finfo.fdate >> 5) & 15, Finfo.fdate & 31,
  808f3c:	00802074 	movhi	r2,129
  808f40:	10966504 	addi	r2,r2,22932
  808f44:	1080010b 	ldhu	r2,4(r2)
                    else
                    {
                        s1++;
                        p1 += Finfo.fsize;
                    }
                    xprintf("%c%c%c%c%c %u/%02u/%02u %02u:%02u %9lu  %s",
  808f48:	10bfffcc 	andi	r2,r2,65535
  808f4c:	1004d17a 	srli	r2,r2,5
  808f50:	10bfffcc 	andi	r2,r2,65535
  808f54:	12c003cc 	andi	r11,r2,15
                            (Finfo.fattrib & AM_DIR) ? 'D' : '-',
                            (Finfo.fattrib & AM_RDO) ? 'R' : '-',
                            (Finfo.fattrib & AM_HID) ? 'H' : '-',
                            (Finfo.fattrib & AM_SYS) ? 'S' : '-',
                            (Finfo.fattrib & AM_ARC) ? 'A' : '-',
                            (Finfo.fdate >> 9) + 1980, (Finfo.fdate >> 5) & 15, Finfo.fdate & 31,
  808f58:	00802074 	movhi	r2,129
  808f5c:	10966504 	addi	r2,r2,22932
  808f60:	1080010b 	ldhu	r2,4(r2)
                    else
                    {
                        s1++;
                        p1 += Finfo.fsize;
                    }
                    xprintf("%c%c%c%c%c %u/%02u/%02u %02u:%02u %9lu  %s",
  808f64:	10bfffcc 	andi	r2,r2,65535
  808f68:	128007cc 	andi	r10,r2,31
                            (Finfo.fattrib & AM_RDO) ? 'R' : '-',
                            (Finfo.fattrib & AM_HID) ? 'H' : '-',
                            (Finfo.fattrib & AM_SYS) ? 'S' : '-',
                            (Finfo.fattrib & AM_ARC) ? 'A' : '-',
                            (Finfo.fdate >> 9) + 1980, (Finfo.fdate >> 5) & 15, Finfo.fdate & 31,
                            (Finfo.ftime >> 11), (Finfo.ftime >> 5) & 63, Finfo.fsize, &(Finfo.fname[0]));
  808f6c:	00802074 	movhi	r2,129
  808f70:	10966504 	addi	r2,r2,22932
  808f74:	1080018b 	ldhu	r2,6(r2)
                    else
                    {
                        s1++;
                        p1 += Finfo.fsize;
                    }
                    xprintf("%c%c%c%c%c %u/%02u/%02u %02u:%02u %9lu  %s",
  808f78:	10bfffcc 	andi	r2,r2,65535
  808f7c:	1004d2fa 	srli	r2,r2,11
  808f80:	127fffcc 	andi	r9,r2,65535
                            (Finfo.fattrib & AM_RDO) ? 'R' : '-',
                            (Finfo.fattrib & AM_HID) ? 'H' : '-',
                            (Finfo.fattrib & AM_SYS) ? 'S' : '-',
                            (Finfo.fattrib & AM_ARC) ? 'A' : '-',
                            (Finfo.fdate >> 9) + 1980, (Finfo.fdate >> 5) & 15, Finfo.fdate & 31,
                            (Finfo.ftime >> 11), (Finfo.ftime >> 5) & 63, Finfo.fsize, &(Finfo.fname[0]));
  808f84:	00802074 	movhi	r2,129
  808f88:	10966504 	addi	r2,r2,22932
  808f8c:	1080018b 	ldhu	r2,6(r2)
                    else
                    {
                        s1++;
                        p1 += Finfo.fsize;
                    }
                    xprintf("%c%c%c%c%c %u/%02u/%02u %02u:%02u %9lu  %s",
  808f90:	10bfffcc 	andi	r2,r2,65535
  808f94:	1004d17a 	srli	r2,r2,5
  808f98:	10bfffcc 	andi	r2,r2,65535
  808f9c:	12000fcc 	andi	r8,r2,63
  808fa0:	00802074 	movhi	r2,129
  808fa4:	10966504 	addi	r2,r2,22932
  808fa8:	10800017 	ldw	r2,0(r2)
  808fac:	d9000015 	stw	r4,0(sp)
  808fb0:	d8c00115 	stw	r3,4(sp)
  808fb4:	db000215 	stw	r12,8(sp)
  808fb8:	dac00315 	stw	r11,12(sp)
  808fbc:	da800415 	stw	r10,16(sp)
  808fc0:	da400515 	stw	r9,20(sp)
  808fc4:	da000615 	stw	r8,24(sp)
  808fc8:	d8800715 	stw	r2,28(sp)
  808fcc:	00802074 	movhi	r2,129
  808fd0:	10966744 	addi	r2,r2,22941
  808fd4:	d8800815 	stw	r2,32(sp)
  808fd8:	01002074 	movhi	r4,129
  808fdc:	21059704 	addi	r4,r4,5724
  808fe0:	0809a940 	call	809a94 <xprintf>
#if _USE_LFN
                    for (p2 = strlen(Finfo.fname); p2 < 14; p2++)
                        xputc(' ');
                    xprintf("%s\n", Lfname);
#else
                    xputc('\n');
  808fe4:	01000284 	movi	r4,10
  808fe8:	08098240 	call	809824 <xputc>
#endif
                }
  808fec:	003f7d06 	br	808de4 <__alt_data_end+0xff808de4>
                xprintf("%4u File(s),%10lu bytes total\n%4u Dir(s)", s1, p1, s2);
  808ff0:	e0fff417 	ldw	r3,-48(fp)
  808ff4:	e0bff817 	ldw	r2,-32(fp)
  808ff8:	01002074 	movhi	r4,129
  808ffc:	2105a204 	addi	r4,r4,5768
  809000:	e17fea17 	ldw	r5,-88(fp)
  809004:	180d883a 	mov	r6,r3
  809008:	100f883a 	mov	r7,r2
  80900c:	0809a940 	call	809a94 <xprintf>
                res = f_getfree(ptr, (uint32_t *) & p1, &fs);
  809010:	e13ff317 	ldw	r4,-52(fp)
  809014:	e0fff404 	addi	r3,fp,-48
  809018:	e0bffc04 	addi	r2,fp,-16
  80901c:	180b883a 	mov	r5,r3
  809020:	100d883a 	mov	r6,r2
  809024:	08058b40 	call	8058b4 <f_getfree>
  809028:	e0bff005 	stb	r2,-64(fp)
                if (res == FR_OK)
  80902c:	e0bff003 	ldbu	r2,-64(fp)
  809030:	10000b1e 	bne	r2,zero,809060 <main+0xda0>
                    xprintf(", %10lu bytes free\n", p1 * fs->csize * 512);
  809034:	e0bffc17 	ldw	r2,-16(fp)
  809038:	10800083 	ldbu	r2,2(r2)
  80903c:	10c03fcc 	andi	r3,r2,255
  809040:	e0bff417 	ldw	r2,-48(fp)
  809044:	1885383a 	mul	r2,r3,r2
  809048:	1004927a 	slli	r2,r2,9
  80904c:	01002074 	movhi	r4,129
  809050:	2105ad04 	addi	r4,r4,5812
  809054:	100b883a 	mov	r5,r2
  809058:	0809a940 	call	809a94 <xprintf>
                else
                    put_rc(res);
                break;
  80905c:	00014b06 	br	80958c <main+0x12cc>
                xprintf("%4u File(s),%10lu bytes total\n%4u Dir(s)", s1, p1, s2);
                res = f_getfree(ptr, (uint32_t *) & p1, &fs);
                if (res == FR_OK)
                    xprintf(", %10lu bytes free\n", p1 * fs->csize * 512);
                else
                    put_rc(res);
  809060:	e0bff003 	ldbu	r2,-64(fp)
  809064:	1009883a 	mov	r4,r2
  809068:	08081ec0 	call	8081ec <put_rc>
                break;
  80906c:	00014706 	br	80958c <main+0x12cc>

            case 'o':          /* fo <mode> <file> - Open a file */
                if (!xatoi(&ptr, &p1))
  809070:	e0fff304 	addi	r3,fp,-52
  809074:	e0bff404 	addi	r2,fp,-48
  809078:	1809883a 	mov	r4,r3
  80907c:	100b883a 	mov	r5,r2
  809080:	08095a00 	call	8095a0 <xatoi>
  809084:	1000011e 	bne	r2,zero,80908c <main+0xdcc>
                    break;
  809088:	00014006 	br	80958c <main+0x12cc>
                while (*ptr == ' ')
  80908c:	00000306 	br	80909c <main+0xddc>
                    ptr++;
  809090:	e0bff317 	ldw	r2,-52(fp)
  809094:	10800044 	addi	r2,r2,1
  809098:	e0bff315 	stw	r2,-52(fp)
                break;

            case 'o':          /* fo <mode> <file> - Open a file */
                if (!xatoi(&ptr, &p1))
                    break;
                while (*ptr == ' ')
  80909c:	e0bff317 	ldw	r2,-52(fp)
  8090a0:	10800003 	ldbu	r2,0(r2)
  8090a4:	10803fcc 	andi	r2,r2,255
  8090a8:	1080201c 	xori	r2,r2,128
  8090ac:	10bfe004 	addi	r2,r2,-128
  8090b0:	10800820 	cmpeqi	r2,r2,32
  8090b4:	103ff61e 	bne	r2,zero,809090 <__alt_data_end+0xff809090>
                    ptr++;
                put_rc(f_open(&File1, ptr, (uint8_t) p1));
  8090b8:	e0fff317 	ldw	r3,-52(fp)
  8090bc:	e0bff417 	ldw	r2,-48(fp)
  8090c0:	10803fcc 	andi	r2,r2,255
  8090c4:	01002074 	movhi	r4,129
  8090c8:	2115dc04 	addi	r4,r4,22384
  8090cc:	180b883a 	mov	r5,r3
  8090d0:	100d883a 	mov	r6,r2
  8090d4:	0803f200 	call	803f20 <f_open>
  8090d8:	1009883a 	mov	r4,r2
  8090dc:	08081ec0 	call	8081ec <put_rc>
                break;
  8090e0:	00012a06 	br	80958c <main+0x12cc>


            case 'p':          /* fp <len> - read and play file from current fp */
                if (!xatoi(&ptr, &p1))
  8090e4:	e0fff304 	addi	r3,fp,-52
  8090e8:	e0bff404 	addi	r2,fp,-48
  8090ec:	1809883a 	mov	r4,r3
  8090f0:	100b883a 	mov	r5,r2
  8090f4:	08095a00 	call	8095a0 <xatoi>
  8090f8:	1000011e 	bne	r2,zero,809100 <main+0xe40>
                    break;
  8090fc:	00012306 	br	80958c <main+0x12cc>
                ofs = File1.fptr;
  809100:	00802074 	movhi	r2,129
  809104:	1095dc04 	addi	r2,r2,22384
  809108:	10800217 	ldw	r2,8(r2)
  80910c:	e0bfec15 	stw	r2,-80(fp)
                const int SIZE = 512;
  809110:	00808004 	movi	r2,512
  809114:	e0bff115 	stw	r2,-60(fp)
                while (p1)
  809118:	00005d06 	br	809290 <main+0xfd0>
				{

                	if ((uint32_t) p1 >= SIZE){
  80911c:	e0bff417 	ldw	r2,-48(fp)
  809120:	1007883a 	mov	r3,r2
  809124:	e0bff117 	ldw	r2,-60(fp)
  809128:	18800736 	bltu	r3,r2,809148 <main+0xe88>

                		cnt = SIZE;
  80912c:	e0bff117 	ldw	r2,-60(fp)
  809130:	e0bff915 	stw	r2,-28(fp)
						p1 -= SIZE;
  809134:	e0fff417 	ldw	r3,-48(fp)
  809138:	e0bff117 	ldw	r2,-60(fp)
  80913c:	1885c83a 	sub	r2,r3,r2
  809140:	e0bff415 	stw	r2,-48(fp)
  809144:	00000306 	br	809154 <main+0xe94>
					}
					else
					{
						cnt = p1;
  809148:	e0bff417 	ldw	r2,-48(fp)
  80914c:	e0bff915 	stw	r2,-28(fp)
						p1 = 0;
  809150:	e03ff415 	stw	zero,-48(fp)
					}
					res = f_read(&File1, Buff, cnt, &cnt);
  809154:	e0fff917 	ldw	r3,-28(fp)
  809158:	e0bff904 	addi	r2,fp,-28
  80915c:	01002074 	movhi	r4,129
  809160:	2115dc04 	addi	r4,r4,22384
  809164:	01402074 	movhi	r5,129
  809168:	29566b04 	addi	r5,r5,22956
  80916c:	180d883a 	mov	r6,r3
  809170:	100f883a 	mov	r7,r2
  809174:	08043a40 	call	8043a4 <f_read>
  809178:	e0bff005 	stb	r2,-64(fp)
					if (res != FR_OK)
  80917c:	e0bff003 	ldbu	r2,-64(fp)
  809180:	10000426 	beq	r2,zero,809194 <main+0xed4>
					{
						put_rc(res);
  809184:	e0bff003 	ldbu	r2,-64(fp)
  809188:	1009883a 	mov	r4,r2
  80918c:	08081ec0 	call	8081ec <put_rc>
						break;
  809190:	00004106 	br	809298 <main+0xfd8>
					}

					int j;
					for (j = 0; j < cnt; j+=4) {
  809194:	e03fee15 	stw	zero,-72(fp)
  809198:	00003a06 	br	809284 <main+0xfc4>

						int converted_left = Buff[j] | Buff[j + 1] << 8;
  80919c:	00802074 	movhi	r2,129
  8091a0:	10966b04 	addi	r2,r2,22956
  8091a4:	e0ffee17 	ldw	r3,-72(fp)
  8091a8:	10c5883a 	add	r2,r2,r3
  8091ac:	10800003 	ldbu	r2,0(r2)
  8091b0:	10c03fcc 	andi	r3,r2,255
  8091b4:	e0bfee17 	ldw	r2,-72(fp)
  8091b8:	11000044 	addi	r4,r2,1
  8091bc:	00802074 	movhi	r2,129
  8091c0:	10966b04 	addi	r2,r2,22956
  8091c4:	1105883a 	add	r2,r2,r4
  8091c8:	10800003 	ldbu	r2,0(r2)
  8091cc:	10803fcc 	andi	r2,r2,255
  8091d0:	1004923a 	slli	r2,r2,8
  8091d4:	1884b03a 	or	r2,r3,r2
  8091d8:	e0bffd15 	stw	r2,-12(fp)
						int converted_right = Buff[j + 2] | Buff[j + 3] << 8;
  8091dc:	e0bfee17 	ldw	r2,-72(fp)
  8091e0:	10c00084 	addi	r3,r2,2
  8091e4:	00802074 	movhi	r2,129
  8091e8:	10966b04 	addi	r2,r2,22956
  8091ec:	10c5883a 	add	r2,r2,r3
  8091f0:	10800003 	ldbu	r2,0(r2)
  8091f4:	10c03fcc 	andi	r3,r2,255
  8091f8:	e0bfee17 	ldw	r2,-72(fp)
  8091fc:	110000c4 	addi	r4,r2,3
  809200:	00802074 	movhi	r2,129
  809204:	10966b04 	addi	r2,r2,22956
  809208:	1105883a 	add	r2,r2,r4
  80920c:	10800003 	ldbu	r2,0(r2)
  809210:	10803fcc 	andi	r2,r2,255
  809214:	1004923a 	slli	r2,r2,8
  809218:	1884b03a 	or	r2,r3,r2
  80921c:	e0bffe15 	stw	r2,-8(fp)

						int fifospace = alt_up_audio_write_fifo_space (audio_dev, ALT_UP_AUDIO_RIGHT);
  809220:	e13fef17 	ldw	r4,-68(fp)
  809224:	01400044 	movi	r5,1
  809228:	080fb840 	call	80fb84 <alt_up_audio_write_fifo_space>
  80922c:	e0bff215 	stw	r2,-56(fp)
						if(fifospace > 0){
  809230:	e0bff217 	ldw	r2,-56(fp)
  809234:	00800d0e 	bge	zero,r2,80926c <main+0xfac>
							   alt_up_audio_write_fifo (audio_dev, &(converted_left), 1, ALT_UP_AUDIO_LEFT);
  809238:	e0bffd04 	addi	r2,fp,-12
  80923c:	e13fef17 	ldw	r4,-68(fp)
  809240:	100b883a 	mov	r5,r2
  809244:	01800044 	movi	r6,1
  809248:	000f883a 	mov	r7,zero
  80924c:	080fd940 	call	80fd94 <alt_up_audio_write_fifo>
							   alt_up_audio_write_fifo (audio_dev, &(converted_right), 1, ALT_UP_AUDIO_RIGHT);
  809250:	e0bffe04 	addi	r2,fp,-8
  809254:	e13fef17 	ldw	r4,-68(fp)
  809258:	100b883a 	mov	r5,r2
  80925c:	01800044 	movi	r6,1
  809260:	01c00044 	movi	r7,1
  809264:	080fd940 	call	80fd94 <alt_up_audio_write_fifo>
  809268:	00000306 	br	809278 <main+0xfb8>
						}else{
							j -= 4;
  80926c:	e0bfee17 	ldw	r2,-72(fp)
  809270:	10bfff04 	addi	r2,r2,-4
  809274:	e0bfee15 	stw	r2,-72(fp)
						put_rc(res);
						break;
					}

					int j;
					for (j = 0; j < cnt; j+=4) {
  809278:	e0bfee17 	ldw	r2,-72(fp)
  80927c:	10800104 	addi	r2,r2,4
  809280:	e0bfee15 	stw	r2,-72(fp)
  809284:	e0ffee17 	ldw	r3,-72(fp)
  809288:	e0bff917 	ldw	r2,-28(fp)
  80928c:	18bfc336 	bltu	r3,r2,80919c <__alt_data_end+0xff80919c>
            case 'p':          /* fp <len> - read and play file from current fp */
                if (!xatoi(&ptr, &p1))
                    break;
                ofs = File1.fptr;
                const int SIZE = 512;
                while (p1)
  809290:	e0bff417 	ldw	r2,-48(fp)
  809294:	103fa11e 	bne	r2,zero,80911c <__alt_data_end+0xff80911c>
							j -= 4;
						}

					}
				}
		xprintf("done\n");
  809298:	01002074 	movhi	r4,129
  80929c:	2105b204 	addi	r4,r4,5832
  8092a0:	0809a940 	call	809a94 <xprintf>
		break;
  8092a4:	0000b906 	br	80958c <main+0x12cc>
            case 'r':          /* fr <len> - read file */
                if (!xatoi(&ptr, &p1))
  8092a8:	e0fff304 	addi	r3,fp,-52
  8092ac:	e0bff404 	addi	r2,fp,-48
  8092b0:	1809883a 	mov	r4,r3
  8092b4:	100b883a 	mov	r5,r2
  8092b8:	08095a00 	call	8095a0 <xatoi>
  8092bc:	1000011e 	bne	r2,zero,8092c4 <main+0x1004>
                    break;
  8092c0:	0000b206 	br	80958c <main+0x12cc>
                p2 = 0;
  8092c4:	e03ff515 	stw	zero,-44(fp)
                Timer = 0;
  8092c8:	d027490d 	sth	zero,-25308(gp)
                while (p1)
  8092cc:	00002806 	br	809370 <main+0x10b0>
                {
                    if ((uint32_t) p1 >= blen)
  8092d0:	e0bff417 	ldw	r2,-48(fp)
  8092d4:	1007883a 	mov	r3,r2
  8092d8:	e0bfeb17 	ldw	r2,-84(fp)
  8092dc:	18800836 	bltu	r3,r2,809300 <main+0x1040>
                    {
                        cnt = blen;
  8092e0:	e0bfeb17 	ldw	r2,-84(fp)
  8092e4:	e0bff915 	stw	r2,-28(fp)
                        p1 -= blen;
  8092e8:	e0bff417 	ldw	r2,-48(fp)
  8092ec:	1007883a 	mov	r3,r2
  8092f0:	e0bfeb17 	ldw	r2,-84(fp)
  8092f4:	1885c83a 	sub	r2,r3,r2
  8092f8:	e0bff415 	stw	r2,-48(fp)
  8092fc:	00000306 	br	80930c <main+0x104c>
                    }
                    else
                    {
                        cnt = p1;
  809300:	e0bff417 	ldw	r2,-48(fp)
  809304:	e0bff915 	stw	r2,-28(fp)
                        p1 = 0;
  809308:	e03ff415 	stw	zero,-48(fp)
                    }
                    res = f_read(&File1, Buff, cnt, &s2);
  80930c:	e0fff917 	ldw	r3,-28(fp)
  809310:	e0bff804 	addi	r2,fp,-32
  809314:	01002074 	movhi	r4,129
  809318:	2115dc04 	addi	r4,r4,22384
  80931c:	01402074 	movhi	r5,129
  809320:	29566b04 	addi	r5,r5,22956
  809324:	180d883a 	mov	r6,r3
  809328:	100f883a 	mov	r7,r2
  80932c:	08043a40 	call	8043a4 <f_read>
  809330:	e0bff005 	stb	r2,-64(fp)
                    if (res != FR_OK)
  809334:	e0bff003 	ldbu	r2,-64(fp)
  809338:	10000426 	beq	r2,zero,80934c <main+0x108c>
                    {
                        put_rc(res); // output a read error if a read error occurs
  80933c:	e0bff003 	ldbu	r2,-64(fp)
  809340:	1009883a 	mov	r4,r2
  809344:	08081ec0 	call	8081ec <put_rc>
                        break;
  809348:	00000b06 	br	809378 <main+0x10b8>
                    }
                    p2 += s2; // increment p2 by the s2 referenced value
  80934c:	e0bff517 	ldw	r2,-44(fp)
  809350:	1007883a 	mov	r3,r2
  809354:	e0bff817 	ldw	r2,-32(fp)
  809358:	1885883a 	add	r2,r3,r2
  80935c:	e0bff515 	stw	r2,-44(fp)
                    if (cnt != s2) //error if cnt does not equal s2 referenced value ???
  809360:	e0fff917 	ldw	r3,-28(fp)
  809364:	e0bff817 	ldw	r2,-32(fp)
  809368:	18800126 	beq	r3,r2,809370 <main+0x10b0>
                        break;
  80936c:	00000206 	br	809378 <main+0x10b8>
            case 'r':          /* fr <len> - read file */
                if (!xatoi(&ptr, &p1))
                    break;
                p2 = 0;
                Timer = 0;
                while (p1)
  809370:	e0bff417 	ldw	r2,-48(fp)
  809374:	103fd61e 	bne	r2,zero,8092d0 <__alt_data_end+0xff8092d0>
                    }
                    p2 += s2; // increment p2 by the s2 referenced value
                    if (cnt != s2) //error if cnt does not equal s2 referenced value ???
                        break;
                }
                xprintf("%lu bytes read with %lu kB/sec.\n", p2, Timer ? (p2 / Timer) : 0);
  809378:	e43ff517 	ldw	r16,-44(fp)
  80937c:	d0a7490b 	ldhu	r2,-25308(gp)
  809380:	10bfffcc 	andi	r2,r2,65535
  809384:	10000726 	beq	r2,zero,8093a4 <main+0x10e4>
  809388:	e0fff517 	ldw	r3,-44(fp)
  80938c:	d0a7490b 	ldhu	r2,-25308(gp)
  809390:	10bfffcc 	andi	r2,r2,65535
  809394:	1809883a 	mov	r4,r3
  809398:	100b883a 	mov	r5,r2
  80939c:	080a0340 	call	80a034 <__divsi3>
  8093a0:	00000106 	br	8093a8 <main+0x10e8>
  8093a4:	0005883a 	mov	r2,zero
  8093a8:	01002074 	movhi	r4,129
  8093ac:	2105b404 	addi	r4,r4,5840
  8093b0:	800b883a 	mov	r5,r16
  8093b4:	100d883a 	mov	r6,r2
  8093b8:	0809a940 	call	809a94 <xprintf>
                break;
  8093bc:	00007306 	br	80958c <main+0x12cc>

            case 's':          /* fs [<path>] - Show volume status */
                res = f_getfree(ptr, (uint32_t *) & p2, &fs);
  8093c0:	e13ff317 	ldw	r4,-52(fp)
  8093c4:	e0fff504 	addi	r3,fp,-44
  8093c8:	e0bffc04 	addi	r2,fp,-16
  8093cc:	180b883a 	mov	r5,r3
  8093d0:	100d883a 	mov	r6,r2
  8093d4:	08058b40 	call	8058b4 <f_getfree>
  8093d8:	e0bff005 	stb	r2,-64(fp)
                if (res)
  8093dc:	e0bff003 	ldbu	r2,-64(fp)
  8093e0:	10000426 	beq	r2,zero,8093f4 <main+0x1134>
                {
                    put_rc(res);
  8093e4:	e0bff003 	ldbu	r2,-64(fp)
  8093e8:	1009883a 	mov	r4,r2
  8093ec:	08081ec0 	call	8081ec <put_rc>
                    break;
  8093f0:	00006606 	br	80958c <main+0x12cc>
                }
                xprintf("FAT type = FAT%u\nBytes/Cluster = %lu\nNumber of FATs = %u\n"
                        "Root DIR entries = %u\nSectors/FAT = %lu\nNumber of clusters = %lu\n"
                        "FAT start (lba) = %lu\nDIR start (lba,clustor) = %lu\nData start (lba) = %lu\n\n...",
                        ft[fs->fs_type & 3], (uint32_t) fs->csize * 512, fs->n_fats,
  8093f4:	e0bffc17 	ldw	r2,-16(fp)
  8093f8:	10800003 	ldbu	r2,0(r2)
  8093fc:	10803fcc 	andi	r2,r2,255
  809400:	10c000cc 	andi	r3,r2,3
  809404:	d0a00044 	addi	r2,gp,-32767
  809408:	1885883a 	add	r2,r3,r2
  80940c:	10800003 	ldbu	r2,0(r2)
                if (res)
                {
                    put_rc(res);
                    break;
                }
                xprintf("FAT type = FAT%u\nBytes/Cluster = %lu\nNumber of FATs = %u\n"
  809410:	12803fcc 	andi	r10,r2,255
                        "Root DIR entries = %u\nSectors/FAT = %lu\nNumber of clusters = %lu\n"
                        "FAT start (lba) = %lu\nDIR start (lba,clustor) = %lu\nData start (lba) = %lu\n\n...",
                        ft[fs->fs_type & 3], (uint32_t) fs->csize * 512, fs->n_fats,
  809414:	e0bffc17 	ldw	r2,-16(fp)
  809418:	10800083 	ldbu	r2,2(r2)
  80941c:	10803fcc 	andi	r2,r2,255
                if (res)
                {
                    put_rc(res);
                    break;
                }
                xprintf("FAT type = FAT%u\nBytes/Cluster = %lu\nNumber of FATs = %u\n"
  809420:	1012927a 	slli	r9,r2,9
                        "Root DIR entries = %u\nSectors/FAT = %lu\nNumber of clusters = %lu\n"
                        "FAT start (lba) = %lu\nDIR start (lba,clustor) = %lu\nData start (lba) = %lu\n\n...",
                        ft[fs->fs_type & 3], (uint32_t) fs->csize * 512, fs->n_fats,
  809424:	e0bffc17 	ldw	r2,-16(fp)
  809428:	108000c3 	ldbu	r2,3(r2)
                if (res)
                {
                    put_rc(res);
                    break;
                }
                xprintf("FAT type = FAT%u\nBytes/Cluster = %lu\nNumber of FATs = %u\n"
  80942c:	12003fcc 	andi	r8,r2,255
                        "Root DIR entries = %u\nSectors/FAT = %lu\nNumber of clusters = %lu\n"
                        "FAT start (lba) = %lu\nDIR start (lba,clustor) = %lu\nData start (lba) = %lu\n\n...",
                        ft[fs->fs_type & 3], (uint32_t) fs->csize * 512, fs->n_fats,
                        fs->n_rootdir, fs->fsize, (uint32_t) fs->n_fatent - 2, fs->fatbase, fs->dirbase, fs->database);
  809430:	e0bffc17 	ldw	r2,-16(fp)
  809434:	1080020b 	ldhu	r2,8(r2)
                if (res)
                {
                    put_rc(res);
                    break;
                }
                xprintf("FAT type = FAT%u\nBytes/Cluster = %lu\nNumber of FATs = %u\n"
  809438:	11ffffcc 	andi	r7,r2,65535
                        "Root DIR entries = %u\nSectors/FAT = %lu\nNumber of clusters = %lu\n"
                        "FAT start (lba) = %lu\nDIR start (lba,clustor) = %lu\nData start (lba) = %lu\n\n...",
                        ft[fs->fs_type & 3], (uint32_t) fs->csize * 512, fs->n_fats,
                        fs->n_rootdir, fs->fsize, (uint32_t) fs->n_fatent - 2, fs->fatbase, fs->dirbase, fs->database);
  80943c:	e0bffc17 	ldw	r2,-16(fp)
                if (res)
                {
                    put_rc(res);
                    break;
                }
                xprintf("FAT type = FAT%u\nBytes/Cluster = %lu\nNumber of FATs = %u\n"
  809440:	11800717 	ldw	r6,28(r2)
                        "Root DIR entries = %u\nSectors/FAT = %lu\nNumber of clusters = %lu\n"
                        "FAT start (lba) = %lu\nDIR start (lba,clustor) = %lu\nData start (lba) = %lu\n\n...",
                        ft[fs->fs_type & 3], (uint32_t) fs->csize * 512, fs->n_fats,
                        fs->n_rootdir, fs->fsize, (uint32_t) fs->n_fatent - 2, fs->fatbase, fs->dirbase, fs->database);
  809444:	e0bffc17 	ldw	r2,-16(fp)
  809448:	10800617 	ldw	r2,24(r2)
                if (res)
                {
                    put_rc(res);
                    break;
                }
                xprintf("FAT type = FAT%u\nBytes/Cluster = %lu\nNumber of FATs = %u\n"
  80944c:	117fff84 	addi	r5,r2,-2
                        "Root DIR entries = %u\nSectors/FAT = %lu\nNumber of clusters = %lu\n"
                        "FAT start (lba) = %lu\nDIR start (lba,clustor) = %lu\nData start (lba) = %lu\n\n...",
                        ft[fs->fs_type & 3], (uint32_t) fs->csize * 512, fs->n_fats,
                        fs->n_rootdir, fs->fsize, (uint32_t) fs->n_fatent - 2, fs->fatbase, fs->dirbase, fs->database);
  809450:	e0bffc17 	ldw	r2,-16(fp)
                if (res)
                {
                    put_rc(res);
                    break;
                }
                xprintf("FAT type = FAT%u\nBytes/Cluster = %lu\nNumber of FATs = %u\n"
  809454:	11000817 	ldw	r4,32(r2)
                        "Root DIR entries = %u\nSectors/FAT = %lu\nNumber of clusters = %lu\n"
                        "FAT start (lba) = %lu\nDIR start (lba,clustor) = %lu\nData start (lba) = %lu\n\n...",
                        ft[fs->fs_type & 3], (uint32_t) fs->csize * 512, fs->n_fats,
                        fs->n_rootdir, fs->fsize, (uint32_t) fs->n_fatent - 2, fs->fatbase, fs->dirbase, fs->database);
  809458:	e0bffc17 	ldw	r2,-16(fp)
                if (res)
                {
                    put_rc(res);
                    break;
                }
                xprintf("FAT type = FAT%u\nBytes/Cluster = %lu\nNumber of FATs = %u\n"
  80945c:	10c00917 	ldw	r3,36(r2)
                        "Root DIR entries = %u\nSectors/FAT = %lu\nNumber of clusters = %lu\n"
                        "FAT start (lba) = %lu\nDIR start (lba,clustor) = %lu\nData start (lba) = %lu\n\n...",
                        ft[fs->fs_type & 3], (uint32_t) fs->csize * 512, fs->n_fats,
                        fs->n_rootdir, fs->fsize, (uint32_t) fs->n_fatent - 2, fs->fatbase, fs->dirbase, fs->database);
  809460:	e0bffc17 	ldw	r2,-16(fp)
                if (res)
                {
                    put_rc(res);
                    break;
                }
                xprintf("FAT type = FAT%u\nBytes/Cluster = %lu\nNumber of FATs = %u\n"
  809464:	10800a17 	ldw	r2,40(r2)
  809468:	d9c00015 	stw	r7,0(sp)
  80946c:	d9800115 	stw	r6,4(sp)
  809470:	d9400215 	stw	r5,8(sp)
  809474:	d9000315 	stw	r4,12(sp)
  809478:	d8c00415 	stw	r3,16(sp)
  80947c:	d8800515 	stw	r2,20(sp)
  809480:	01002074 	movhi	r4,129
  809484:	2105bd04 	addi	r4,r4,5876
  809488:	500b883a 	mov	r5,r10
  80948c:	480d883a 	mov	r6,r9
  809490:	400f883a 	mov	r7,r8
  809494:	0809a940 	call	809a94 <xprintf>
                        "Root DIR entries = %u\nSectors/FAT = %lu\nNumber of clusters = %lu\n"
                        "FAT start (lba) = %lu\nDIR start (lba,clustor) = %lu\nData start (lba) = %lu\n\n...",
                        ft[fs->fs_type & 3], (uint32_t) fs->csize * 512, fs->n_fats,
                        fs->n_rootdir, fs->fsize, (uint32_t) fs->n_fatent - 2, fs->fatbase, fs->dirbase, fs->database);
                acc_size = acc_files = acc_dirs = 0;
  809498:	d0274a0d 	sth	zero,-25304(gp)
  80949c:	d0a74a0b 	ldhu	r2,-25304(gp)
  8094a0:	d0a74a8d 	sth	r2,-25302(gp)
  8094a4:	d0a74a8b 	ldhu	r2,-25302(gp)
  8094a8:	10bfffcc 	andi	r2,r2,65535
  8094ac:	d0a74b15 	stw	r2,-25300(gp)
                res = scan_files(ptr);
  8094b0:	e0bff317 	ldw	r2,-52(fp)
  8094b4:	1009883a 	mov	r4,r2
  8094b8:	08080ac0 	call	8080ac <scan_files>
  8094bc:	e0bff005 	stb	r2,-64(fp)
                if (res)
  8094c0:	e0bff003 	ldbu	r2,-64(fp)
  8094c4:	10000426 	beq	r2,zero,8094d8 <main+0x1218>
                {
                    put_rc(res);
  8094c8:	e0bff003 	ldbu	r2,-64(fp)
  8094cc:	1009883a 	mov	r4,r2
  8094d0:	08081ec0 	call	8081ec <put_rc>
                    break;
  8094d4:	00002d06 	br	80958c <main+0x12cc>
                }
                xprintf("\r%u files, %lu bytes.\n%u folders.\n"
  8094d8:	d0a74a8b 	ldhu	r2,-25302(gp)
  8094dc:	117fffcc 	andi	r5,r2,65535
  8094e0:	d1a74b17 	ldw	r6,-25300(gp)
  8094e4:	d0a74a0b 	ldhu	r2,-25304(gp)
  8094e8:	11ffffcc 	andi	r7,r2,65535
                        "%lu KB total disk space.\n%lu KB available.\n",
                        acc_files, acc_size, acc_dirs, (fs->n_fatent - 2) * (fs->csize / 2), p2 * (fs->csize / 2));
  8094ec:	e0bffc17 	ldw	r2,-16(fp)
  8094f0:	10800617 	ldw	r2,24(r2)
  8094f4:	10ffff84 	addi	r3,r2,-2
  8094f8:	e0bffc17 	ldw	r2,-16(fp)
  8094fc:	10800083 	ldbu	r2,2(r2)
                if (res)
                {
                    put_rc(res);
                    break;
                }
                xprintf("\r%u files, %lu bytes.\n%u folders.\n"
  809500:	10803fcc 	andi	r2,r2,255
  809504:	1004d07a 	srli	r2,r2,1
  809508:	10803fcc 	andi	r2,r2,255
  80950c:	1887383a 	mul	r3,r3,r2
                        "%lu KB total disk space.\n%lu KB available.\n",
                        acc_files, acc_size, acc_dirs, (fs->n_fatent - 2) * (fs->csize / 2), p2 * (fs->csize / 2));
  809510:	e0bffc17 	ldw	r2,-16(fp)
  809514:	10800083 	ldbu	r2,2(r2)
                if (res)
                {
                    put_rc(res);
                    break;
                }
                xprintf("\r%u files, %lu bytes.\n%u folders.\n"
  809518:	10803fcc 	andi	r2,r2,255
  80951c:	1004d07a 	srli	r2,r2,1
  809520:	11003fcc 	andi	r4,r2,255
  809524:	e0bff517 	ldw	r2,-44(fp)
  809528:	2085383a 	mul	r2,r4,r2
  80952c:	d8c00015 	stw	r3,0(sp)
  809530:	d8800115 	stw	r2,4(sp)
  809534:	01002074 	movhi	r4,129
  809538:	2105f004 	addi	r4,r4,6080
  80953c:	0809a940 	call	809a94 <xprintf>
                        "%lu KB total disk space.\n%lu KB available.\n",
                        acc_files, acc_size, acc_dirs, (fs->n_fatent - 2) * (fs->csize / 2), p2 * (fs->csize / 2));
                break;
  809540:	00001206 	br	80958c <main+0x12cc>

            case 'z':          /* fz [<rw size>] - Change R/W length for fr/fw/fx command */
                if (xatoi(&ptr, &p1) && p1 >= 1 && p1 <= sizeof(Buff))
  809544:	e0fff304 	addi	r3,fp,-52
  809548:	e0bff404 	addi	r2,fp,-48
  80954c:	1809883a 	mov	r4,r3
  809550:	100b883a 	mov	r5,r2
  809554:	08095a00 	call	8095a0 <xatoi>
  809558:	10000726 	beq	r2,zero,809578 <main+0x12b8>
  80955c:	e0bff417 	ldw	r2,-48(fp)
  809560:	0080050e 	bge	zero,r2,809578 <main+0x12b8>
  809564:	e0bff417 	ldw	r2,-48(fp)
  809568:	10808068 	cmpgeui	r2,r2,513
  80956c:	1000021e 	bne	r2,zero,809578 <main+0x12b8>
                    blen = p1;
  809570:	e0bff417 	ldw	r2,-48(fp)
  809574:	e0bfeb15 	stw	r2,-84(fp)
                xprintf("blen=%u\n", blen);
  809578:	01002074 	movhi	r4,129
  80957c:	21060404 	addi	r4,r4,6160
  809580:	e17feb17 	ldw	r5,-84(fp)
  809584:	0809a940 	call	809a94 <xprintf>
                break;
  809588:	0001883a 	nop
            }
            break; // end of FatFS API controls //
  80958c:	00000206 	br	809598 <main+0x12d8>

        case 'h':
            display_help();
  809590:	08082900 	call	808290 <display_help>
            break;
  809594:	00000106 	br	80959c <main+0x12dc>
                if (xatoi(&ptr, &p1) && p1 >= 1 && p1 <= sizeof(Buff))
                    blen = p1;
                xprintf("blen=%u\n", blen);
                break;
            }
            break; // end of FatFS API controls //
  809598:	0001883a 	nop
        case 'h':
            display_help();
            break;

        }
    }
  80959c:	003b6f06 	br	80835c <__alt_data_end+0xff80835c>

008095a0 <xatoi>:
#include <stdarg.h>
#include "monitor.h"
#include "uart.h"

int xatoi (char **str, long *res)
{
  8095a0:	defffb04 	addi	sp,sp,-20
  8095a4:	df000415 	stw	fp,16(sp)
  8095a8:	df000404 	addi	fp,sp,16
  8095ac:	e13ffe15 	stw	r4,-8(fp)
  8095b0:	e17fff15 	stw	r5,-4(fp)
  unsigned long val;
  unsigned char c, radix, s = 0;
  8095b4:	e03ffd85 	stb	zero,-10(fp)


  while ((c = **str) == ' ') (*str)++;
  8095b8:	00000506 	br	8095d0 <xatoi+0x30>
  8095bc:	e0bffe17 	ldw	r2,-8(fp)
  8095c0:	10800017 	ldw	r2,0(r2)
  8095c4:	10c00044 	addi	r3,r2,1
  8095c8:	e0bffe17 	ldw	r2,-8(fp)
  8095cc:	10c00015 	stw	r3,0(r2)
  8095d0:	e0bffe17 	ldw	r2,-8(fp)
  8095d4:	10800017 	ldw	r2,0(r2)
  8095d8:	10800003 	ldbu	r2,0(r2)
  8095dc:	e0bffd05 	stb	r2,-12(fp)
  8095e0:	e0bffd03 	ldbu	r2,-12(fp)
  8095e4:	10800820 	cmpeqi	r2,r2,32
  8095e8:	103ff41e 	bne	r2,zero,8095bc <__alt_data_end+0xff8095bc>
  if (c == '-') {
  8095ec:	e0bffd03 	ldbu	r2,-12(fp)
  8095f0:	10800b58 	cmpnei	r2,r2,45
  8095f4:	10000b1e 	bne	r2,zero,809624 <xatoi+0x84>
    s = 1;
  8095f8:	00800044 	movi	r2,1
  8095fc:	e0bffd85 	stb	r2,-10(fp)
    c = *(++(*str));
  809600:	e0bffe17 	ldw	r2,-8(fp)
  809604:	10800017 	ldw	r2,0(r2)
  809608:	10c00044 	addi	r3,r2,1
  80960c:	e0bffe17 	ldw	r2,-8(fp)
  809610:	10c00015 	stw	r3,0(r2)
  809614:	e0bffe17 	ldw	r2,-8(fp)
  809618:	10800017 	ldw	r2,0(r2)
  80961c:	10800003 	ldbu	r2,0(r2)
  809620:	e0bffd05 	stb	r2,-12(fp)
  }
  if (c == '0') {
  809624:	e0bffd03 	ldbu	r2,-12(fp)
  809628:	10800c18 	cmpnei	r2,r2,48
  80962c:	1000391e 	bne	r2,zero,809714 <xatoi+0x174>
    c = *(++(*str));
  809630:	e0bffe17 	ldw	r2,-8(fp)
  809634:	10800017 	ldw	r2,0(r2)
  809638:	10c00044 	addi	r3,r2,1
  80963c:	e0bffe17 	ldw	r2,-8(fp)
  809640:	10c00015 	stw	r3,0(r2)
  809644:	e0bffe17 	ldw	r2,-8(fp)
  809648:	10800017 	ldw	r2,0(r2)
  80964c:	10800003 	ldbu	r2,0(r2)
  809650:	e0bffd05 	stb	r2,-12(fp)
    if (c <= ' ') {
  809654:	e0bffd03 	ldbu	r2,-12(fp)
  809658:	10800868 	cmpgeui	r2,r2,33
  80965c:	1000041e 	bne	r2,zero,809670 <xatoi+0xd0>
      *res = 0; return 1;
  809660:	e0bfff17 	ldw	r2,-4(fp)
  809664:	10000015 	stw	zero,0(r2)
  809668:	00800044 	movi	r2,1
  80966c:	00006906 	br	809814 <xatoi+0x274>
    }
    if (c == 'x') {
  809670:	e0bffd03 	ldbu	r2,-12(fp)
  809674:	10801e18 	cmpnei	r2,r2,120
  809678:	10000c1e 	bne	r2,zero,8096ac <xatoi+0x10c>
      radix = 16;
  80967c:	00800404 	movi	r2,16
  809680:	e0bffd45 	stb	r2,-11(fp)
      c = *(++(*str));
  809684:	e0bffe17 	ldw	r2,-8(fp)
  809688:	10800017 	ldw	r2,0(r2)
  80968c:	10c00044 	addi	r3,r2,1
  809690:	e0bffe17 	ldw	r2,-8(fp)
  809694:	10c00015 	stw	r3,0(r2)
  809698:	e0bffe17 	ldw	r2,-8(fp)
  80969c:	10800017 	ldw	r2,0(r2)
  8096a0:	10800003 	ldbu	r2,0(r2)
  8096a4:	e0bffd05 	stb	r2,-12(fp)
  8096a8:	00002406 	br	80973c <xatoi+0x19c>
    } else {
      if (c == 'b') {
  8096ac:	e0bffd03 	ldbu	r2,-12(fp)
  8096b0:	10801898 	cmpnei	r2,r2,98
  8096b4:	10000c1e 	bne	r2,zero,8096e8 <xatoi+0x148>
        radix = 2;
  8096b8:	00800084 	movi	r2,2
  8096bc:	e0bffd45 	stb	r2,-11(fp)
        c = *(++(*str));
  8096c0:	e0bffe17 	ldw	r2,-8(fp)
  8096c4:	10800017 	ldw	r2,0(r2)
  8096c8:	10c00044 	addi	r3,r2,1
  8096cc:	e0bffe17 	ldw	r2,-8(fp)
  8096d0:	10c00015 	stw	r3,0(r2)
  8096d4:	e0bffe17 	ldw	r2,-8(fp)
  8096d8:	10800017 	ldw	r2,0(r2)
  8096dc:	10800003 	ldbu	r2,0(r2)
  8096e0:	e0bffd05 	stb	r2,-12(fp)
  8096e4:	00001506 	br	80973c <xatoi+0x19c>
      } else {
        if ((c >= '0')&&(c <= '9'))
  8096e8:	e0bffd03 	ldbu	r2,-12(fp)
  8096ec:	10800c30 	cmpltui	r2,r2,48
  8096f0:	1000061e 	bne	r2,zero,80970c <xatoi+0x16c>
  8096f4:	e0bffd03 	ldbu	r2,-12(fp)
  8096f8:	10800ea8 	cmpgeui	r2,r2,58
  8096fc:	1000031e 	bne	r2,zero,80970c <xatoi+0x16c>
          radix = 8;
  809700:	00800204 	movi	r2,8
  809704:	e0bffd45 	stb	r2,-11(fp)
  809708:	00000c06 	br	80973c <xatoi+0x19c>
        else
          return 0;
  80970c:	0005883a 	mov	r2,zero
  809710:	00004006 	br	809814 <xatoi+0x274>
      }
    }
  } else {
    if ((c < '1')||(c > '9'))
  809714:	e0bffd03 	ldbu	r2,-12(fp)
  809718:	10800c70 	cmpltui	r2,r2,49
  80971c:	1000031e 	bne	r2,zero,80972c <xatoi+0x18c>
  809720:	e0bffd03 	ldbu	r2,-12(fp)
  809724:	10800eb0 	cmpltui	r2,r2,58
  809728:	1000021e 	bne	r2,zero,809734 <xatoi+0x194>
      return 0;
  80972c:	0005883a 	mov	r2,zero
  809730:	00003806 	br	809814 <xatoi+0x274>
    radix = 10;
  809734:	00800284 	movi	r2,10
  809738:	e0bffd45 	stb	r2,-11(fp)
  }
  val = 0;
  80973c:	e03ffc15 	stw	zero,-16(fp)
  while (c > ' ') {
  809740:	00002806 	br	8097e4 <xatoi+0x244>
    if (c >= 'a') c -= 0x20;
  809744:	e0bffd03 	ldbu	r2,-12(fp)
  809748:	10801870 	cmpltui	r2,r2,97
  80974c:	1000031e 	bne	r2,zero,80975c <xatoi+0x1bc>
  809750:	e0bffd03 	ldbu	r2,-12(fp)
  809754:	10bff804 	addi	r2,r2,-32
  809758:	e0bffd05 	stb	r2,-12(fp)
    c -= '0';
  80975c:	e0bffd03 	ldbu	r2,-12(fp)
  809760:	10bff404 	addi	r2,r2,-48
  809764:	e0bffd05 	stb	r2,-12(fp)
    if (c >= 17) {
  809768:	e0bffd03 	ldbu	r2,-12(fp)
  80976c:	10800470 	cmpltui	r2,r2,17
  809770:	1000081e 	bne	r2,zero,809794 <xatoi+0x1f4>
      c -= 7;
  809774:	e0bffd03 	ldbu	r2,-12(fp)
  809778:	10bffe44 	addi	r2,r2,-7
  80977c:	e0bffd05 	stb	r2,-12(fp)
      if (c <= 9) return 0;
  809780:	e0bffd03 	ldbu	r2,-12(fp)
  809784:	108002a8 	cmpgeui	r2,r2,10
  809788:	1000021e 	bne	r2,zero,809794 <xatoi+0x1f4>
  80978c:	0005883a 	mov	r2,zero
  809790:	00002006 	br	809814 <xatoi+0x274>
    }
    if (c >= radix) return 0;
  809794:	e0fffd03 	ldbu	r3,-12(fp)
  809798:	e0bffd43 	ldbu	r2,-11(fp)
  80979c:	18800236 	bltu	r3,r2,8097a8 <xatoi+0x208>
  8097a0:	0005883a 	mov	r2,zero
  8097a4:	00001b06 	br	809814 <xatoi+0x274>
    val = val * radix + c;
  8097a8:	e0fffd43 	ldbu	r3,-11(fp)
  8097ac:	e0bffc17 	ldw	r2,-16(fp)
  8097b0:	1887383a 	mul	r3,r3,r2
  8097b4:	e0bffd03 	ldbu	r2,-12(fp)
  8097b8:	1885883a 	add	r2,r3,r2
  8097bc:	e0bffc15 	stw	r2,-16(fp)
    c = *(++(*str));
  8097c0:	e0bffe17 	ldw	r2,-8(fp)
  8097c4:	10800017 	ldw	r2,0(r2)
  8097c8:	10c00044 	addi	r3,r2,1
  8097cc:	e0bffe17 	ldw	r2,-8(fp)
  8097d0:	10c00015 	stw	r3,0(r2)
  8097d4:	e0bffe17 	ldw	r2,-8(fp)
  8097d8:	10800017 	ldw	r2,0(r2)
  8097dc:	10800003 	ldbu	r2,0(r2)
  8097e0:	e0bffd05 	stb	r2,-12(fp)
    if ((c < '1')||(c > '9'))
      return 0;
    radix = 10;
  }
  val = 0;
  while (c > ' ') {
  8097e4:	e0bffd03 	ldbu	r2,-12(fp)
  8097e8:	10800868 	cmpgeui	r2,r2,33
  8097ec:	103fd51e 	bne	r2,zero,809744 <__alt_data_end+0xff809744>
    }
    if (c >= radix) return 0;
    val = val * radix + c;
    c = *(++(*str));
  }
  if (s) val = -val;
  8097f0:	e0bffd83 	ldbu	r2,-10(fp)
  8097f4:	10000326 	beq	r2,zero,809804 <xatoi+0x264>
  8097f8:	e0bffc17 	ldw	r2,-16(fp)
  8097fc:	0085c83a 	sub	r2,zero,r2
  809800:	e0bffc15 	stw	r2,-16(fp)
  *res = val;
  809804:	e0fffc17 	ldw	r3,-16(fp)
  809808:	e0bfff17 	ldw	r2,-4(fp)
  80980c:	10c00015 	stw	r3,0(r2)
  return 1;
  809810:	00800044 	movi	r2,1
}
  809814:	e037883a 	mov	sp,fp
  809818:	df000017 	ldw	fp,0(sp)
  80981c:	dec00104 	addi	sp,sp,4
  809820:	f800283a 	ret

00809824 <xputc>:

void xputc (char c)
{
  809824:	defffd04 	addi	sp,sp,-12
  809828:	dfc00215 	stw	ra,8(sp)
  80982c:	df000115 	stw	fp,4(sp)
  809830:	df000104 	addi	fp,sp,4
  809834:	2005883a 	mov	r2,r4
  809838:	e0bfff05 	stb	r2,-4(fp)
  if (c == '\n') uart0_put('\r');
  80983c:	e0bfff07 	ldb	r2,-4(fp)
  809840:	10800298 	cmpnei	r2,r2,10
  809844:	1000021e 	bne	r2,zero,809850 <xputc+0x2c>
  809848:	01000344 	movi	r4,13
  80984c:	0809f380 	call	809f38 <uart0_put>
  uart0_put(c);
  809850:	e0bfff03 	ldbu	r2,-4(fp)
  809854:	10803fcc 	andi	r2,r2,255
  809858:	1009883a 	mov	r4,r2
  80985c:	0809f380 	call	809f38 <uart0_put>
}
  809860:	e037883a 	mov	sp,fp
  809864:	dfc00117 	ldw	ra,4(sp)
  809868:	df000017 	ldw	fp,0(sp)
  80986c:	dec00204 	addi	sp,sp,8
  809870:	f800283a 	ret

00809874 <xputs>:

void xputs (const char* str)
{
  809874:	defffd04 	addi	sp,sp,-12
  809878:	dfc00215 	stw	ra,8(sp)
  80987c:	df000115 	stw	fp,4(sp)
  809880:	df000104 	addi	fp,sp,4
  809884:	e13fff15 	stw	r4,-4(fp)
  while (*str)
  809888:	00000906 	br	8098b0 <xputs+0x3c>
    xputc(*str++);
  80988c:	e0bfff17 	ldw	r2,-4(fp)
  809890:	10c00044 	addi	r3,r2,1
  809894:	e0ffff15 	stw	r3,-4(fp)
  809898:	10800003 	ldbu	r2,0(r2)
  80989c:	10803fcc 	andi	r2,r2,255
  8098a0:	1080201c 	xori	r2,r2,128
  8098a4:	10bfe004 	addi	r2,r2,-128
  8098a8:	1009883a 	mov	r4,r2
  8098ac:	08098240 	call	809824 <xputc>
  uart0_put(c);
}

void xputs (const char* str)
{
  while (*str)
  8098b0:	e0bfff17 	ldw	r2,-4(fp)
  8098b4:	10800003 	ldbu	r2,0(r2)
  8098b8:	10803fcc 	andi	r2,r2,255
  8098bc:	1080201c 	xori	r2,r2,128
  8098c0:	10bfe004 	addi	r2,r2,-128
  8098c4:	103ff11e 	bne	r2,zero,80988c <__alt_data_end+0xff80988c>
    xputc(*str++);
}
  8098c8:	e037883a 	mov	sp,fp
  8098cc:	dfc00117 	ldw	ra,4(sp)
  8098d0:	df000017 	ldw	fp,0(sp)
  8098d4:	dec00204 	addi	sp,sp,8
  8098d8:	f800283a 	ret

008098dc <xitoa>:




void xitoa (signed long val, signed char radix, signed char len)
{
  8098dc:	defff304 	addi	sp,sp,-52
  8098e0:	dfc00c15 	stw	ra,48(sp)
  8098e4:	df000b15 	stw	fp,44(sp)
  8098e8:	df000b04 	addi	fp,sp,44
  8098ec:	e13ffd15 	stw	r4,-12(fp)
  8098f0:	2807883a 	mov	r3,r5
  8098f4:	3005883a 	mov	r2,r6
  8098f8:	e0fffe05 	stb	r3,-8(fp)
  8098fc:	e0bfff05 	stb	r2,-4(fp)
  unsigned char c, r, sgn = 0, pad = ' ';
  809900:	e03ff545 	stb	zero,-43(fp)
  809904:	00800804 	movi	r2,32
  809908:	e0bff585 	stb	r2,-42(fp)
  unsigned char s[20], i = 0;
  80990c:	e03ff5c5 	stb	zero,-41(fp)
  unsigned long v;


  if (radix < 0) {
  809910:	e0bffe07 	ldb	r2,-8(fp)
  809914:	10000a0e 	bge	r2,zero,809940 <xitoa+0x64>
    radix = -radix;
  809918:	e0bffe03 	ldbu	r2,-8(fp)
  80991c:	0085c83a 	sub	r2,zero,r2
  809920:	e0bffe05 	stb	r2,-8(fp)
    if (val < 0) {
  809924:	e0bffd17 	ldw	r2,-12(fp)
  809928:	1000050e 	bge	r2,zero,809940 <xitoa+0x64>
      val = -val;
  80992c:	e0bffd17 	ldw	r2,-12(fp)
  809930:	0085c83a 	sub	r2,zero,r2
  809934:	e0bffd15 	stw	r2,-12(fp)
      sgn = '-';
  809938:	00800b44 	movi	r2,45
  80993c:	e0bff545 	stb	r2,-43(fp)
    }
  }
  v = val;
  809940:	e0bffd17 	ldw	r2,-12(fp)
  809944:	e0bff615 	stw	r2,-40(fp)
  r = radix;
  809948:	e0bffe03 	ldbu	r2,-8(fp)
  80994c:	e0bff705 	stb	r2,-36(fp)
  if (len < 0) {
  809950:	e0bfff07 	ldb	r2,-4(fp)
  809954:	1000050e 	bge	r2,zero,80996c <xitoa+0x90>
    len = -len;
  809958:	e0bfff03 	ldbu	r2,-4(fp)
  80995c:	0085c83a 	sub	r2,zero,r2
  809960:	e0bfff05 	stb	r2,-4(fp)
    pad = '0';
  809964:	00800c04 	movi	r2,48
  809968:	e0bff585 	stb	r2,-42(fp)
  }
  if (len > 20) return;
  80996c:	e0bfff07 	ldb	r2,-4(fp)
  809970:	10800550 	cmplti	r2,r2,21
  809974:	10004226 	beq	r2,zero,809a80 <xitoa+0x1a4>
  do {
    c = (unsigned char)(v % r);
  809978:	e0bff703 	ldbu	r2,-36(fp)
  80997c:	e0fff617 	ldw	r3,-40(fp)
  809980:	1809883a 	mov	r4,r3
  809984:	100b883a 	mov	r5,r2
  809988:	080a0ec0 	call	80a0ec <__umodsi3>
  80998c:	e0bff505 	stb	r2,-44(fp)
    if (c >= 10) c += 7;
  809990:	e0bff503 	ldbu	r2,-44(fp)
  809994:	108002b0 	cmpltui	r2,r2,10
  809998:	1000031e 	bne	r2,zero,8099a8 <xitoa+0xcc>
  80999c:	e0bff503 	ldbu	r2,-44(fp)
  8099a0:	108001c4 	addi	r2,r2,7
  8099a4:	e0bff505 	stb	r2,-44(fp)
    c += '0';
  8099a8:	e0bff503 	ldbu	r2,-44(fp)
  8099ac:	10800c04 	addi	r2,r2,48
  8099b0:	e0bff505 	stb	r2,-44(fp)
    s[i++] = c;
  8099b4:	e0bff5c3 	ldbu	r2,-41(fp)
  8099b8:	10c00044 	addi	r3,r2,1
  8099bc:	e0fff5c5 	stb	r3,-41(fp)
  8099c0:	10803fcc 	andi	r2,r2,255
  8099c4:	e0fff744 	addi	r3,fp,-35
  8099c8:	1885883a 	add	r2,r3,r2
  8099cc:	e0fff503 	ldbu	r3,-44(fp)
  8099d0:	10c00005 	stb	r3,0(r2)
    v /= r;
  8099d4:	e0bff703 	ldbu	r2,-36(fp)
  8099d8:	e13ff617 	ldw	r4,-40(fp)
  8099dc:	100b883a 	mov	r5,r2
  8099e0:	080a0e40 	call	80a0e4 <__udivsi3>
  8099e4:	e0bff615 	stw	r2,-40(fp)
  } while (v);
  8099e8:	e0bff617 	ldw	r2,-40(fp)
  8099ec:	103fe21e 	bne	r2,zero,809978 <__alt_data_end+0xff809978>
  if (sgn) s[i++] = sgn;
  8099f0:	e0bff543 	ldbu	r2,-43(fp)
  8099f4:	10000826 	beq	r2,zero,809a18 <xitoa+0x13c>
  8099f8:	e0bff5c3 	ldbu	r2,-41(fp)
  8099fc:	10c00044 	addi	r3,r2,1
  809a00:	e0fff5c5 	stb	r3,-41(fp)
  809a04:	10803fcc 	andi	r2,r2,255
  809a08:	e0fff744 	addi	r3,fp,-35
  809a0c:	1885883a 	add	r2,r3,r2
  809a10:	e0fff543 	ldbu	r3,-43(fp)
  809a14:	10c00005 	stb	r3,0(r2)
  while (i < len)
  809a18:	00000806 	br	809a3c <xitoa+0x160>
    s[i++] = pad;
  809a1c:	e0bff5c3 	ldbu	r2,-41(fp)
  809a20:	10c00044 	addi	r3,r2,1
  809a24:	e0fff5c5 	stb	r3,-41(fp)
  809a28:	10803fcc 	andi	r2,r2,255
  809a2c:	e0fff744 	addi	r3,fp,-35
  809a30:	1885883a 	add	r2,r3,r2
  809a34:	e0fff583 	ldbu	r3,-42(fp)
  809a38:	10c00005 	stb	r3,0(r2)
    c += '0';
    s[i++] = c;
    v /= r;
  } while (v);
  if (sgn) s[i++] = sgn;
  while (i < len)
  809a3c:	e0fff5c3 	ldbu	r3,-41(fp)
  809a40:	e0bfff07 	ldb	r2,-4(fp)
  809a44:	18bff516 	blt	r3,r2,809a1c <__alt_data_end+0xff809a1c>
    s[i++] = pad;
  do
    xputc(s[--i]);
  809a48:	e0bff5c3 	ldbu	r2,-41(fp)
  809a4c:	10bfffc4 	addi	r2,r2,-1
  809a50:	e0bff5c5 	stb	r2,-41(fp)
  809a54:	e0bff5c3 	ldbu	r2,-41(fp)
  809a58:	e0fff744 	addi	r3,fp,-35
  809a5c:	1885883a 	add	r2,r3,r2
  809a60:	10800003 	ldbu	r2,0(r2)
  809a64:	10803fcc 	andi	r2,r2,255
  809a68:	1080201c 	xori	r2,r2,128
  809a6c:	10bfe004 	addi	r2,r2,-128
  809a70:	1009883a 	mov	r4,r2
  809a74:	08098240 	call	809824 <xputc>
  while (i);
  809a78:	e0bff5c3 	ldbu	r2,-41(fp)
  809a7c:	103ff21e 	bne	r2,zero,809a48 <__alt_data_end+0xff809a48>
}
  809a80:	e037883a 	mov	sp,fp
  809a84:	dfc00117 	ldw	ra,4(sp)
  809a88:	df000017 	ldw	fp,0(sp)
  809a8c:	dec00204 	addi	sp,sp,8
  809a90:	f800283a 	ret

00809a94 <xprintf>:




void xprintf (const char* str, ...)
{
  809a94:	defff704 	addi	sp,sp,-36
  809a98:	dfc00515 	stw	ra,20(sp)
  809a9c:	df000415 	stw	fp,16(sp)
  809aa0:	df000404 	addi	fp,sp,16
  809aa4:	e1400215 	stw	r5,8(fp)
  809aa8:	e1800315 	stw	r6,12(fp)
  809aac:	e1c00415 	stw	r7,16(fp)
  809ab0:	e13fff15 	stw	r4,-4(fp)
  va_list arp;
  char d, r, w, s, l;


  va_start(arp, str);
  809ab4:	e0800204 	addi	r2,fp,8
  809ab8:	e0bffe15 	stw	r2,-8(fp)

  while ((d = *str++) != 0) {
  809abc:	00009406 	br	809d10 <xprintf+0x27c>
    if (d != '%') {
  809ac0:	e0bffc07 	ldb	r2,-16(fp)
  809ac4:	10800960 	cmpeqi	r2,r2,37
  809ac8:	1000041e 	bne	r2,zero,809adc <xprintf+0x48>
      xputc(d); continue;
  809acc:	e0bffc07 	ldb	r2,-16(fp)
  809ad0:	1009883a 	mov	r4,r2
  809ad4:	08098240 	call	809824 <xputc>
  809ad8:	00008d06 	br	809d10 <xprintf+0x27c>
    }
    d = *str++; w = r = s = l = 0;
  809adc:	e0bfff17 	ldw	r2,-4(fp)
  809ae0:	10c00044 	addi	r3,r2,1
  809ae4:	e0ffff15 	stw	r3,-4(fp)
  809ae8:	10800003 	ldbu	r2,0(r2)
  809aec:	e0bffc05 	stb	r2,-16(fp)
  809af0:	e03ffd05 	stb	zero,-12(fp)
  809af4:	e0bffd03 	ldbu	r2,-12(fp)
  809af8:	e0bffcc5 	stb	r2,-13(fp)
  809afc:	e0bffcc3 	ldbu	r2,-13(fp)
  809b00:	e0bffc45 	stb	r2,-15(fp)
  809b04:	e0bffc43 	ldbu	r2,-15(fp)
  809b08:	e0bffc85 	stb	r2,-14(fp)
    if (d == '0') {
  809b0c:	e0bffc07 	ldb	r2,-16(fp)
  809b10:	10800c18 	cmpnei	r2,r2,48
  809b14:	1000071e 	bne	r2,zero,809b34 <xprintf+0xa0>
      d = *str++; s = 1;
  809b18:	e0bfff17 	ldw	r2,-4(fp)
  809b1c:	10c00044 	addi	r3,r2,1
  809b20:	e0ffff15 	stw	r3,-4(fp)
  809b24:	10800003 	ldbu	r2,0(r2)
  809b28:	e0bffc05 	stb	r2,-16(fp)
  809b2c:	00800044 	movi	r2,1
  809b30:	e0bffcc5 	stb	r2,-13(fp)
    }
    while ((d >= '0')&&(d <= '9')) {
  809b34:	00000f06 	br	809b74 <xprintf+0xe0>
      w += w * 10 + (d - '0');
  809b38:	e0bffc83 	ldbu	r2,-14(fp)
  809b3c:	108002a4 	muli	r2,r2,10
  809b40:	1007883a 	mov	r3,r2
  809b44:	e0bffc03 	ldbu	r2,-16(fp)
  809b48:	1885883a 	add	r2,r3,r2
  809b4c:	1007883a 	mov	r3,r2
  809b50:	e0bffc83 	ldbu	r2,-14(fp)
  809b54:	1885883a 	add	r2,r3,r2
  809b58:	10bff404 	addi	r2,r2,-48
  809b5c:	e0bffc85 	stb	r2,-14(fp)
      d = *str++;
  809b60:	e0bfff17 	ldw	r2,-4(fp)
  809b64:	10c00044 	addi	r3,r2,1
  809b68:	e0ffff15 	stw	r3,-4(fp)
  809b6c:	10800003 	ldbu	r2,0(r2)
  809b70:	e0bffc05 	stb	r2,-16(fp)
    }
    d = *str++; w = r = s = l = 0;
    if (d == '0') {
      d = *str++; s = 1;
    }
    while ((d >= '0')&&(d <= '9')) {
  809b74:	e0bffc07 	ldb	r2,-16(fp)
  809b78:	10800c10 	cmplti	r2,r2,48
  809b7c:	1000031e 	bne	r2,zero,809b8c <xprintf+0xf8>
  809b80:	e0bffc07 	ldb	r2,-16(fp)
  809b84:	10800e90 	cmplti	r2,r2,58
  809b88:	103feb1e 	bne	r2,zero,809b38 <__alt_data_end+0xff809b38>
      w += w * 10 + (d - '0');
      d = *str++;
    }
    if (s) w = -w;
  809b8c:	e0bffcc7 	ldb	r2,-13(fp)
  809b90:	10000326 	beq	r2,zero,809ba0 <xprintf+0x10c>
  809b94:	e0bffc83 	ldbu	r2,-14(fp)
  809b98:	0085c83a 	sub	r2,zero,r2
  809b9c:	e0bffc85 	stb	r2,-14(fp)
    if (d == 'l') {
  809ba0:	e0bffc07 	ldb	r2,-16(fp)
  809ba4:	10801b18 	cmpnei	r2,r2,108
  809ba8:	1000071e 	bne	r2,zero,809bc8 <xprintf+0x134>
      l = 1;
  809bac:	00800044 	movi	r2,1
  809bb0:	e0bffd05 	stb	r2,-12(fp)
      d = *str++;
  809bb4:	e0bfff17 	ldw	r2,-4(fp)
  809bb8:	10c00044 	addi	r3,r2,1
  809bbc:	e0ffff15 	stw	r3,-4(fp)
  809bc0:	10800003 	ldbu	r2,0(r2)
  809bc4:	e0bffc05 	stb	r2,-16(fp)
    }
    if (!d) break;
  809bc8:	e0bffc07 	ldb	r2,-16(fp)
  809bcc:	1000011e 	bne	r2,zero,809bd4 <xprintf+0x140>
  809bd0:	00005606 	br	809d2c <xprintf+0x298>
    if (d == 's') {
  809bd4:	e0bffc07 	ldb	r2,-16(fp)
  809bd8:	10801cd8 	cmpnei	r2,r2,115
  809bdc:	1000071e 	bne	r2,zero,809bfc <xprintf+0x168>
      xputs(va_arg(arp, char*));
  809be0:	e0bffe17 	ldw	r2,-8(fp)
  809be4:	10c00104 	addi	r3,r2,4
  809be8:	e0fffe15 	stw	r3,-8(fp)
  809bec:	10800017 	ldw	r2,0(r2)
  809bf0:	1009883a 	mov	r4,r2
  809bf4:	08098740 	call	809874 <xputs>
      continue;
  809bf8:	00004506 	br	809d10 <xprintf+0x27c>
    }
    if (d == 'c') {
  809bfc:	e0bffc07 	ldb	r2,-16(fp)
  809c00:	108018d8 	cmpnei	r2,r2,99
  809c04:	10000a1e 	bne	r2,zero,809c30 <xprintf+0x19c>
      // xputc(va_arg(arp, char));
      xputc(va_arg(arp, int));
  809c08:	e0bffe17 	ldw	r2,-8(fp)
  809c0c:	10c00104 	addi	r3,r2,4
  809c10:	e0fffe15 	stw	r3,-8(fp)
  809c14:	10800017 	ldw	r2,0(r2)
  809c18:	10803fcc 	andi	r2,r2,255
  809c1c:	1080201c 	xori	r2,r2,128
  809c20:	10bfe004 	addi	r2,r2,-128
  809c24:	1009883a 	mov	r4,r2
  809c28:	08098240 	call	809824 <xputc>
      continue;
  809c2c:	00003806 	br	809d10 <xprintf+0x27c>
    }
    if (d == 'u') r = 10;
  809c30:	e0bffc07 	ldb	r2,-16(fp)
  809c34:	10801d58 	cmpnei	r2,r2,117
  809c38:	1000021e 	bne	r2,zero,809c44 <xprintf+0x1b0>
  809c3c:	00800284 	movi	r2,10
  809c40:	e0bffc45 	stb	r2,-15(fp)
    if (d == 'd') r = -10;
  809c44:	e0bffc07 	ldb	r2,-16(fp)
  809c48:	10801918 	cmpnei	r2,r2,100
  809c4c:	1000021e 	bne	r2,zero,809c58 <xprintf+0x1c4>
  809c50:	00bffd84 	movi	r2,-10
  809c54:	e0bffc45 	stb	r2,-15(fp)
    if (d == 'X') r = 16;
  809c58:	e0bffc07 	ldb	r2,-16(fp)
  809c5c:	10801618 	cmpnei	r2,r2,88
  809c60:	1000021e 	bne	r2,zero,809c6c <xprintf+0x1d8>
  809c64:	00800404 	movi	r2,16
  809c68:	e0bffc45 	stb	r2,-15(fp)
    if (d == 'b') r = 2;
  809c6c:	e0bffc07 	ldb	r2,-16(fp)
  809c70:	10801898 	cmpnei	r2,r2,98
  809c74:	1000021e 	bne	r2,zero,809c80 <xprintf+0x1ec>
  809c78:	00800084 	movi	r2,2
  809c7c:	e0bffc45 	stb	r2,-15(fp)
    if (!r) break;
  809c80:	e0bffc47 	ldb	r2,-15(fp)
  809c84:	1000011e 	bne	r2,zero,809c8c <xprintf+0x1f8>
  809c88:	00002806 	br	809d2c <xprintf+0x298>
    if (l) {
  809c8c:	e0bffd07 	ldb	r2,-12(fp)
  809c90:	10000a26 	beq	r2,zero,809cbc <xprintf+0x228>
      xitoa((long)va_arg(arp, long), r, w);
  809c94:	e0bffe17 	ldw	r2,-8(fp)
  809c98:	10c00104 	addi	r3,r2,4
  809c9c:	e0fffe15 	stw	r3,-8(fp)
  809ca0:	11000017 	ldw	r4,0(r2)
  809ca4:	e0fffc47 	ldb	r3,-15(fp)
  809ca8:	e0bffc87 	ldb	r2,-14(fp)
  809cac:	180b883a 	mov	r5,r3
  809cb0:	100d883a 	mov	r6,r2
  809cb4:	08098dc0 	call	8098dc <xitoa>
  809cb8:	00001506 	br	809d10 <xprintf+0x27c>
    } else {
      if (r > 0)
  809cbc:	e0bffc47 	ldb	r2,-15(fp)
  809cc0:	00800a0e 	bge	zero,r2,809cec <xprintf+0x258>
        xitoa((unsigned long)va_arg(arp, int), r, w);
  809cc4:	e0bffe17 	ldw	r2,-8(fp)
  809cc8:	10c00104 	addi	r3,r2,4
  809ccc:	e0fffe15 	stw	r3,-8(fp)
  809cd0:	11000017 	ldw	r4,0(r2)
  809cd4:	e0fffc47 	ldb	r3,-15(fp)
  809cd8:	e0bffc87 	ldb	r2,-14(fp)
  809cdc:	180b883a 	mov	r5,r3
  809ce0:	100d883a 	mov	r6,r2
  809ce4:	08098dc0 	call	8098dc <xitoa>
  809ce8:	00000906 	br	809d10 <xprintf+0x27c>
      else
        xitoa((long)va_arg(arp, int), r, w);
  809cec:	e0bffe17 	ldw	r2,-8(fp)
  809cf0:	10c00104 	addi	r3,r2,4
  809cf4:	e0fffe15 	stw	r3,-8(fp)
  809cf8:	11000017 	ldw	r4,0(r2)
  809cfc:	e0fffc47 	ldb	r3,-15(fp)
  809d00:	e0bffc87 	ldb	r2,-14(fp)
  809d04:	180b883a 	mov	r5,r3
  809d08:	100d883a 	mov	r6,r2
  809d0c:	08098dc0 	call	8098dc <xitoa>
  char d, r, w, s, l;


  va_start(arp, str);

  while ((d = *str++) != 0) {
  809d10:	e0bfff17 	ldw	r2,-4(fp)
  809d14:	10c00044 	addi	r3,r2,1
  809d18:	e0ffff15 	stw	r3,-4(fp)
  809d1c:	10800003 	ldbu	r2,0(r2)
  809d20:	e0bffc05 	stb	r2,-16(fp)
  809d24:	e0bffc07 	ldb	r2,-16(fp)
  809d28:	103f651e 	bne	r2,zero,809ac0 <__alt_data_end+0xff809ac0>
        xitoa((long)va_arg(arp, int), r, w);
    }
  }

  va_end(arp);
}
  809d2c:	e037883a 	mov	sp,fp
  809d30:	dfc00117 	ldw	ra,4(sp)
  809d34:	df000017 	ldw	fp,0(sp)
  809d38:	dec00504 	addi	sp,sp,20
  809d3c:	f800283a 	ret

00809d40 <put_dump>:




void put_dump (const unsigned char *buff, unsigned long ofs, int cnt)
{
  809d40:	defffa04 	addi	sp,sp,-24
  809d44:	dfc00515 	stw	ra,20(sp)
  809d48:	df000415 	stw	fp,16(sp)
  809d4c:	df000404 	addi	fp,sp,16
  809d50:	e13ffd15 	stw	r4,-12(fp)
  809d54:	e17ffe15 	stw	r5,-8(fp)
  809d58:	e1bfff15 	stw	r6,-4(fp)
  unsigned char n;


  xprintf("%08lX ", ofs);
  809d5c:	01002074 	movhi	r4,129
  809d60:	21060704 	addi	r4,r4,6172
  809d64:	e17ffe17 	ldw	r5,-8(fp)
  809d68:	0809a940 	call	809a94 <xprintf>
  for(n = 0; n < cnt; n++)
  809d6c:	e03ffc05 	stb	zero,-16(fp)
  809d70:	00000c06 	br	809da4 <put_dump+0x64>
    xprintf(" %02X", buff[n]);
  809d74:	e0bffc03 	ldbu	r2,-16(fp)
  809d78:	e0fffd17 	ldw	r3,-12(fp)
  809d7c:	1885883a 	add	r2,r3,r2
  809d80:	10800003 	ldbu	r2,0(r2)
  809d84:	10803fcc 	andi	r2,r2,255
  809d88:	01002074 	movhi	r4,129
  809d8c:	21060904 	addi	r4,r4,6180
  809d90:	100b883a 	mov	r5,r2
  809d94:	0809a940 	call	809a94 <xprintf>
{
  unsigned char n;


  xprintf("%08lX ", ofs);
  for(n = 0; n < cnt; n++)
  809d98:	e0bffc03 	ldbu	r2,-16(fp)
  809d9c:	10800044 	addi	r2,r2,1
  809da0:	e0bffc05 	stb	r2,-16(fp)
  809da4:	e0fffc03 	ldbu	r3,-16(fp)
  809da8:	e0bfff17 	ldw	r2,-4(fp)
  809dac:	18bff116 	blt	r3,r2,809d74 <__alt_data_end+0xff809d74>
    xprintf(" %02X", buff[n]);
  xputc(' ');
  809db0:	01000804 	movi	r4,32
  809db4:	08098240 	call	809824 <xputc>
  for(n = 0; n < cnt; n++) {
  809db8:	e03ffc05 	stb	zero,-16(fp)
  809dbc:	00001d06 	br	809e34 <put_dump+0xf4>
    if ((buff[n] < 0x20)||(buff[n] >= 0x7F))
  809dc0:	e0bffc03 	ldbu	r2,-16(fp)
  809dc4:	e0fffd17 	ldw	r3,-12(fp)
  809dc8:	1885883a 	add	r2,r3,r2
  809dcc:	10800003 	ldbu	r2,0(r2)
  809dd0:	10803fcc 	andi	r2,r2,255
  809dd4:	10800830 	cmpltui	r2,r2,32
  809dd8:	1000071e 	bne	r2,zero,809df8 <put_dump+0xb8>
  809ddc:	e0bffc03 	ldbu	r2,-16(fp)
  809de0:	e0fffd17 	ldw	r3,-12(fp)
  809de4:	1885883a 	add	r2,r3,r2
  809de8:	10800003 	ldbu	r2,0(r2)
  809dec:	10803fcc 	andi	r2,r2,255
  809df0:	10801ff0 	cmpltui	r2,r2,127
  809df4:	1000031e 	bne	r2,zero,809e04 <put_dump+0xc4>
      xputc('.');
  809df8:	01000b84 	movi	r4,46
  809dfc:	08098240 	call	809824 <xputc>
  809e00:	00000906 	br	809e28 <put_dump+0xe8>
    else
      xputc(buff[n]);
  809e04:	e0bffc03 	ldbu	r2,-16(fp)
  809e08:	e0fffd17 	ldw	r3,-12(fp)
  809e0c:	1885883a 	add	r2,r3,r2
  809e10:	10800003 	ldbu	r2,0(r2)
  809e14:	10803fcc 	andi	r2,r2,255
  809e18:	1080201c 	xori	r2,r2,128
  809e1c:	10bfe004 	addi	r2,r2,-128
  809e20:	1009883a 	mov	r4,r2
  809e24:	08098240 	call	809824 <xputc>

  xprintf("%08lX ", ofs);
  for(n = 0; n < cnt; n++)
    xprintf(" %02X", buff[n]);
  xputc(' ');
  for(n = 0; n < cnt; n++) {
  809e28:	e0bffc03 	ldbu	r2,-16(fp)
  809e2c:	10800044 	addi	r2,r2,1
  809e30:	e0bffc05 	stb	r2,-16(fp)
  809e34:	e0fffc03 	ldbu	r3,-16(fp)
  809e38:	e0bfff17 	ldw	r2,-4(fp)
  809e3c:	18bfe016 	blt	r3,r2,809dc0 <__alt_data_end+0xff809dc0>
    if ((buff[n] < 0x20)||(buff[n] >= 0x7F))
      xputc('.');
    else
      xputc(buff[n]);
  }
  xputc('\n');
  809e40:	01000284 	movi	r4,10
  809e44:	08098240 	call	809824 <xputc>
}
  809e48:	e037883a 	mov	sp,fp
  809e4c:	dfc00117 	ldw	ra,4(sp)
  809e50:	df000017 	ldw	fp,0(sp)
  809e54:	dec00204 	addi	sp,sp,8
  809e58:	f800283a 	ret

00809e5c <get_line>:




void get_line (char *buff, int len)
{
  809e5c:	defffa04 	addi	sp,sp,-24
  809e60:	dfc00515 	stw	ra,20(sp)
  809e64:	df000415 	stw	fp,16(sp)
  809e68:	df000404 	addi	fp,sp,16
  809e6c:	e13ffe15 	stw	r4,-8(fp)
  809e70:	e17fff15 	stw	r5,-4(fp)
  char c;
  int idx = 0;
  809e74:	e03ffc15 	stw	zero,-16(fp)
//while(1);

  for (;;) {
    c = xgetc();
  809e78:	0809f700 	call	809f70 <uart0_get>
  809e7c:	e0bffd05 	stb	r2,-12(fp)
    //printf("%c",c);
    if (c == '\r')
  809e80:	e0bffd07 	ldb	r2,-12(fp)
  809e84:	10800358 	cmpnei	r2,r2,13
  809e88:	1000011e 	bne	r2,zero,809e90 <get_line+0x34>
    	break;
  809e8c:	00001906 	br	809ef4 <get_line+0x98>
    if ((c == '\b') && idx) {
  809e90:	e0bffd07 	ldb	r2,-12(fp)
  809e94:	10800218 	cmpnei	r2,r2,8
  809e98:	1000051e 	bne	r2,zero,809eb0 <get_line+0x54>
  809e9c:	e0bffc17 	ldw	r2,-16(fp)
  809ea0:	10000326 	beq	r2,zero,809eb0 <get_line+0x54>
      idx--;
  809ea4:	e0bffc17 	ldw	r2,-16(fp)
  809ea8:	10bfffc4 	addi	r2,r2,-1
  809eac:	e0bffc15 	stw	r2,-16(fp)
    }
    if (((unsigned char)c >= ' ') && (idx < len - 1)) {
  809eb0:	e0bffd03 	ldbu	r2,-12(fp)
  809eb4:	10803fcc 	andi	r2,r2,255
  809eb8:	10800830 	cmpltui	r2,r2,32
  809ebc:	10000c1e 	bne	r2,zero,809ef0 <get_line+0x94>
  809ec0:	e0bfff17 	ldw	r2,-4(fp)
  809ec4:	10bfffc4 	addi	r2,r2,-1
  809ec8:	e0fffc17 	ldw	r3,-16(fp)
  809ecc:	1880080e 	bge	r3,r2,809ef0 <get_line+0x94>
    	//printf(" space ");
        buff[idx++] = c;
  809ed0:	e0bffc17 	ldw	r2,-16(fp)
  809ed4:	10c00044 	addi	r3,r2,1
  809ed8:	e0fffc15 	stw	r3,-16(fp)
  809edc:	1007883a 	mov	r3,r2
  809ee0:	e0bffe17 	ldw	r2,-8(fp)
  809ee4:	10c5883a 	add	r2,r2,r3
  809ee8:	e0fffd03 	ldbu	r3,-12(fp)
  809eec:	10c00005 	stb	r3,0(r2)
    }

  }
  809ef0:	003fe106 	br	809e78 <__alt_data_end+0xff809e78>
  buff[idx] = 0;
  809ef4:	e0bffc17 	ldw	r2,-16(fp)
  809ef8:	e0fffe17 	ldw	r3,-8(fp)
  809efc:	1885883a 	add	r2,r3,r2
  809f00:	10000005 	stb	zero,0(r2)
  //xputc('\n');
}
  809f04:	e037883a 	mov	sp,fp
  809f08:	dfc00117 	ldw	ra,4(sp)
  809f0c:	df000017 	ldw	fp,0(sp)
  809f10:	dec00204 	addi	sp,sp,8
  809f14:	f800283a 	ret

00809f18 <uart0_init>:
/*  In    : Baudrate                                                       */
/*  Out   : none                                                           */
/*  Return: none                                                           */
/***************************************************************************/
void uart0_init (unsigned long Baudrate)
{
  809f18:	defffe04 	addi	sp,sp,-8
  809f1c:	df000115 	stw	fp,4(sp)
  809f20:	df000104 	addi	fp,sp,4
  809f24:	e13fff15 	stw	r4,-4(fp)
//   /*
//    * Set baudrate
//    */
//   Divisor = (((UART_FREQ*10) / Baudrate) + 5) / 10;
//   IOWR_ALTERA_AVALON_UART_DIVISOR(UART_BASE, Divisor);
} /* uart0_init */
  809f28:	e037883a 	mov	sp,fp
  809f2c:	df000017 	ldw	fp,0(sp)
  809f30:	dec00104 	addi	sp,sp,4
  809f34:	f800283a 	ret

00809f38 <uart0_put>:
/*  In    : Data                                                           */
/*  Out   : none                                                           */
/*  Return: none                                                           */
/***************************************************************************/
void uart0_put (unsigned char ch)
{
  809f38:	defffd04 	addi	sp,sp,-12
  809f3c:	dfc00215 	stw	ra,8(sp)
  809f40:	df000115 	stw	fp,4(sp)
  809f44:	df000104 	addi	fp,sp,4
  809f48:	2005883a 	mov	r2,r4
  809f4c:	e0bfff05 	stb	r2,-4(fp)
//   {
//      status = IORD_ALTERA_AVALON_UART_STATUS(UART_BASE);
//   }
//   IOWR_ALTERA_AVALON_UART_TXDATA(UART_BASE, ch);

		printf("%c",ch);
  809f50:	e0bfff03 	ldbu	r2,-4(fp)
  809f54:	1009883a 	mov	r4,r2
  809f58:	080a3180 	call	80a318 <putchar>



} /* uart0_put */
  809f5c:	e037883a 	mov	sp,fp
  809f60:	dfc00117 	ldw	ra,4(sp)
  809f64:	df000017 	ldw	fp,0(sp)
  809f68:	dec00204 	addi	sp,sp,8
  809f6c:	f800283a 	ret

00809f70 <uart0_get>:
/*  In    : none                                                           */
/*  Out   : none                                                           */
/*  Return: Data                                                           */
/***************************************************************************/
unsigned char uart0_get (void)
{
  809f70:	defffd04 	addi	sp,sp,-12
  809f74:	dfc00215 	stw	ra,8(sp)
  809f78:	df000115 	stw	fp,4(sp)
  809f7c:	df000104 	addi	fp,sp,4
//   //printf("%d",(char) data & 0xFF);
//
//      return ((char) data & 0xFF);


   ch = getc(stdin);
  809f80:	00802074 	movhi	r2,129
  809f84:	108dec04 	addi	r2,r2,14256
  809f88:	10800017 	ldw	r2,0(r2)
  809f8c:	10800117 	ldw	r2,4(r2)
  809f90:	1009883a 	mov	r4,r2
  809f94:	080a1640 	call	80a164 <getc>
  809f98:	e0bfff05 	stb	r2,-4(fp)
   if (ch == 10) ch = 13;
  809f9c:	e0bfff07 	ldb	r2,-4(fp)
  809fa0:	10800298 	cmpnei	r2,r2,10
  809fa4:	1000021e 	bne	r2,zero,809fb0 <uart0_get+0x40>
  809fa8:	00800344 	movi	r2,13
  809fac:	e0bfff05 	stb	r2,-4(fp)

   return(ch);
  809fb0:	e0bfff03 	ldbu	r2,-4(fp)

} /* uart0_get */
  809fb4:	e037883a 	mov	sp,fp
  809fb8:	dfc00117 	ldw	ra,4(sp)
  809fbc:	df000017 	ldw	fp,0(sp)
  809fc0:	dec00204 	addi	sp,sp,8
  809fc4:	f800283a 	ret

00809fc8 <udivmodsi4>:
  809fc8:	2900182e 	bgeu	r5,r4,80a02c <udivmodsi4+0x64>
  809fcc:	28001716 	blt	r5,zero,80a02c <udivmodsi4+0x64>
  809fd0:	00800804 	movi	r2,32
  809fd4:	00c00044 	movi	r3,1
  809fd8:	00000206 	br	809fe4 <udivmodsi4+0x1c>
  809fdc:	10001126 	beq	r2,zero,80a024 <udivmodsi4+0x5c>
  809fe0:	28000516 	blt	r5,zero,809ff8 <udivmodsi4+0x30>
  809fe4:	294b883a 	add	r5,r5,r5
  809fe8:	10bfffc4 	addi	r2,r2,-1
  809fec:	18c7883a 	add	r3,r3,r3
  809ff0:	293ffa36 	bltu	r5,r4,809fdc <__alt_data_end+0xff809fdc>
  809ff4:	18000b26 	beq	r3,zero,80a024 <udivmodsi4+0x5c>
  809ff8:	0005883a 	mov	r2,zero
  809ffc:	21400236 	bltu	r4,r5,80a008 <udivmodsi4+0x40>
  80a000:	2149c83a 	sub	r4,r4,r5
  80a004:	10c4b03a 	or	r2,r2,r3
  80a008:	1806d07a 	srli	r3,r3,1
  80a00c:	280ad07a 	srli	r5,r5,1
  80a010:	183ffa1e 	bne	r3,zero,809ffc <__alt_data_end+0xff809ffc>
  80a014:	3000011e 	bne	r6,zero,80a01c <udivmodsi4+0x54>
  80a018:	f800283a 	ret
  80a01c:	2005883a 	mov	r2,r4
  80a020:	f800283a 	ret
  80a024:	0005883a 	mov	r2,zero
  80a028:	003ffa06 	br	80a014 <__alt_data_end+0xff80a014>
  80a02c:	00c00044 	movi	r3,1
  80a030:	003ff106 	br	809ff8 <__alt_data_end+0xff809ff8>

0080a034 <__divsi3>:
  80a034:	defffe04 	addi	sp,sp,-8
  80a038:	dfc00115 	stw	ra,4(sp)
  80a03c:	dc000015 	stw	r16,0(sp)
  80a040:	20000b16 	blt	r4,zero,80a070 <__divsi3+0x3c>
  80a044:	0021883a 	mov	r16,zero
  80a048:	28000c16 	blt	r5,zero,80a07c <__divsi3+0x48>
  80a04c:	000d883a 	mov	r6,zero
  80a050:	0809fc80 	call	809fc8 <udivmodsi4>
  80a054:	0407c83a 	sub	r3,zero,r16
  80a058:	1884f03a 	xor	r2,r3,r2
  80a05c:	1405883a 	add	r2,r2,r16
  80a060:	dfc00117 	ldw	ra,4(sp)
  80a064:	dc000017 	ldw	r16,0(sp)
  80a068:	dec00204 	addi	sp,sp,8
  80a06c:	f800283a 	ret
  80a070:	0109c83a 	sub	r4,zero,r4
  80a074:	04000044 	movi	r16,1
  80a078:	283ff40e 	bge	r5,zero,80a04c <__alt_data_end+0xff80a04c>
  80a07c:	014bc83a 	sub	r5,zero,r5
  80a080:	8400005c 	xori	r16,r16,1
  80a084:	003ff106 	br	80a04c <__alt_data_end+0xff80a04c>

0080a088 <__modsi3>:
  80a088:	defffd04 	addi	sp,sp,-12
  80a08c:	dfc00215 	stw	ra,8(sp)
  80a090:	dc400115 	stw	r17,4(sp)
  80a094:	dc000015 	stw	r16,0(sp)
  80a098:	20000c16 	blt	r4,zero,80a0cc <__modsi3+0x44>
  80a09c:	0023883a 	mov	r17,zero
  80a0a0:	0021883a 	mov	r16,zero
  80a0a4:	28000d16 	blt	r5,zero,80a0dc <__modsi3+0x54>
  80a0a8:	01800044 	movi	r6,1
  80a0ac:	0809fc80 	call	809fc8 <udivmodsi4>
  80a0b0:	1404f03a 	xor	r2,r2,r16
  80a0b4:	8885883a 	add	r2,r17,r2
  80a0b8:	dfc00217 	ldw	ra,8(sp)
  80a0bc:	dc400117 	ldw	r17,4(sp)
  80a0c0:	dc000017 	ldw	r16,0(sp)
  80a0c4:	dec00304 	addi	sp,sp,12
  80a0c8:	f800283a 	ret
  80a0cc:	0109c83a 	sub	r4,zero,r4
  80a0d0:	04400044 	movi	r17,1
  80a0d4:	043fffc4 	movi	r16,-1
  80a0d8:	283ff30e 	bge	r5,zero,80a0a8 <__alt_data_end+0xff80a0a8>
  80a0dc:	014bc83a 	sub	r5,zero,r5
  80a0e0:	003ff106 	br	80a0a8 <__alt_data_end+0xff80a0a8>

0080a0e4 <__udivsi3>:
  80a0e4:	000d883a 	mov	r6,zero
  80a0e8:	0809fc81 	jmpi	809fc8 <udivmodsi4>

0080a0ec <__umodsi3>:
  80a0ec:	01800044 	movi	r6,1
  80a0f0:	0809fc81 	jmpi	809fc8 <udivmodsi4>

0080a0f4 <_getc_r>:
  80a0f4:	defffd04 	addi	sp,sp,-12
  80a0f8:	dc000115 	stw	r16,4(sp)
  80a0fc:	dfc00215 	stw	ra,8(sp)
  80a100:	2021883a 	mov	r16,r4
  80a104:	20000226 	beq	r4,zero,80a110 <_getc_r+0x1c>
  80a108:	20800e17 	ldw	r2,56(r4)
  80a10c:	10000c26 	beq	r2,zero,80a140 <_getc_r+0x4c>
  80a110:	28800117 	ldw	r2,4(r5)
  80a114:	10bfffc4 	addi	r2,r2,-1
  80a118:	28800115 	stw	r2,4(r5)
  80a11c:	10000c16 	blt	r2,zero,80a150 <_getc_r+0x5c>
  80a120:	28800017 	ldw	r2,0(r5)
  80a124:	10c00044 	addi	r3,r2,1
  80a128:	28c00015 	stw	r3,0(r5)
  80a12c:	10800003 	ldbu	r2,0(r2)
  80a130:	dfc00217 	ldw	ra,8(sp)
  80a134:	dc000117 	ldw	r16,4(sp)
  80a138:	dec00304 	addi	sp,sp,12
  80a13c:	f800283a 	ret
  80a140:	d9400015 	stw	r5,0(sp)
  80a144:	080a8300 	call	80a830 <__sinit>
  80a148:	d9400017 	ldw	r5,0(sp)
  80a14c:	003ff006 	br	80a110 <__alt_data_end+0xff80a110>
  80a150:	8009883a 	mov	r4,r16
  80a154:	dfc00217 	ldw	ra,8(sp)
  80a158:	dc000117 	ldw	r16,4(sp)
  80a15c:	dec00304 	addi	sp,sp,12
  80a160:	080a3301 	jmpi	80a330 <__srget_r>

0080a164 <getc>:
  80a164:	00802074 	movhi	r2,129
  80a168:	defffd04 	addi	sp,sp,-12
  80a16c:	108dec04 	addi	r2,r2,14256
  80a170:	dc400115 	stw	r17,4(sp)
  80a174:	14400017 	ldw	r17,0(r2)
  80a178:	dc000015 	stw	r16,0(sp)
  80a17c:	dfc00215 	stw	ra,8(sp)
  80a180:	2021883a 	mov	r16,r4
  80a184:	88000226 	beq	r17,zero,80a190 <getc+0x2c>
  80a188:	88800e17 	ldw	r2,56(r17)
  80a18c:	10000d26 	beq	r2,zero,80a1c4 <getc+0x60>
  80a190:	80800117 	ldw	r2,4(r16)
  80a194:	10bfffc4 	addi	r2,r2,-1
  80a198:	80800115 	stw	r2,4(r16)
  80a19c:	10000c16 	blt	r2,zero,80a1d0 <getc+0x6c>
  80a1a0:	80800017 	ldw	r2,0(r16)
  80a1a4:	10c00044 	addi	r3,r2,1
  80a1a8:	80c00015 	stw	r3,0(r16)
  80a1ac:	10800003 	ldbu	r2,0(r2)
  80a1b0:	dfc00217 	ldw	ra,8(sp)
  80a1b4:	dc400117 	ldw	r17,4(sp)
  80a1b8:	dc000017 	ldw	r16,0(sp)
  80a1bc:	dec00304 	addi	sp,sp,12
  80a1c0:	f800283a 	ret
  80a1c4:	8809883a 	mov	r4,r17
  80a1c8:	080a8300 	call	80a830 <__sinit>
  80a1cc:	003ff006 	br	80a190 <__alt_data_end+0xff80a190>
  80a1d0:	8809883a 	mov	r4,r17
  80a1d4:	800b883a 	mov	r5,r16
  80a1d8:	dfc00217 	ldw	ra,8(sp)
  80a1dc:	dc400117 	ldw	r17,4(sp)
  80a1e0:	dc000017 	ldw	r16,0(sp)
  80a1e4:	dec00304 	addi	sp,sp,12
  80a1e8:	080a3301 	jmpi	80a330 <__srget_r>

0080a1ec <memset>:
  80a1ec:	20c000cc 	andi	r3,r4,3
  80a1f0:	2005883a 	mov	r2,r4
  80a1f4:	18004326 	beq	r3,zero,80a304 <memset+0x118>
  80a1f8:	31ffffc4 	addi	r7,r6,-1
  80a1fc:	30004026 	beq	r6,zero,80a300 <memset+0x114>
  80a200:	2813883a 	mov	r9,r5
  80a204:	200d883a 	mov	r6,r4
  80a208:	2007883a 	mov	r3,r4
  80a20c:	00000406 	br	80a220 <memset+0x34>
  80a210:	3a3fffc4 	addi	r8,r7,-1
  80a214:	31800044 	addi	r6,r6,1
  80a218:	38003926 	beq	r7,zero,80a300 <memset+0x114>
  80a21c:	400f883a 	mov	r7,r8
  80a220:	18c00044 	addi	r3,r3,1
  80a224:	32400005 	stb	r9,0(r6)
  80a228:	1a0000cc 	andi	r8,r3,3
  80a22c:	403ff81e 	bne	r8,zero,80a210 <__alt_data_end+0xff80a210>
  80a230:	010000c4 	movi	r4,3
  80a234:	21c02d2e 	bgeu	r4,r7,80a2ec <memset+0x100>
  80a238:	29803fcc 	andi	r6,r5,255
  80a23c:	3008923a 	slli	r4,r6,8
  80a240:	218cb03a 	or	r6,r4,r6
  80a244:	3008943a 	slli	r4,r6,16
  80a248:	218cb03a 	or	r6,r4,r6
  80a24c:	010003c4 	movi	r4,15
  80a250:	21c0182e 	bgeu	r4,r7,80a2b4 <memset+0xc8>
  80a254:	3b3ffc04 	addi	r12,r7,-16
  80a258:	6018d13a 	srli	r12,r12,4
  80a25c:	1a000104 	addi	r8,r3,4
  80a260:	1ac00204 	addi	r11,r3,8
  80a264:	6008913a 	slli	r4,r12,4
  80a268:	1a800304 	addi	r10,r3,12
  80a26c:	1813883a 	mov	r9,r3
  80a270:	21000504 	addi	r4,r4,20
  80a274:	1909883a 	add	r4,r3,r4
  80a278:	49800015 	stw	r6,0(r9)
  80a27c:	41800015 	stw	r6,0(r8)
  80a280:	59800015 	stw	r6,0(r11)
  80a284:	51800015 	stw	r6,0(r10)
  80a288:	42000404 	addi	r8,r8,16
  80a28c:	4a400404 	addi	r9,r9,16
  80a290:	5ac00404 	addi	r11,r11,16
  80a294:	52800404 	addi	r10,r10,16
  80a298:	413ff71e 	bne	r8,r4,80a278 <__alt_data_end+0xff80a278>
  80a29c:	63000044 	addi	r12,r12,1
  80a2a0:	6018913a 	slli	r12,r12,4
  80a2a4:	39c003cc 	andi	r7,r7,15
  80a2a8:	010000c4 	movi	r4,3
  80a2ac:	1b07883a 	add	r3,r3,r12
  80a2b0:	21c00e2e 	bgeu	r4,r7,80a2ec <memset+0x100>
  80a2b4:	1813883a 	mov	r9,r3
  80a2b8:	3811883a 	mov	r8,r7
  80a2bc:	010000c4 	movi	r4,3
  80a2c0:	49800015 	stw	r6,0(r9)
  80a2c4:	423fff04 	addi	r8,r8,-4
  80a2c8:	4a400104 	addi	r9,r9,4
  80a2cc:	223ffc36 	bltu	r4,r8,80a2c0 <__alt_data_end+0xff80a2c0>
  80a2d0:	393fff04 	addi	r4,r7,-4
  80a2d4:	2008d0ba 	srli	r4,r4,2
  80a2d8:	39c000cc 	andi	r7,r7,3
  80a2dc:	21000044 	addi	r4,r4,1
  80a2e0:	2109883a 	add	r4,r4,r4
  80a2e4:	2109883a 	add	r4,r4,r4
  80a2e8:	1907883a 	add	r3,r3,r4
  80a2ec:	38000426 	beq	r7,zero,80a300 <memset+0x114>
  80a2f0:	19cf883a 	add	r7,r3,r7
  80a2f4:	19400005 	stb	r5,0(r3)
  80a2f8:	18c00044 	addi	r3,r3,1
  80a2fc:	19fffd1e 	bne	r3,r7,80a2f4 <__alt_data_end+0xff80a2f4>
  80a300:	f800283a 	ret
  80a304:	2007883a 	mov	r3,r4
  80a308:	300f883a 	mov	r7,r6
  80a30c:	003fc806 	br	80a230 <__alt_data_end+0xff80a230>

0080a310 <_putchar_r>:
  80a310:	21800217 	ldw	r6,8(r4)
  80a314:	080b1b01 	jmpi	80b1b0 <_putc_r>

0080a318 <putchar>:
  80a318:	00802074 	movhi	r2,129
  80a31c:	108dec04 	addi	r2,r2,14256
  80a320:	200b883a 	mov	r5,r4
  80a324:	11000017 	ldw	r4,0(r2)
  80a328:	21800217 	ldw	r6,8(r4)
  80a32c:	080b1b01 	jmpi	80b1b0 <_putc_r>

0080a330 <__srget_r>:
  80a330:	defffd04 	addi	sp,sp,-12
  80a334:	dc400115 	stw	r17,4(sp)
  80a338:	dc000015 	stw	r16,0(sp)
  80a33c:	dfc00215 	stw	ra,8(sp)
  80a340:	2023883a 	mov	r17,r4
  80a344:	2821883a 	mov	r16,r5
  80a348:	20000226 	beq	r4,zero,80a354 <__srget_r+0x24>
  80a34c:	20800e17 	ldw	r2,56(r4)
  80a350:	10001026 	beq	r2,zero,80a394 <__srget_r+0x64>
  80a354:	8809883a 	mov	r4,r17
  80a358:	800b883a 	mov	r5,r16
  80a35c:	080b3380 	call	80b338 <__srefill_r>
  80a360:	10000e1e 	bne	r2,zero,80a39c <__srget_r+0x6c>
  80a364:	80c00017 	ldw	r3,0(r16)
  80a368:	80800117 	ldw	r2,4(r16)
  80a36c:	19000044 	addi	r4,r3,1
  80a370:	10bfffc4 	addi	r2,r2,-1
  80a374:	80800115 	stw	r2,4(r16)
  80a378:	81000015 	stw	r4,0(r16)
  80a37c:	18800003 	ldbu	r2,0(r3)
  80a380:	dfc00217 	ldw	ra,8(sp)
  80a384:	dc400117 	ldw	r17,4(sp)
  80a388:	dc000017 	ldw	r16,0(sp)
  80a38c:	dec00304 	addi	sp,sp,12
  80a390:	f800283a 	ret
  80a394:	080a8300 	call	80a830 <__sinit>
  80a398:	003fee06 	br	80a354 <__alt_data_end+0xff80a354>
  80a39c:	00bfffc4 	movi	r2,-1
  80a3a0:	003ff706 	br	80a380 <__alt_data_end+0xff80a380>

0080a3a4 <__srget>:
  80a3a4:	00802074 	movhi	r2,129
  80a3a8:	108dec04 	addi	r2,r2,14256
  80a3ac:	200b883a 	mov	r5,r4
  80a3b0:	11000017 	ldw	r4,0(r2)
  80a3b4:	080a3301 	jmpi	80a330 <__srget_r>

0080a3b8 <strcpy>:
  80a3b8:	2906b03a 	or	r3,r5,r4
  80a3bc:	18c000cc 	andi	r3,r3,3
  80a3c0:	2005883a 	mov	r2,r4
  80a3c4:	1800161e 	bne	r3,zero,80a420 <strcpy+0x68>
  80a3c8:	29c00017 	ldw	r7,0(r5)
  80a3cc:	02ffbff4 	movhi	r11,65279
  80a3d0:	5affbfc4 	addi	r11,r11,-257
  80a3d4:	02a02074 	movhi	r10,32897
  80a3d8:	01c8303a 	nor	r4,zero,r7
  80a3dc:	3ac7883a 	add	r3,r7,r11
  80a3e0:	52a02004 	addi	r10,r10,-32640
  80a3e4:	20c6703a 	and	r3,r4,r3
  80a3e8:	1a86703a 	and	r3,r3,r10
  80a3ec:	18000c1e 	bne	r3,zero,80a420 <strcpy+0x68>
  80a3f0:	1011883a 	mov	r8,r2
  80a3f4:	41c00015 	stw	r7,0(r8)
  80a3f8:	29400104 	addi	r5,r5,4
  80a3fc:	29c00017 	ldw	r7,0(r5)
  80a400:	41800104 	addi	r6,r8,4
  80a404:	3011883a 	mov	r8,r6
  80a408:	01d2303a 	nor	r9,zero,r7
  80a40c:	3ac7883a 	add	r3,r7,r11
  80a410:	48c6703a 	and	r3,r9,r3
  80a414:	1a86703a 	and	r3,r3,r10
  80a418:	183ff626 	beq	r3,zero,80a3f4 <__alt_data_end+0xff80a3f4>
  80a41c:	00000106 	br	80a424 <strcpy+0x6c>
  80a420:	100d883a 	mov	r6,r2
  80a424:	28c00003 	ldbu	r3,0(r5)
  80a428:	31800044 	addi	r6,r6,1
  80a42c:	29400044 	addi	r5,r5,1
  80a430:	30ffffc5 	stb	r3,-1(r6)
  80a434:	18c03fcc 	andi	r3,r3,255
  80a438:	18c0201c 	xori	r3,r3,128
  80a43c:	18ffe004 	addi	r3,r3,-128
  80a440:	183ff81e 	bne	r3,zero,80a424 <__alt_data_end+0xff80a424>
  80a444:	f800283a 	ret

0080a448 <strlen>:
  80a448:	208000cc 	andi	r2,r4,3
  80a44c:	10002026 	beq	r2,zero,80a4d0 <strlen+0x88>
  80a450:	20800007 	ldb	r2,0(r4)
  80a454:	10002026 	beq	r2,zero,80a4d8 <strlen+0x90>
  80a458:	2005883a 	mov	r2,r4
  80a45c:	00000206 	br	80a468 <strlen+0x20>
  80a460:	10c00007 	ldb	r3,0(r2)
  80a464:	18001826 	beq	r3,zero,80a4c8 <strlen+0x80>
  80a468:	10800044 	addi	r2,r2,1
  80a46c:	10c000cc 	andi	r3,r2,3
  80a470:	183ffb1e 	bne	r3,zero,80a460 <__alt_data_end+0xff80a460>
  80a474:	10c00017 	ldw	r3,0(r2)
  80a478:	01ffbff4 	movhi	r7,65279
  80a47c:	39ffbfc4 	addi	r7,r7,-257
  80a480:	00ca303a 	nor	r5,zero,r3
  80a484:	01a02074 	movhi	r6,32897
  80a488:	19c7883a 	add	r3,r3,r7
  80a48c:	31a02004 	addi	r6,r6,-32640
  80a490:	1946703a 	and	r3,r3,r5
  80a494:	1986703a 	and	r3,r3,r6
  80a498:	1800091e 	bne	r3,zero,80a4c0 <strlen+0x78>
  80a49c:	10800104 	addi	r2,r2,4
  80a4a0:	10c00017 	ldw	r3,0(r2)
  80a4a4:	19cb883a 	add	r5,r3,r7
  80a4a8:	00c6303a 	nor	r3,zero,r3
  80a4ac:	28c6703a 	and	r3,r5,r3
  80a4b0:	1986703a 	and	r3,r3,r6
  80a4b4:	183ff926 	beq	r3,zero,80a49c <__alt_data_end+0xff80a49c>
  80a4b8:	00000106 	br	80a4c0 <strlen+0x78>
  80a4bc:	10800044 	addi	r2,r2,1
  80a4c0:	10c00007 	ldb	r3,0(r2)
  80a4c4:	183ffd1e 	bne	r3,zero,80a4bc <__alt_data_end+0xff80a4bc>
  80a4c8:	1105c83a 	sub	r2,r2,r4
  80a4cc:	f800283a 	ret
  80a4d0:	2005883a 	mov	r2,r4
  80a4d4:	003fe706 	br	80a474 <__alt_data_end+0xff80a474>
  80a4d8:	0005883a 	mov	r2,zero
  80a4dc:	f800283a 	ret

0080a4e0 <__fp_lock>:
  80a4e0:	0005883a 	mov	r2,zero
  80a4e4:	f800283a 	ret

0080a4e8 <__fp_unlock>:
  80a4e8:	0005883a 	mov	r2,zero
  80a4ec:	f800283a 	ret

0080a4f0 <_cleanup_r>:
  80a4f0:	01402074 	movhi	r5,129
  80a4f4:	296e7d04 	addi	r5,r5,-17932
  80a4f8:	080a9441 	jmpi	80a944 <_fwalk_reent>

0080a4fc <__sinit.part.1>:
  80a4fc:	defff704 	addi	sp,sp,-36
  80a500:	00c02074 	movhi	r3,129
  80a504:	dfc00815 	stw	ra,32(sp)
  80a508:	ddc00715 	stw	r23,28(sp)
  80a50c:	dd800615 	stw	r22,24(sp)
  80a510:	dd400515 	stw	r21,20(sp)
  80a514:	dd000415 	stw	r20,16(sp)
  80a518:	dcc00315 	stw	r19,12(sp)
  80a51c:	dc800215 	stw	r18,8(sp)
  80a520:	dc400115 	stw	r17,4(sp)
  80a524:	dc000015 	stw	r16,0(sp)
  80a528:	18e93c04 	addi	r3,r3,-23312
  80a52c:	24000117 	ldw	r16,4(r4)
  80a530:	20c00f15 	stw	r3,60(r4)
  80a534:	2080bb04 	addi	r2,r4,748
  80a538:	00c000c4 	movi	r3,3
  80a53c:	20c0b915 	stw	r3,740(r4)
  80a540:	2080ba15 	stw	r2,744(r4)
  80a544:	2000b815 	stw	zero,736(r4)
  80a548:	05c00204 	movi	r23,8
  80a54c:	00800104 	movi	r2,4
  80a550:	2025883a 	mov	r18,r4
  80a554:	b80d883a 	mov	r6,r23
  80a558:	81001704 	addi	r4,r16,92
  80a55c:	000b883a 	mov	r5,zero
  80a560:	80000015 	stw	zero,0(r16)
  80a564:	80000115 	stw	zero,4(r16)
  80a568:	80000215 	stw	zero,8(r16)
  80a56c:	8080030d 	sth	r2,12(r16)
  80a570:	80001915 	stw	zero,100(r16)
  80a574:	8000038d 	sth	zero,14(r16)
  80a578:	80000415 	stw	zero,16(r16)
  80a57c:	80000515 	stw	zero,20(r16)
  80a580:	80000615 	stw	zero,24(r16)
  80a584:	080a1ec0 	call	80a1ec <memset>
  80a588:	05802074 	movhi	r22,129
  80a58c:	94400217 	ldw	r17,8(r18)
  80a590:	05402074 	movhi	r21,129
  80a594:	05002074 	movhi	r20,129
  80a598:	04c02074 	movhi	r19,129
  80a59c:	b5ad5804 	addi	r22,r22,-19104
  80a5a0:	ad6d6f04 	addi	r21,r21,-19012
  80a5a4:	a52d8e04 	addi	r20,r20,-18888
  80a5a8:	9ceda504 	addi	r19,r19,-18796
  80a5ac:	85800815 	stw	r22,32(r16)
  80a5b0:	85400915 	stw	r21,36(r16)
  80a5b4:	85000a15 	stw	r20,40(r16)
  80a5b8:	84c00b15 	stw	r19,44(r16)
  80a5bc:	84000715 	stw	r16,28(r16)
  80a5c0:	00800284 	movi	r2,10
  80a5c4:	8880030d 	sth	r2,12(r17)
  80a5c8:	00800044 	movi	r2,1
  80a5cc:	89001704 	addi	r4,r17,92
  80a5d0:	b80d883a 	mov	r6,r23
  80a5d4:	000b883a 	mov	r5,zero
  80a5d8:	88000015 	stw	zero,0(r17)
  80a5dc:	88000115 	stw	zero,4(r17)
  80a5e0:	88000215 	stw	zero,8(r17)
  80a5e4:	88001915 	stw	zero,100(r17)
  80a5e8:	8880038d 	sth	r2,14(r17)
  80a5ec:	88000415 	stw	zero,16(r17)
  80a5f0:	88000515 	stw	zero,20(r17)
  80a5f4:	88000615 	stw	zero,24(r17)
  80a5f8:	080a1ec0 	call	80a1ec <memset>
  80a5fc:	94000317 	ldw	r16,12(r18)
  80a600:	00800484 	movi	r2,18
  80a604:	8c400715 	stw	r17,28(r17)
  80a608:	8d800815 	stw	r22,32(r17)
  80a60c:	8d400915 	stw	r21,36(r17)
  80a610:	8d000a15 	stw	r20,40(r17)
  80a614:	8cc00b15 	stw	r19,44(r17)
  80a618:	8080030d 	sth	r2,12(r16)
  80a61c:	00800084 	movi	r2,2
  80a620:	80000015 	stw	zero,0(r16)
  80a624:	80000115 	stw	zero,4(r16)
  80a628:	80000215 	stw	zero,8(r16)
  80a62c:	80001915 	stw	zero,100(r16)
  80a630:	8080038d 	sth	r2,14(r16)
  80a634:	80000415 	stw	zero,16(r16)
  80a638:	80000515 	stw	zero,20(r16)
  80a63c:	80000615 	stw	zero,24(r16)
  80a640:	81001704 	addi	r4,r16,92
  80a644:	000b883a 	mov	r5,zero
  80a648:	b80d883a 	mov	r6,r23
  80a64c:	080a1ec0 	call	80a1ec <memset>
  80a650:	00800044 	movi	r2,1
  80a654:	84000715 	stw	r16,28(r16)
  80a658:	85800815 	stw	r22,32(r16)
  80a65c:	85400915 	stw	r21,36(r16)
  80a660:	85000a15 	stw	r20,40(r16)
  80a664:	84c00b15 	stw	r19,44(r16)
  80a668:	90800e15 	stw	r2,56(r18)
  80a66c:	dfc00817 	ldw	ra,32(sp)
  80a670:	ddc00717 	ldw	r23,28(sp)
  80a674:	dd800617 	ldw	r22,24(sp)
  80a678:	dd400517 	ldw	r21,20(sp)
  80a67c:	dd000417 	ldw	r20,16(sp)
  80a680:	dcc00317 	ldw	r19,12(sp)
  80a684:	dc800217 	ldw	r18,8(sp)
  80a688:	dc400117 	ldw	r17,4(sp)
  80a68c:	dc000017 	ldw	r16,0(sp)
  80a690:	dec00904 	addi	sp,sp,36
  80a694:	f800283a 	ret

0080a698 <__sfmoreglue>:
  80a698:	defffc04 	addi	sp,sp,-16
  80a69c:	dc400115 	stw	r17,4(sp)
  80a6a0:	2c7fffc4 	addi	r17,r5,-1
  80a6a4:	8c401a24 	muli	r17,r17,104
  80a6a8:	dc800215 	stw	r18,8(sp)
  80a6ac:	2825883a 	mov	r18,r5
  80a6b0:	89401d04 	addi	r5,r17,116
  80a6b4:	dc000015 	stw	r16,0(sp)
  80a6b8:	dfc00315 	stw	ra,12(sp)
  80a6bc:	080aa080 	call	80aa08 <_malloc_r>
  80a6c0:	1021883a 	mov	r16,r2
  80a6c4:	10000726 	beq	r2,zero,80a6e4 <__sfmoreglue+0x4c>
  80a6c8:	11000304 	addi	r4,r2,12
  80a6cc:	10000015 	stw	zero,0(r2)
  80a6d0:	14800115 	stw	r18,4(r2)
  80a6d4:	11000215 	stw	r4,8(r2)
  80a6d8:	000b883a 	mov	r5,zero
  80a6dc:	89801a04 	addi	r6,r17,104
  80a6e0:	080a1ec0 	call	80a1ec <memset>
  80a6e4:	8005883a 	mov	r2,r16
  80a6e8:	dfc00317 	ldw	ra,12(sp)
  80a6ec:	dc800217 	ldw	r18,8(sp)
  80a6f0:	dc400117 	ldw	r17,4(sp)
  80a6f4:	dc000017 	ldw	r16,0(sp)
  80a6f8:	dec00404 	addi	sp,sp,16
  80a6fc:	f800283a 	ret

0080a700 <__sfp>:
  80a700:	00802074 	movhi	r2,129
  80a704:	defffb04 	addi	sp,sp,-20
  80a708:	108deb04 	addi	r2,r2,14252
  80a70c:	dc800215 	stw	r18,8(sp)
  80a710:	14800017 	ldw	r18,0(r2)
  80a714:	dcc00315 	stw	r19,12(sp)
  80a718:	dfc00415 	stw	ra,16(sp)
  80a71c:	90800e17 	ldw	r2,56(r18)
  80a720:	dc400115 	stw	r17,4(sp)
  80a724:	dc000015 	stw	r16,0(sp)
  80a728:	2027883a 	mov	r19,r4
  80a72c:	1000021e 	bne	r2,zero,80a738 <__sfp+0x38>
  80a730:	9009883a 	mov	r4,r18
  80a734:	080a4fc0 	call	80a4fc <__sinit.part.1>
  80a738:	9480b804 	addi	r18,r18,736
  80a73c:	047fffc4 	movi	r17,-1
  80a740:	91400117 	ldw	r5,4(r18)
  80a744:	94000217 	ldw	r16,8(r18)
  80a748:	297fffc4 	addi	r5,r5,-1
  80a74c:	28000a16 	blt	r5,zero,80a778 <__sfp+0x78>
  80a750:	8080030f 	ldh	r2,12(r16)
  80a754:	10000c26 	beq	r2,zero,80a788 <__sfp+0x88>
  80a758:	80c01d04 	addi	r3,r16,116
  80a75c:	00000206 	br	80a768 <__sfp+0x68>
  80a760:	18bfe60f 	ldh	r2,-104(r3)
  80a764:	10000826 	beq	r2,zero,80a788 <__sfp+0x88>
  80a768:	297fffc4 	addi	r5,r5,-1
  80a76c:	1c3ffd04 	addi	r16,r3,-12
  80a770:	18c01a04 	addi	r3,r3,104
  80a774:	2c7ffa1e 	bne	r5,r17,80a760 <__alt_data_end+0xff80a760>
  80a778:	90800017 	ldw	r2,0(r18)
  80a77c:	10001d26 	beq	r2,zero,80a7f4 <__sfp+0xf4>
  80a780:	1025883a 	mov	r18,r2
  80a784:	003fee06 	br	80a740 <__alt_data_end+0xff80a740>
  80a788:	00bfffc4 	movi	r2,-1
  80a78c:	8080038d 	sth	r2,14(r16)
  80a790:	00800044 	movi	r2,1
  80a794:	8080030d 	sth	r2,12(r16)
  80a798:	80001915 	stw	zero,100(r16)
  80a79c:	80000015 	stw	zero,0(r16)
  80a7a0:	80000215 	stw	zero,8(r16)
  80a7a4:	80000115 	stw	zero,4(r16)
  80a7a8:	80000415 	stw	zero,16(r16)
  80a7ac:	80000515 	stw	zero,20(r16)
  80a7b0:	80000615 	stw	zero,24(r16)
  80a7b4:	81001704 	addi	r4,r16,92
  80a7b8:	000b883a 	mov	r5,zero
  80a7bc:	01800204 	movi	r6,8
  80a7c0:	080a1ec0 	call	80a1ec <memset>
  80a7c4:	8005883a 	mov	r2,r16
  80a7c8:	80000c15 	stw	zero,48(r16)
  80a7cc:	80000d15 	stw	zero,52(r16)
  80a7d0:	80001115 	stw	zero,68(r16)
  80a7d4:	80001215 	stw	zero,72(r16)
  80a7d8:	dfc00417 	ldw	ra,16(sp)
  80a7dc:	dcc00317 	ldw	r19,12(sp)
  80a7e0:	dc800217 	ldw	r18,8(sp)
  80a7e4:	dc400117 	ldw	r17,4(sp)
  80a7e8:	dc000017 	ldw	r16,0(sp)
  80a7ec:	dec00504 	addi	sp,sp,20
  80a7f0:	f800283a 	ret
  80a7f4:	9809883a 	mov	r4,r19
  80a7f8:	01400104 	movi	r5,4
  80a7fc:	080a6980 	call	80a698 <__sfmoreglue>
  80a800:	90800015 	stw	r2,0(r18)
  80a804:	103fde1e 	bne	r2,zero,80a780 <__alt_data_end+0xff80a780>
  80a808:	00800304 	movi	r2,12
  80a80c:	98800015 	stw	r2,0(r19)
  80a810:	0005883a 	mov	r2,zero
  80a814:	003ff006 	br	80a7d8 <__alt_data_end+0xff80a7d8>

0080a818 <_cleanup>:
  80a818:	00802074 	movhi	r2,129
  80a81c:	108deb04 	addi	r2,r2,14252
  80a820:	11000017 	ldw	r4,0(r2)
  80a824:	01402074 	movhi	r5,129
  80a828:	296e7d04 	addi	r5,r5,-17932
  80a82c:	080a9441 	jmpi	80a944 <_fwalk_reent>

0080a830 <__sinit>:
  80a830:	20800e17 	ldw	r2,56(r4)
  80a834:	10000126 	beq	r2,zero,80a83c <__sinit+0xc>
  80a838:	f800283a 	ret
  80a83c:	080a4fc1 	jmpi	80a4fc <__sinit.part.1>

0080a840 <__sfp_lock_acquire>:
  80a840:	f800283a 	ret

0080a844 <__sfp_lock_release>:
  80a844:	f800283a 	ret

0080a848 <__sinit_lock_acquire>:
  80a848:	f800283a 	ret

0080a84c <__sinit_lock_release>:
  80a84c:	f800283a 	ret

0080a850 <__fp_lock_all>:
  80a850:	00802074 	movhi	r2,129
  80a854:	108dec04 	addi	r2,r2,14256
  80a858:	11000017 	ldw	r4,0(r2)
  80a85c:	01402074 	movhi	r5,129
  80a860:	29693804 	addi	r5,r5,-23328
  80a864:	080a8801 	jmpi	80a880 <_fwalk>

0080a868 <__fp_unlock_all>:
  80a868:	00802074 	movhi	r2,129
  80a86c:	108dec04 	addi	r2,r2,14256
  80a870:	11000017 	ldw	r4,0(r2)
  80a874:	01402074 	movhi	r5,129
  80a878:	29693a04 	addi	r5,r5,-23320
  80a87c:	080a8801 	jmpi	80a880 <_fwalk>

0080a880 <_fwalk>:
  80a880:	defff704 	addi	sp,sp,-36
  80a884:	dd000415 	stw	r20,16(sp)
  80a888:	dfc00815 	stw	ra,32(sp)
  80a88c:	ddc00715 	stw	r23,28(sp)
  80a890:	dd800615 	stw	r22,24(sp)
  80a894:	dd400515 	stw	r21,20(sp)
  80a898:	dcc00315 	stw	r19,12(sp)
  80a89c:	dc800215 	stw	r18,8(sp)
  80a8a0:	dc400115 	stw	r17,4(sp)
  80a8a4:	dc000015 	stw	r16,0(sp)
  80a8a8:	2500b804 	addi	r20,r4,736
  80a8ac:	a0002326 	beq	r20,zero,80a93c <_fwalk+0xbc>
  80a8b0:	282b883a 	mov	r21,r5
  80a8b4:	002f883a 	mov	r23,zero
  80a8b8:	05800044 	movi	r22,1
  80a8bc:	04ffffc4 	movi	r19,-1
  80a8c0:	a4400117 	ldw	r17,4(r20)
  80a8c4:	a4800217 	ldw	r18,8(r20)
  80a8c8:	8c7fffc4 	addi	r17,r17,-1
  80a8cc:	88000d16 	blt	r17,zero,80a904 <_fwalk+0x84>
  80a8d0:	94000304 	addi	r16,r18,12
  80a8d4:	94800384 	addi	r18,r18,14
  80a8d8:	80c0000b 	ldhu	r3,0(r16)
  80a8dc:	8c7fffc4 	addi	r17,r17,-1
  80a8e0:	813ffd04 	addi	r4,r16,-12
  80a8e4:	b0c0042e 	bgeu	r22,r3,80a8f8 <_fwalk+0x78>
  80a8e8:	90c0000f 	ldh	r3,0(r18)
  80a8ec:	1cc00226 	beq	r3,r19,80a8f8 <_fwalk+0x78>
  80a8f0:	a83ee83a 	callr	r21
  80a8f4:	b8aeb03a 	or	r23,r23,r2
  80a8f8:	84001a04 	addi	r16,r16,104
  80a8fc:	94801a04 	addi	r18,r18,104
  80a900:	8cfff51e 	bne	r17,r19,80a8d8 <__alt_data_end+0xff80a8d8>
  80a904:	a5000017 	ldw	r20,0(r20)
  80a908:	a03fed1e 	bne	r20,zero,80a8c0 <__alt_data_end+0xff80a8c0>
  80a90c:	b805883a 	mov	r2,r23
  80a910:	dfc00817 	ldw	ra,32(sp)
  80a914:	ddc00717 	ldw	r23,28(sp)
  80a918:	dd800617 	ldw	r22,24(sp)
  80a91c:	dd400517 	ldw	r21,20(sp)
  80a920:	dd000417 	ldw	r20,16(sp)
  80a924:	dcc00317 	ldw	r19,12(sp)
  80a928:	dc800217 	ldw	r18,8(sp)
  80a92c:	dc400117 	ldw	r17,4(sp)
  80a930:	dc000017 	ldw	r16,0(sp)
  80a934:	dec00904 	addi	sp,sp,36
  80a938:	f800283a 	ret
  80a93c:	002f883a 	mov	r23,zero
  80a940:	003ff206 	br	80a90c <__alt_data_end+0xff80a90c>

0080a944 <_fwalk_reent>:
  80a944:	defff704 	addi	sp,sp,-36
  80a948:	dd400515 	stw	r21,20(sp)
  80a94c:	dfc00815 	stw	ra,32(sp)
  80a950:	ddc00715 	stw	r23,28(sp)
  80a954:	dd800615 	stw	r22,24(sp)
  80a958:	dd000415 	stw	r20,16(sp)
  80a95c:	dcc00315 	stw	r19,12(sp)
  80a960:	dc800215 	stw	r18,8(sp)
  80a964:	dc400115 	stw	r17,4(sp)
  80a968:	dc000015 	stw	r16,0(sp)
  80a96c:	2540b804 	addi	r21,r4,736
  80a970:	a8002326 	beq	r21,zero,80aa00 <_fwalk_reent+0xbc>
  80a974:	2829883a 	mov	r20,r5
  80a978:	202d883a 	mov	r22,r4
  80a97c:	002f883a 	mov	r23,zero
  80a980:	04c00044 	movi	r19,1
  80a984:	04bfffc4 	movi	r18,-1
  80a988:	ac400117 	ldw	r17,4(r21)
  80a98c:	ac000217 	ldw	r16,8(r21)
  80a990:	8c7fffc4 	addi	r17,r17,-1
  80a994:	88000c16 	blt	r17,zero,80a9c8 <_fwalk_reent+0x84>
  80a998:	84000304 	addi	r16,r16,12
  80a99c:	80c0000b 	ldhu	r3,0(r16)
  80a9a0:	8c7fffc4 	addi	r17,r17,-1
  80a9a4:	817ffd04 	addi	r5,r16,-12
  80a9a8:	98c0052e 	bgeu	r19,r3,80a9c0 <_fwalk_reent+0x7c>
  80a9ac:	80c0008f 	ldh	r3,2(r16)
  80a9b0:	b009883a 	mov	r4,r22
  80a9b4:	1c800226 	beq	r3,r18,80a9c0 <_fwalk_reent+0x7c>
  80a9b8:	a03ee83a 	callr	r20
  80a9bc:	b8aeb03a 	or	r23,r23,r2
  80a9c0:	84001a04 	addi	r16,r16,104
  80a9c4:	8cbff51e 	bne	r17,r18,80a99c <__alt_data_end+0xff80a99c>
  80a9c8:	ad400017 	ldw	r21,0(r21)
  80a9cc:	a83fee1e 	bne	r21,zero,80a988 <__alt_data_end+0xff80a988>
  80a9d0:	b805883a 	mov	r2,r23
  80a9d4:	dfc00817 	ldw	ra,32(sp)
  80a9d8:	ddc00717 	ldw	r23,28(sp)
  80a9dc:	dd800617 	ldw	r22,24(sp)
  80a9e0:	dd400517 	ldw	r21,20(sp)
  80a9e4:	dd000417 	ldw	r20,16(sp)
  80a9e8:	dcc00317 	ldw	r19,12(sp)
  80a9ec:	dc800217 	ldw	r18,8(sp)
  80a9f0:	dc400117 	ldw	r17,4(sp)
  80a9f4:	dc000017 	ldw	r16,0(sp)
  80a9f8:	dec00904 	addi	sp,sp,36
  80a9fc:	f800283a 	ret
  80aa00:	002f883a 	mov	r23,zero
  80aa04:	003ff206 	br	80a9d0 <__alt_data_end+0xff80a9d0>

0080aa08 <_malloc_r>:
  80aa08:	defff504 	addi	sp,sp,-44
  80aa0c:	dc800315 	stw	r18,12(sp)
  80aa10:	dfc00a15 	stw	ra,40(sp)
  80aa14:	df000915 	stw	fp,36(sp)
  80aa18:	ddc00815 	stw	r23,32(sp)
  80aa1c:	dd800715 	stw	r22,28(sp)
  80aa20:	dd400615 	stw	r21,24(sp)
  80aa24:	dd000515 	stw	r20,20(sp)
  80aa28:	dcc00415 	stw	r19,16(sp)
  80aa2c:	dc400215 	stw	r17,8(sp)
  80aa30:	dc000115 	stw	r16,4(sp)
  80aa34:	288002c4 	addi	r2,r5,11
  80aa38:	00c00584 	movi	r3,22
  80aa3c:	2025883a 	mov	r18,r4
  80aa40:	18802a2e 	bgeu	r3,r2,80aaec <_malloc_r+0xe4>
  80aa44:	047ffe04 	movi	r17,-8
  80aa48:	1462703a 	and	r17,r2,r17
  80aa4c:	88009e16 	blt	r17,zero,80acc8 <_malloc_r+0x2c0>
  80aa50:	89409d36 	bltu	r17,r5,80acc8 <_malloc_r+0x2c0>
  80aa54:	080cbbc0 	call	80cbbc <__malloc_lock>
  80aa58:	00807dc4 	movi	r2,503
  80aa5c:	14402736 	bltu	r2,r17,80aafc <_malloc_r+0xf4>
  80aa60:	8806d0fa 	srli	r3,r17,3
  80aa64:	04c02074 	movhi	r19,129
  80aa68:	9cc7d404 	addi	r19,r19,8016
  80aa6c:	18c5883a 	add	r2,r3,r3
  80aa70:	1085883a 	add	r2,r2,r2
  80aa74:	1085883a 	add	r2,r2,r2
  80aa78:	9885883a 	add	r2,r19,r2
  80aa7c:	14000317 	ldw	r16,12(r2)
  80aa80:	80814a26 	beq	r16,r2,80afac <_malloc_r+0x5a4>
  80aa84:	80c00117 	ldw	r3,4(r16)
  80aa88:	81000317 	ldw	r4,12(r16)
  80aa8c:	00bfff04 	movi	r2,-4
  80aa90:	1884703a 	and	r2,r3,r2
  80aa94:	81400217 	ldw	r5,8(r16)
  80aa98:	8085883a 	add	r2,r16,r2
  80aa9c:	10c00117 	ldw	r3,4(r2)
  80aaa0:	29000315 	stw	r4,12(r5)
  80aaa4:	21400215 	stw	r5,8(r4)
  80aaa8:	18c00054 	ori	r3,r3,1
  80aaac:	10c00115 	stw	r3,4(r2)
  80aab0:	9009883a 	mov	r4,r18
  80aab4:	080cbdc0 	call	80cbdc <__malloc_unlock>
  80aab8:	80800204 	addi	r2,r16,8
  80aabc:	dfc00a17 	ldw	ra,40(sp)
  80aac0:	df000917 	ldw	fp,36(sp)
  80aac4:	ddc00817 	ldw	r23,32(sp)
  80aac8:	dd800717 	ldw	r22,28(sp)
  80aacc:	dd400617 	ldw	r21,24(sp)
  80aad0:	dd000517 	ldw	r20,20(sp)
  80aad4:	dcc00417 	ldw	r19,16(sp)
  80aad8:	dc800317 	ldw	r18,12(sp)
  80aadc:	dc400217 	ldw	r17,8(sp)
  80aae0:	dc000117 	ldw	r16,4(sp)
  80aae4:	dec00b04 	addi	sp,sp,44
  80aae8:	f800283a 	ret
  80aaec:	04400404 	movi	r17,16
  80aaf0:	89407536 	bltu	r17,r5,80acc8 <_malloc_r+0x2c0>
  80aaf4:	080cbbc0 	call	80cbbc <__malloc_lock>
  80aaf8:	003fd906 	br	80aa60 <__alt_data_end+0xff80aa60>
  80aafc:	8806d27a 	srli	r3,r17,9
  80ab00:	18007526 	beq	r3,zero,80acd8 <_malloc_r+0x2d0>
  80ab04:	00800104 	movi	r2,4
  80ab08:	10c0ef36 	bltu	r2,r3,80aec8 <_malloc_r+0x4c0>
  80ab0c:	8806d1ba 	srli	r3,r17,6
  80ab10:	19c00e04 	addi	r7,r3,56
  80ab14:	39cb883a 	add	r5,r7,r7
  80ab18:	04c02074 	movhi	r19,129
  80ab1c:	294b883a 	add	r5,r5,r5
  80ab20:	9cc7d404 	addi	r19,r19,8016
  80ab24:	294b883a 	add	r5,r5,r5
  80ab28:	994b883a 	add	r5,r19,r5
  80ab2c:	2c000317 	ldw	r16,12(r5)
  80ab30:	2c000e26 	beq	r5,r16,80ab6c <_malloc_r+0x164>
  80ab34:	80800117 	ldw	r2,4(r16)
  80ab38:	01bfff04 	movi	r6,-4
  80ab3c:	010003c4 	movi	r4,15
  80ab40:	1184703a 	and	r2,r2,r6
  80ab44:	1447c83a 	sub	r3,r2,r17
  80ab48:	20c00716 	blt	r4,r3,80ab68 <_malloc_r+0x160>
  80ab4c:	1800650e 	bge	r3,zero,80ace4 <_malloc_r+0x2dc>
  80ab50:	84000317 	ldw	r16,12(r16)
  80ab54:	2c000526 	beq	r5,r16,80ab6c <_malloc_r+0x164>
  80ab58:	80800117 	ldw	r2,4(r16)
  80ab5c:	1184703a 	and	r2,r2,r6
  80ab60:	1447c83a 	sub	r3,r2,r17
  80ab64:	20fff90e 	bge	r4,r3,80ab4c <__alt_data_end+0xff80ab4c>
  80ab68:	39ffffc4 	addi	r7,r7,-1
  80ab6c:	38c00044 	addi	r3,r7,1
  80ab70:	01802074 	movhi	r6,129
  80ab74:	9c000417 	ldw	r16,16(r19)
  80ab78:	3187d404 	addi	r6,r6,8016
  80ab7c:	32400204 	addi	r9,r6,8
  80ab80:	82410326 	beq	r16,r9,80af90 <_malloc_r+0x588>
  80ab84:	81000117 	ldw	r4,4(r16)
  80ab88:	00bfff04 	movi	r2,-4
  80ab8c:	208e703a 	and	r7,r4,r2
  80ab90:	3c45c83a 	sub	r2,r7,r17
  80ab94:	010003c4 	movi	r4,15
  80ab98:	2080ee16 	blt	r4,r2,80af54 <_malloc_r+0x54c>
  80ab9c:	32400515 	stw	r9,20(r6)
  80aba0:	32400415 	stw	r9,16(r6)
  80aba4:	1000510e 	bge	r2,zero,80acec <_malloc_r+0x2e4>
  80aba8:	00807fc4 	movi	r2,511
  80abac:	11c0ce36 	bltu	r2,r7,80aee8 <_malloc_r+0x4e0>
  80abb0:	3808d0fa 	srli	r4,r7,3
  80abb4:	01c00044 	movi	r7,1
  80abb8:	30800117 	ldw	r2,4(r6)
  80abbc:	210b883a 	add	r5,r4,r4
  80abc0:	294b883a 	add	r5,r5,r5
  80abc4:	2009d0ba 	srai	r4,r4,2
  80abc8:	294b883a 	add	r5,r5,r5
  80abcc:	298b883a 	add	r5,r5,r6
  80abd0:	2a000217 	ldw	r8,8(r5)
  80abd4:	3908983a 	sll	r4,r7,r4
  80abd8:	81400315 	stw	r5,12(r16)
  80abdc:	82000215 	stw	r8,8(r16)
  80abe0:	2088b03a 	or	r4,r4,r2
  80abe4:	2c000215 	stw	r16,8(r5)
  80abe8:	31000115 	stw	r4,4(r6)
  80abec:	44000315 	stw	r16,12(r8)
  80abf0:	1805d0ba 	srai	r2,r3,2
  80abf4:	01400044 	movi	r5,1
  80abf8:	288a983a 	sll	r5,r5,r2
  80abfc:	21404336 	bltu	r4,r5,80ad0c <_malloc_r+0x304>
  80ac00:	2144703a 	and	r2,r4,r5
  80ac04:	10000a1e 	bne	r2,zero,80ac30 <_malloc_r+0x228>
  80ac08:	00bfff04 	movi	r2,-4
  80ac0c:	294b883a 	add	r5,r5,r5
  80ac10:	1886703a 	and	r3,r3,r2
  80ac14:	2144703a 	and	r2,r4,r5
  80ac18:	18c00104 	addi	r3,r3,4
  80ac1c:	1000041e 	bne	r2,zero,80ac30 <_malloc_r+0x228>
  80ac20:	294b883a 	add	r5,r5,r5
  80ac24:	2144703a 	and	r2,r4,r5
  80ac28:	18c00104 	addi	r3,r3,4
  80ac2c:	103ffc26 	beq	r2,zero,80ac20 <__alt_data_end+0xff80ac20>
  80ac30:	023fff04 	movi	r8,-4
  80ac34:	01c003c4 	movi	r7,15
  80ac38:	18c5883a 	add	r2,r3,r3
  80ac3c:	1085883a 	add	r2,r2,r2
  80ac40:	1085883a 	add	r2,r2,r2
  80ac44:	9895883a 	add	r10,r19,r2
  80ac48:	52c00304 	addi	r11,r10,12
  80ac4c:	1819883a 	mov	r12,r3
  80ac50:	5c000017 	ldw	r16,0(r11)
  80ac54:	59bffd04 	addi	r6,r11,-12
  80ac58:	8180041e 	bne	r16,r6,80ac6c <_malloc_r+0x264>
  80ac5c:	0000ce06 	br	80af98 <_malloc_r+0x590>
  80ac60:	2000d70e 	bge	r4,zero,80afc0 <_malloc_r+0x5b8>
  80ac64:	84000317 	ldw	r16,12(r16)
  80ac68:	8180cb26 	beq	r16,r6,80af98 <_malloc_r+0x590>
  80ac6c:	80800117 	ldw	r2,4(r16)
  80ac70:	1204703a 	and	r2,r2,r8
  80ac74:	1449c83a 	sub	r4,r2,r17
  80ac78:	393ff90e 	bge	r7,r4,80ac60 <__alt_data_end+0xff80ac60>
  80ac7c:	80800317 	ldw	r2,12(r16)
  80ac80:	80c00217 	ldw	r3,8(r16)
  80ac84:	89400054 	ori	r5,r17,1
  80ac88:	81400115 	stw	r5,4(r16)
  80ac8c:	18800315 	stw	r2,12(r3)
  80ac90:	10c00215 	stw	r3,8(r2)
  80ac94:	8463883a 	add	r17,r16,r17
  80ac98:	9c400515 	stw	r17,20(r19)
  80ac9c:	9c400415 	stw	r17,16(r19)
  80aca0:	20800054 	ori	r2,r4,1
  80aca4:	88800115 	stw	r2,4(r17)
  80aca8:	8a400315 	stw	r9,12(r17)
  80acac:	8a400215 	stw	r9,8(r17)
  80acb0:	8923883a 	add	r17,r17,r4
  80acb4:	89000015 	stw	r4,0(r17)
  80acb8:	9009883a 	mov	r4,r18
  80acbc:	080cbdc0 	call	80cbdc <__malloc_unlock>
  80acc0:	80800204 	addi	r2,r16,8
  80acc4:	003f7d06 	br	80aabc <__alt_data_end+0xff80aabc>
  80acc8:	00800304 	movi	r2,12
  80accc:	90800015 	stw	r2,0(r18)
  80acd0:	0005883a 	mov	r2,zero
  80acd4:	003f7906 	br	80aabc <__alt_data_end+0xff80aabc>
  80acd8:	01401f84 	movi	r5,126
  80acdc:	01c00fc4 	movi	r7,63
  80ace0:	003f8d06 	br	80ab18 <__alt_data_end+0xff80ab18>
  80ace4:	81000317 	ldw	r4,12(r16)
  80ace8:	003f6a06 	br	80aa94 <__alt_data_end+0xff80aa94>
  80acec:	81c5883a 	add	r2,r16,r7
  80acf0:	10c00117 	ldw	r3,4(r2)
  80acf4:	9009883a 	mov	r4,r18
  80acf8:	18c00054 	ori	r3,r3,1
  80acfc:	10c00115 	stw	r3,4(r2)
  80ad00:	080cbdc0 	call	80cbdc <__malloc_unlock>
  80ad04:	80800204 	addi	r2,r16,8
  80ad08:	003f6c06 	br	80aabc <__alt_data_end+0xff80aabc>
  80ad0c:	9c000217 	ldw	r16,8(r19)
  80ad10:	00bfff04 	movi	r2,-4
  80ad14:	85800117 	ldw	r22,4(r16)
  80ad18:	b0ac703a 	and	r22,r22,r2
  80ad1c:	b4400336 	bltu	r22,r17,80ad2c <_malloc_r+0x324>
  80ad20:	b445c83a 	sub	r2,r22,r17
  80ad24:	00c003c4 	movi	r3,15
  80ad28:	18805d16 	blt	r3,r2,80aea0 <_malloc_r+0x498>
  80ad2c:	05c02074 	movhi	r23,129
  80ad30:	00802074 	movhi	r2,129
  80ad34:	bdcded04 	addi	r23,r23,14260
  80ad38:	10953704 	addi	r2,r2,21724
  80ad3c:	15400017 	ldw	r21,0(r2)
  80ad40:	b9000017 	ldw	r4,0(r23)
  80ad44:	00ffffc4 	movi	r3,-1
  80ad48:	858d883a 	add	r6,r16,r22
  80ad4c:	8d6b883a 	add	r21,r17,r21
  80ad50:	20c0e426 	beq	r4,r3,80b0e4 <_malloc_r+0x6dc>
  80ad54:	ad4403c4 	addi	r21,r21,4111
  80ad58:	00fc0004 	movi	r3,-4096
  80ad5c:	a8ea703a 	and	r21,r21,r3
  80ad60:	9009883a 	mov	r4,r18
  80ad64:	a80b883a 	mov	r5,r21
  80ad68:	d9800015 	stw	r6,0(sp)
  80ad6c:	080b50c0 	call	80b50c <_sbrk_r>
  80ad70:	00ffffc4 	movi	r3,-1
  80ad74:	1029883a 	mov	r20,r2
  80ad78:	d9800017 	ldw	r6,0(sp)
  80ad7c:	10c0a426 	beq	r2,r3,80b010 <_malloc_r+0x608>
  80ad80:	1180a236 	bltu	r2,r6,80b00c <_malloc_r+0x604>
  80ad84:	07002074 	movhi	fp,129
  80ad88:	e7154604 	addi	fp,fp,21784
  80ad8c:	e0c00017 	ldw	r3,0(fp)
  80ad90:	a8c7883a 	add	r3,r21,r3
  80ad94:	e0c00015 	stw	r3,0(fp)
  80ad98:	3500da26 	beq	r6,r20,80b104 <_malloc_r+0x6fc>
  80ad9c:	b9000017 	ldw	r4,0(r23)
  80ada0:	00bfffc4 	movi	r2,-1
  80ada4:	2080e426 	beq	r4,r2,80b138 <_malloc_r+0x730>
  80ada8:	a185c83a 	sub	r2,r20,r6
  80adac:	1885883a 	add	r2,r3,r2
  80adb0:	e0800015 	stw	r2,0(fp)
  80adb4:	a0c001cc 	andi	r3,r20,7
  80adb8:	1800b526 	beq	r3,zero,80b090 <_malloc_r+0x688>
  80adbc:	a0e9c83a 	sub	r20,r20,r3
  80adc0:	00840204 	movi	r2,4104
  80adc4:	a5000204 	addi	r20,r20,8
  80adc8:	10c7c83a 	sub	r3,r2,r3
  80adcc:	a545883a 	add	r2,r20,r21
  80add0:	1083ffcc 	andi	r2,r2,4095
  80add4:	18abc83a 	sub	r21,r3,r2
  80add8:	9009883a 	mov	r4,r18
  80addc:	a80b883a 	mov	r5,r21
  80ade0:	080b50c0 	call	80b50c <_sbrk_r>
  80ade4:	00ffffc4 	movi	r3,-1
  80ade8:	10c0d026 	beq	r2,r3,80b12c <_malloc_r+0x724>
  80adec:	1507c83a 	sub	r3,r2,r20
  80adf0:	a8c7883a 	add	r3,r21,r3
  80adf4:	18c00054 	ori	r3,r3,1
  80adf8:	e0800017 	ldw	r2,0(fp)
  80adfc:	9d000215 	stw	r20,8(r19)
  80ae00:	a0c00115 	stw	r3,4(r20)
  80ae04:	a887883a 	add	r3,r21,r2
  80ae08:	e0c00015 	stw	r3,0(fp)
  80ae0c:	84c00e26 	beq	r16,r19,80ae48 <_malloc_r+0x440>
  80ae10:	018003c4 	movi	r6,15
  80ae14:	3580a02e 	bgeu	r6,r22,80b098 <_malloc_r+0x690>
  80ae18:	81400117 	ldw	r5,4(r16)
  80ae1c:	013ffe04 	movi	r4,-8
  80ae20:	b0bffd04 	addi	r2,r22,-12
  80ae24:	1104703a 	and	r2,r2,r4
  80ae28:	2900004c 	andi	r4,r5,1
  80ae2c:	1108b03a 	or	r4,r2,r4
  80ae30:	81000115 	stw	r4,4(r16)
  80ae34:	01400144 	movi	r5,5
  80ae38:	8089883a 	add	r4,r16,r2
  80ae3c:	21400115 	stw	r5,4(r4)
  80ae40:	21400215 	stw	r5,8(r4)
  80ae44:	3080c036 	bltu	r6,r2,80b148 <_malloc_r+0x740>
  80ae48:	00802074 	movhi	r2,129
  80ae4c:	10953604 	addi	r2,r2,21720
  80ae50:	11000017 	ldw	r4,0(r2)
  80ae54:	20c0012e 	bgeu	r4,r3,80ae5c <_malloc_r+0x454>
  80ae58:	10c00015 	stw	r3,0(r2)
  80ae5c:	00802074 	movhi	r2,129
  80ae60:	10953504 	addi	r2,r2,21716
  80ae64:	11000017 	ldw	r4,0(r2)
  80ae68:	9c000217 	ldw	r16,8(r19)
  80ae6c:	20c0012e 	bgeu	r4,r3,80ae74 <_malloc_r+0x46c>
  80ae70:	10c00015 	stw	r3,0(r2)
  80ae74:	80c00117 	ldw	r3,4(r16)
  80ae78:	00bfff04 	movi	r2,-4
  80ae7c:	1886703a 	and	r3,r3,r2
  80ae80:	1c45c83a 	sub	r2,r3,r17
  80ae84:	1c400236 	bltu	r3,r17,80ae90 <_malloc_r+0x488>
  80ae88:	00c003c4 	movi	r3,15
  80ae8c:	18800416 	blt	r3,r2,80aea0 <_malloc_r+0x498>
  80ae90:	9009883a 	mov	r4,r18
  80ae94:	080cbdc0 	call	80cbdc <__malloc_unlock>
  80ae98:	0005883a 	mov	r2,zero
  80ae9c:	003f0706 	br	80aabc <__alt_data_end+0xff80aabc>
  80aea0:	88c00054 	ori	r3,r17,1
  80aea4:	80c00115 	stw	r3,4(r16)
  80aea8:	8463883a 	add	r17,r16,r17
  80aeac:	10800054 	ori	r2,r2,1
  80aeb0:	9c400215 	stw	r17,8(r19)
  80aeb4:	88800115 	stw	r2,4(r17)
  80aeb8:	9009883a 	mov	r4,r18
  80aebc:	080cbdc0 	call	80cbdc <__malloc_unlock>
  80aec0:	80800204 	addi	r2,r16,8
  80aec4:	003efd06 	br	80aabc <__alt_data_end+0xff80aabc>
  80aec8:	00800504 	movi	r2,20
  80aecc:	10c0482e 	bgeu	r2,r3,80aff0 <_malloc_r+0x5e8>
  80aed0:	00801504 	movi	r2,84
  80aed4:	10c06836 	bltu	r2,r3,80b078 <_malloc_r+0x670>
  80aed8:	8806d33a 	srli	r3,r17,12
  80aedc:	19c01b84 	addi	r7,r3,110
  80aee0:	39cb883a 	add	r5,r7,r7
  80aee4:	003f0c06 	br	80ab18 <__alt_data_end+0xff80ab18>
  80aee8:	3804d27a 	srli	r2,r7,9
  80aeec:	01000104 	movi	r4,4
  80aef0:	2080422e 	bgeu	r4,r2,80affc <_malloc_r+0x5f4>
  80aef4:	01000504 	movi	r4,20
  80aef8:	20807c36 	bltu	r4,r2,80b0ec <_malloc_r+0x6e4>
  80aefc:	110016c4 	addi	r4,r2,91
  80af00:	210b883a 	add	r5,r4,r4
  80af04:	294b883a 	add	r5,r5,r5
  80af08:	294b883a 	add	r5,r5,r5
  80af0c:	994b883a 	add	r5,r19,r5
  80af10:	28800217 	ldw	r2,8(r5)
  80af14:	02002074 	movhi	r8,129
  80af18:	4207d404 	addi	r8,r8,8016
  80af1c:	11406326 	beq	r2,r5,80b0ac <_malloc_r+0x6a4>
  80af20:	01bfff04 	movi	r6,-4
  80af24:	11000117 	ldw	r4,4(r2)
  80af28:	2188703a 	and	r4,r4,r6
  80af2c:	3900022e 	bgeu	r7,r4,80af38 <_malloc_r+0x530>
  80af30:	10800217 	ldw	r2,8(r2)
  80af34:	28bffb1e 	bne	r5,r2,80af24 <__alt_data_end+0xff80af24>
  80af38:	11800317 	ldw	r6,12(r2)
  80af3c:	99000117 	ldw	r4,4(r19)
  80af40:	81800315 	stw	r6,12(r16)
  80af44:	80800215 	stw	r2,8(r16)
  80af48:	34000215 	stw	r16,8(r6)
  80af4c:	14000315 	stw	r16,12(r2)
  80af50:	003f2706 	br	80abf0 <__alt_data_end+0xff80abf0>
  80af54:	88c00054 	ori	r3,r17,1
  80af58:	80c00115 	stw	r3,4(r16)
  80af5c:	8463883a 	add	r17,r16,r17
  80af60:	34400515 	stw	r17,20(r6)
  80af64:	34400415 	stw	r17,16(r6)
  80af68:	10c00054 	ori	r3,r2,1
  80af6c:	8a400315 	stw	r9,12(r17)
  80af70:	8a400215 	stw	r9,8(r17)
  80af74:	88c00115 	stw	r3,4(r17)
  80af78:	88a3883a 	add	r17,r17,r2
  80af7c:	88800015 	stw	r2,0(r17)
  80af80:	9009883a 	mov	r4,r18
  80af84:	080cbdc0 	call	80cbdc <__malloc_unlock>
  80af88:	80800204 	addi	r2,r16,8
  80af8c:	003ecb06 	br	80aabc <__alt_data_end+0xff80aabc>
  80af90:	31000117 	ldw	r4,4(r6)
  80af94:	003f1606 	br	80abf0 <__alt_data_end+0xff80abf0>
  80af98:	63000044 	addi	r12,r12,1
  80af9c:	608000cc 	andi	r2,r12,3
  80afa0:	5ac00204 	addi	r11,r11,8
  80afa4:	103f2a1e 	bne	r2,zero,80ac50 <__alt_data_end+0xff80ac50>
  80afa8:	00002106 	br	80b030 <_malloc_r+0x628>
  80afac:	80800204 	addi	r2,r16,8
  80afb0:	84000517 	ldw	r16,20(r16)
  80afb4:	143eb31e 	bne	r2,r16,80aa84 <__alt_data_end+0xff80aa84>
  80afb8:	18c00084 	addi	r3,r3,2
  80afbc:	003eec06 	br	80ab70 <__alt_data_end+0xff80ab70>
  80afc0:	8085883a 	add	r2,r16,r2
  80afc4:	10c00117 	ldw	r3,4(r2)
  80afc8:	81000317 	ldw	r4,12(r16)
  80afcc:	81400217 	ldw	r5,8(r16)
  80afd0:	18c00054 	ori	r3,r3,1
  80afd4:	10c00115 	stw	r3,4(r2)
  80afd8:	29000315 	stw	r4,12(r5)
  80afdc:	21400215 	stw	r5,8(r4)
  80afe0:	9009883a 	mov	r4,r18
  80afe4:	080cbdc0 	call	80cbdc <__malloc_unlock>
  80afe8:	80800204 	addi	r2,r16,8
  80afec:	003eb306 	br	80aabc <__alt_data_end+0xff80aabc>
  80aff0:	19c016c4 	addi	r7,r3,91
  80aff4:	39cb883a 	add	r5,r7,r7
  80aff8:	003ec706 	br	80ab18 <__alt_data_end+0xff80ab18>
  80affc:	3804d1ba 	srli	r2,r7,6
  80b000:	11000e04 	addi	r4,r2,56
  80b004:	210b883a 	add	r5,r4,r4
  80b008:	003fbe06 	br	80af04 <__alt_data_end+0xff80af04>
  80b00c:	84ff5d26 	beq	r16,r19,80ad84 <__alt_data_end+0xff80ad84>
  80b010:	9c000217 	ldw	r16,8(r19)
  80b014:	00bfff04 	movi	r2,-4
  80b018:	80c00117 	ldw	r3,4(r16)
  80b01c:	1886703a 	and	r3,r3,r2
  80b020:	003f9706 	br	80ae80 <__alt_data_end+0xff80ae80>
  80b024:	52800017 	ldw	r10,0(r10)
  80b028:	18ffffc4 	addi	r3,r3,-1
  80b02c:	50805c1e 	bne	r10,r2,80b1a0 <_malloc_r+0x798>
  80b030:	190000cc 	andi	r4,r3,3
  80b034:	50bffe04 	addi	r2,r10,-8
  80b038:	203ffa1e 	bne	r4,zero,80b024 <__alt_data_end+0xff80b024>
  80b03c:	98800117 	ldw	r2,4(r19)
  80b040:	0146303a 	nor	r3,zero,r5
  80b044:	1884703a 	and	r2,r3,r2
  80b048:	98800115 	stw	r2,4(r19)
  80b04c:	294b883a 	add	r5,r5,r5
  80b050:	117f2e36 	bltu	r2,r5,80ad0c <__alt_data_end+0xff80ad0c>
  80b054:	283f2d26 	beq	r5,zero,80ad0c <__alt_data_end+0xff80ad0c>
  80b058:	1146703a 	and	r3,r2,r5
  80b05c:	1800521e 	bne	r3,zero,80b1a8 <_malloc_r+0x7a0>
  80b060:	6007883a 	mov	r3,r12
  80b064:	294b883a 	add	r5,r5,r5
  80b068:	1148703a 	and	r4,r2,r5
  80b06c:	18c00104 	addi	r3,r3,4
  80b070:	203ffc26 	beq	r4,zero,80b064 <__alt_data_end+0xff80b064>
  80b074:	003ef006 	br	80ac38 <__alt_data_end+0xff80ac38>
  80b078:	00805504 	movi	r2,340
  80b07c:	10c01336 	bltu	r2,r3,80b0cc <_malloc_r+0x6c4>
  80b080:	8806d3fa 	srli	r3,r17,15
  80b084:	19c01dc4 	addi	r7,r3,119
  80b088:	39cb883a 	add	r5,r7,r7
  80b08c:	003ea206 	br	80ab18 <__alt_data_end+0xff80ab18>
  80b090:	00c40004 	movi	r3,4096
  80b094:	003f4d06 	br	80adcc <__alt_data_end+0xff80adcc>
  80b098:	00800044 	movi	r2,1
  80b09c:	a0800115 	stw	r2,4(r20)
  80b0a0:	a021883a 	mov	r16,r20
  80b0a4:	0007883a 	mov	r3,zero
  80b0a8:	003f7506 	br	80ae80 <__alt_data_end+0xff80ae80>
  80b0ac:	200bd0ba 	srai	r5,r4,2
  80b0b0:	01800044 	movi	r6,1
  80b0b4:	41000117 	ldw	r4,4(r8)
  80b0b8:	314a983a 	sll	r5,r6,r5
  80b0bc:	100d883a 	mov	r6,r2
  80b0c0:	2908b03a 	or	r4,r5,r4
  80b0c4:	41000115 	stw	r4,4(r8)
  80b0c8:	003f9d06 	br	80af40 <__alt_data_end+0xff80af40>
  80b0cc:	00815504 	movi	r2,1364
  80b0d0:	10c01336 	bltu	r2,r3,80b120 <_malloc_r+0x718>
  80b0d4:	8806d4ba 	srli	r3,r17,18
  80b0d8:	19c01f04 	addi	r7,r3,124
  80b0dc:	39cb883a 	add	r5,r7,r7
  80b0e0:	003e8d06 	br	80ab18 <__alt_data_end+0xff80ab18>
  80b0e4:	ad400404 	addi	r21,r21,16
  80b0e8:	003f1d06 	br	80ad60 <__alt_data_end+0xff80ad60>
  80b0ec:	01001504 	movi	r4,84
  80b0f0:	20801c36 	bltu	r4,r2,80b164 <_malloc_r+0x75c>
  80b0f4:	3804d33a 	srli	r2,r7,12
  80b0f8:	11001b84 	addi	r4,r2,110
  80b0fc:	210b883a 	add	r5,r4,r4
  80b100:	003f8006 	br	80af04 <__alt_data_end+0xff80af04>
  80b104:	3083ffcc 	andi	r2,r6,4095
  80b108:	103f241e 	bne	r2,zero,80ad9c <__alt_data_end+0xff80ad9c>
  80b10c:	99000217 	ldw	r4,8(r19)
  80b110:	ad85883a 	add	r2,r21,r22
  80b114:	10800054 	ori	r2,r2,1
  80b118:	20800115 	stw	r2,4(r4)
  80b11c:	003f4a06 	br	80ae48 <__alt_data_end+0xff80ae48>
  80b120:	01403f04 	movi	r5,252
  80b124:	01c01f84 	movi	r7,126
  80b128:	003e7b06 	br	80ab18 <__alt_data_end+0xff80ab18>
  80b12c:	00c00044 	movi	r3,1
  80b130:	002b883a 	mov	r21,zero
  80b134:	003f3006 	br	80adf8 <__alt_data_end+0xff80adf8>
  80b138:	00802074 	movhi	r2,129
  80b13c:	108ded04 	addi	r2,r2,14260
  80b140:	15000015 	stw	r20,0(r2)
  80b144:	003f1b06 	br	80adb4 <__alt_data_end+0xff80adb4>
  80b148:	9009883a 	mov	r4,r18
  80b14c:	81400204 	addi	r5,r16,8
  80b150:	080beb00 	call	80beb0 <_free_r>
  80b154:	00802074 	movhi	r2,129
  80b158:	10954604 	addi	r2,r2,21784
  80b15c:	10c00017 	ldw	r3,0(r2)
  80b160:	003f3906 	br	80ae48 <__alt_data_end+0xff80ae48>
  80b164:	01005504 	movi	r4,340
  80b168:	20800436 	bltu	r4,r2,80b17c <_malloc_r+0x774>
  80b16c:	3804d3fa 	srli	r2,r7,15
  80b170:	11001dc4 	addi	r4,r2,119
  80b174:	210b883a 	add	r5,r4,r4
  80b178:	003f6206 	br	80af04 <__alt_data_end+0xff80af04>
  80b17c:	01015504 	movi	r4,1364
  80b180:	20800436 	bltu	r4,r2,80b194 <_malloc_r+0x78c>
  80b184:	3804d4ba 	srli	r2,r7,18
  80b188:	11001f04 	addi	r4,r2,124
  80b18c:	210b883a 	add	r5,r4,r4
  80b190:	003f5c06 	br	80af04 <__alt_data_end+0xff80af04>
  80b194:	01403f04 	movi	r5,252
  80b198:	01001f84 	movi	r4,126
  80b19c:	003f5906 	br	80af04 <__alt_data_end+0xff80af04>
  80b1a0:	98800117 	ldw	r2,4(r19)
  80b1a4:	003fa906 	br	80b04c <__alt_data_end+0xff80b04c>
  80b1a8:	6007883a 	mov	r3,r12
  80b1ac:	003ea206 	br	80ac38 <__alt_data_end+0xff80ac38>

0080b1b0 <_putc_r>:
  80b1b0:	defffc04 	addi	sp,sp,-16
  80b1b4:	dc000215 	stw	r16,8(sp)
  80b1b8:	dfc00315 	stw	ra,12(sp)
  80b1bc:	2021883a 	mov	r16,r4
  80b1c0:	20000226 	beq	r4,zero,80b1cc <_putc_r+0x1c>
  80b1c4:	20800e17 	ldw	r2,56(r4)
  80b1c8:	10001b26 	beq	r2,zero,80b238 <_putc_r+0x88>
  80b1cc:	30800217 	ldw	r2,8(r6)
  80b1d0:	10bfffc4 	addi	r2,r2,-1
  80b1d4:	30800215 	stw	r2,8(r6)
  80b1d8:	10000a16 	blt	r2,zero,80b204 <_putc_r+0x54>
  80b1dc:	30800017 	ldw	r2,0(r6)
  80b1e0:	11400005 	stb	r5,0(r2)
  80b1e4:	30800017 	ldw	r2,0(r6)
  80b1e8:	10c00044 	addi	r3,r2,1
  80b1ec:	30c00015 	stw	r3,0(r6)
  80b1f0:	10800003 	ldbu	r2,0(r2)
  80b1f4:	dfc00317 	ldw	ra,12(sp)
  80b1f8:	dc000217 	ldw	r16,8(sp)
  80b1fc:	dec00404 	addi	sp,sp,16
  80b200:	f800283a 	ret
  80b204:	30c00617 	ldw	r3,24(r6)
  80b208:	10c00616 	blt	r2,r3,80b224 <_putc_r+0x74>
  80b20c:	30800017 	ldw	r2,0(r6)
  80b210:	00c00284 	movi	r3,10
  80b214:	11400005 	stb	r5,0(r2)
  80b218:	30800017 	ldw	r2,0(r6)
  80b21c:	11400003 	ldbu	r5,0(r2)
  80b220:	28fff11e 	bne	r5,r3,80b1e8 <__alt_data_end+0xff80b1e8>
  80b224:	8009883a 	mov	r4,r16
  80b228:	dfc00317 	ldw	ra,12(sp)
  80b22c:	dc000217 	ldw	r16,8(sp)
  80b230:	dec00404 	addi	sp,sp,16
  80b234:	080b69c1 	jmpi	80b69c <__swbuf_r>
  80b238:	d9400015 	stw	r5,0(sp)
  80b23c:	d9800115 	stw	r6,4(sp)
  80b240:	080a8300 	call	80a830 <__sinit>
  80b244:	d9800117 	ldw	r6,4(sp)
  80b248:	d9400017 	ldw	r5,0(sp)
  80b24c:	003fdf06 	br	80b1cc <__alt_data_end+0xff80b1cc>

0080b250 <putc>:
  80b250:	00802074 	movhi	r2,129
  80b254:	defffc04 	addi	sp,sp,-16
  80b258:	108dec04 	addi	r2,r2,14256
  80b25c:	dc400115 	stw	r17,4(sp)
  80b260:	14400017 	ldw	r17,0(r2)
  80b264:	dc800215 	stw	r18,8(sp)
  80b268:	dc000015 	stw	r16,0(sp)
  80b26c:	dfc00315 	stw	ra,12(sp)
  80b270:	2025883a 	mov	r18,r4
  80b274:	2821883a 	mov	r16,r5
  80b278:	88000226 	beq	r17,zero,80b284 <putc+0x34>
  80b27c:	88800e17 	ldw	r2,56(r17)
  80b280:	10001a26 	beq	r2,zero,80b2ec <putc+0x9c>
  80b284:	80800217 	ldw	r2,8(r16)
  80b288:	10bfffc4 	addi	r2,r2,-1
  80b28c:	80800215 	stw	r2,8(r16)
  80b290:	10000c16 	blt	r2,zero,80b2c4 <putc+0x74>
  80b294:	80800017 	ldw	r2,0(r16)
  80b298:	14800005 	stb	r18,0(r2)
  80b29c:	80800017 	ldw	r2,0(r16)
  80b2a0:	10c00044 	addi	r3,r2,1
  80b2a4:	80c00015 	stw	r3,0(r16)
  80b2a8:	10800003 	ldbu	r2,0(r2)
  80b2ac:	dfc00317 	ldw	ra,12(sp)
  80b2b0:	dc800217 	ldw	r18,8(sp)
  80b2b4:	dc400117 	ldw	r17,4(sp)
  80b2b8:	dc000017 	ldw	r16,0(sp)
  80b2bc:	dec00404 	addi	sp,sp,16
  80b2c0:	f800283a 	ret
  80b2c4:	80c00617 	ldw	r3,24(r16)
  80b2c8:	10c00b16 	blt	r2,r3,80b2f8 <putc+0xa8>
  80b2cc:	80800017 	ldw	r2,0(r16)
  80b2d0:	00c00284 	movi	r3,10
  80b2d4:	14800005 	stb	r18,0(r2)
  80b2d8:	80800017 	ldw	r2,0(r16)
  80b2dc:	11400003 	ldbu	r5,0(r2)
  80b2e0:	28ffef1e 	bne	r5,r3,80b2a0 <__alt_data_end+0xff80b2a0>
  80b2e4:	8809883a 	mov	r4,r17
  80b2e8:	00000506 	br	80b300 <putc+0xb0>
  80b2ec:	8809883a 	mov	r4,r17
  80b2f0:	080a8300 	call	80a830 <__sinit>
  80b2f4:	003fe306 	br	80b284 <__alt_data_end+0xff80b284>
  80b2f8:	8809883a 	mov	r4,r17
  80b2fc:	900b883a 	mov	r5,r18
  80b300:	800d883a 	mov	r6,r16
  80b304:	dfc00317 	ldw	ra,12(sp)
  80b308:	dc800217 	ldw	r18,8(sp)
  80b30c:	dc400117 	ldw	r17,4(sp)
  80b310:	dc000017 	ldw	r16,0(sp)
  80b314:	dec00404 	addi	sp,sp,16
  80b318:	080b69c1 	jmpi	80b69c <__swbuf_r>

0080b31c <lflush>:
  80b31c:	2080030b 	ldhu	r2,12(r4)
  80b320:	00c00244 	movi	r3,9
  80b324:	1080024c 	andi	r2,r2,9
  80b328:	10c00226 	beq	r2,r3,80b334 <lflush+0x18>
  80b32c:	0005883a 	mov	r2,zero
  80b330:	f800283a 	ret
  80b334:	080bd5c1 	jmpi	80bd5c <fflush>

0080b338 <__srefill_r>:
  80b338:	defffc04 	addi	sp,sp,-16
  80b33c:	dc400115 	stw	r17,4(sp)
  80b340:	dc000015 	stw	r16,0(sp)
  80b344:	dfc00315 	stw	ra,12(sp)
  80b348:	dc800215 	stw	r18,8(sp)
  80b34c:	2023883a 	mov	r17,r4
  80b350:	2821883a 	mov	r16,r5
  80b354:	20000226 	beq	r4,zero,80b360 <__srefill_r+0x28>
  80b358:	20800e17 	ldw	r2,56(r4)
  80b35c:	10003c26 	beq	r2,zero,80b450 <__srefill_r+0x118>
  80b360:	80c0030b 	ldhu	r3,12(r16)
  80b364:	1908000c 	andi	r4,r3,8192
  80b368:	1805883a 	mov	r2,r3
  80b36c:	2000071e 	bne	r4,zero,80b38c <__srefill_r+0x54>
  80b370:	81001917 	ldw	r4,100(r16)
  80b374:	18880014 	ori	r2,r3,8192
  80b378:	00f7ffc4 	movi	r3,-8193
  80b37c:	20c8703a 	and	r4,r4,r3
  80b380:	8080030d 	sth	r2,12(r16)
  80b384:	1007883a 	mov	r3,r2
  80b388:	81001915 	stw	r4,100(r16)
  80b38c:	80000115 	stw	zero,4(r16)
  80b390:	1100080c 	andi	r4,r2,32
  80b394:	2000571e 	bne	r4,zero,80b4f4 <__srefill_r+0x1bc>
  80b398:	1100010c 	andi	r4,r2,4
  80b39c:	20001f26 	beq	r4,zero,80b41c <__srefill_r+0xe4>
  80b3a0:	81400c17 	ldw	r5,48(r16)
  80b3a4:	28000826 	beq	r5,zero,80b3c8 <__srefill_r+0x90>
  80b3a8:	80801004 	addi	r2,r16,64
  80b3ac:	28800226 	beq	r5,r2,80b3b8 <__srefill_r+0x80>
  80b3b0:	8809883a 	mov	r4,r17
  80b3b4:	080beb00 	call	80beb0 <_free_r>
  80b3b8:	80800f17 	ldw	r2,60(r16)
  80b3bc:	80000c15 	stw	zero,48(r16)
  80b3c0:	80800115 	stw	r2,4(r16)
  80b3c4:	1000391e 	bne	r2,zero,80b4ac <__srefill_r+0x174>
  80b3c8:	80800417 	ldw	r2,16(r16)
  80b3cc:	10004b26 	beq	r2,zero,80b4fc <__srefill_r+0x1c4>
  80b3d0:	8480030b 	ldhu	r18,12(r16)
  80b3d4:	908000cc 	andi	r2,r18,3
  80b3d8:	10001f1e 	bne	r2,zero,80b458 <__srefill_r+0x120>
  80b3dc:	81800417 	ldw	r6,16(r16)
  80b3e0:	80800817 	ldw	r2,32(r16)
  80b3e4:	81400717 	ldw	r5,28(r16)
  80b3e8:	81c00517 	ldw	r7,20(r16)
  80b3ec:	81800015 	stw	r6,0(r16)
  80b3f0:	8809883a 	mov	r4,r17
  80b3f4:	103ee83a 	callr	r2
  80b3f8:	80800115 	stw	r2,4(r16)
  80b3fc:	00800e0e 	bge	zero,r2,80b438 <__srefill_r+0x100>
  80b400:	0005883a 	mov	r2,zero
  80b404:	dfc00317 	ldw	ra,12(sp)
  80b408:	dc800217 	ldw	r18,8(sp)
  80b40c:	dc400117 	ldw	r17,4(sp)
  80b410:	dc000017 	ldw	r16,0(sp)
  80b414:	dec00404 	addi	sp,sp,16
  80b418:	f800283a 	ret
  80b41c:	1100040c 	andi	r4,r2,16
  80b420:	20003026 	beq	r4,zero,80b4e4 <__srefill_r+0x1ac>
  80b424:	1080020c 	andi	r2,r2,8
  80b428:	1000241e 	bne	r2,zero,80b4bc <__srefill_r+0x184>
  80b42c:	18c00114 	ori	r3,r3,4
  80b430:	80c0030d 	sth	r3,12(r16)
  80b434:	003fe406 	br	80b3c8 <__alt_data_end+0xff80b3c8>
  80b438:	80c0030b 	ldhu	r3,12(r16)
  80b43c:	1000161e 	bne	r2,zero,80b498 <__srefill_r+0x160>
  80b440:	18c00814 	ori	r3,r3,32
  80b444:	00bfffc4 	movi	r2,-1
  80b448:	80c0030d 	sth	r3,12(r16)
  80b44c:	003fed06 	br	80b404 <__alt_data_end+0xff80b404>
  80b450:	080a8300 	call	80a830 <__sinit>
  80b454:	003fc206 	br	80b360 <__alt_data_end+0xff80b360>
  80b458:	00802074 	movhi	r2,129
  80b45c:	108deb04 	addi	r2,r2,14252
  80b460:	11000017 	ldw	r4,0(r2)
  80b464:	01402074 	movhi	r5,129
  80b468:	00800044 	movi	r2,1
  80b46c:	296cc704 	addi	r5,r5,-19684
  80b470:	8080030d 	sth	r2,12(r16)
  80b474:	080a8800 	call	80a880 <_fwalk>
  80b478:	00800244 	movi	r2,9
  80b47c:	8480030d 	sth	r18,12(r16)
  80b480:	9480024c 	andi	r18,r18,9
  80b484:	90bfd51e 	bne	r18,r2,80b3dc <__alt_data_end+0xff80b3dc>
  80b488:	8809883a 	mov	r4,r17
  80b48c:	800b883a 	mov	r5,r16
  80b490:	080baf80 	call	80baf8 <__sflush_r>
  80b494:	003fd106 	br	80b3dc <__alt_data_end+0xff80b3dc>
  80b498:	18c01014 	ori	r3,r3,64
  80b49c:	80000115 	stw	zero,4(r16)
  80b4a0:	00bfffc4 	movi	r2,-1
  80b4a4:	80c0030d 	sth	r3,12(r16)
  80b4a8:	003fd606 	br	80b404 <__alt_data_end+0xff80b404>
  80b4ac:	80c00e17 	ldw	r3,56(r16)
  80b4b0:	0005883a 	mov	r2,zero
  80b4b4:	80c00015 	stw	r3,0(r16)
  80b4b8:	003fd206 	br	80b404 <__alt_data_end+0xff80b404>
  80b4bc:	8809883a 	mov	r4,r17
  80b4c0:	800b883a 	mov	r5,r16
  80b4c4:	080bd000 	call	80bd00 <_fflush_r>
  80b4c8:	10000a1e 	bne	r2,zero,80b4f4 <__srefill_r+0x1bc>
  80b4cc:	8080030b 	ldhu	r2,12(r16)
  80b4d0:	00fffdc4 	movi	r3,-9
  80b4d4:	80000215 	stw	zero,8(r16)
  80b4d8:	1886703a 	and	r3,r3,r2
  80b4dc:	80000615 	stw	zero,24(r16)
  80b4e0:	003fd206 	br	80b42c <__alt_data_end+0xff80b42c>
  80b4e4:	00800244 	movi	r2,9
  80b4e8:	88800015 	stw	r2,0(r17)
  80b4ec:	18c01014 	ori	r3,r3,64
  80b4f0:	80c0030d 	sth	r3,12(r16)
  80b4f4:	00bfffc4 	movi	r2,-1
  80b4f8:	003fc206 	br	80b404 <__alt_data_end+0xff80b404>
  80b4fc:	8809883a 	mov	r4,r17
  80b500:	800b883a 	mov	r5,r16
  80b504:	080c1fc0 	call	80c1fc <__smakebuf_r>
  80b508:	003fb106 	br	80b3d0 <__alt_data_end+0xff80b3d0>

0080b50c <_sbrk_r>:
  80b50c:	defffd04 	addi	sp,sp,-12
  80b510:	dc000015 	stw	r16,0(sp)
  80b514:	04002074 	movhi	r16,129
  80b518:	dc400115 	stw	r17,4(sp)
  80b51c:	84153804 	addi	r16,r16,21728
  80b520:	2023883a 	mov	r17,r4
  80b524:	2809883a 	mov	r4,r5
  80b528:	dfc00215 	stw	ra,8(sp)
  80b52c:	80000015 	stw	zero,0(r16)
  80b530:	080d0140 	call	80d014 <sbrk>
  80b534:	00ffffc4 	movi	r3,-1
  80b538:	10c00526 	beq	r2,r3,80b550 <_sbrk_r+0x44>
  80b53c:	dfc00217 	ldw	ra,8(sp)
  80b540:	dc400117 	ldw	r17,4(sp)
  80b544:	dc000017 	ldw	r16,0(sp)
  80b548:	dec00304 	addi	sp,sp,12
  80b54c:	f800283a 	ret
  80b550:	80c00017 	ldw	r3,0(r16)
  80b554:	183ff926 	beq	r3,zero,80b53c <__alt_data_end+0xff80b53c>
  80b558:	88c00015 	stw	r3,0(r17)
  80b55c:	003ff706 	br	80b53c <__alt_data_end+0xff80b53c>

0080b560 <__sread>:
  80b560:	defffe04 	addi	sp,sp,-8
  80b564:	dc000015 	stw	r16,0(sp)
  80b568:	2821883a 	mov	r16,r5
  80b56c:	2940038f 	ldh	r5,14(r5)
  80b570:	dfc00115 	stw	ra,4(sp)
  80b574:	080c3b40 	call	80c3b4 <_read_r>
  80b578:	10000716 	blt	r2,zero,80b598 <__sread+0x38>
  80b57c:	80c01417 	ldw	r3,80(r16)
  80b580:	1887883a 	add	r3,r3,r2
  80b584:	80c01415 	stw	r3,80(r16)
  80b588:	dfc00117 	ldw	ra,4(sp)
  80b58c:	dc000017 	ldw	r16,0(sp)
  80b590:	dec00204 	addi	sp,sp,8
  80b594:	f800283a 	ret
  80b598:	80c0030b 	ldhu	r3,12(r16)
  80b59c:	18fbffcc 	andi	r3,r3,61439
  80b5a0:	80c0030d 	sth	r3,12(r16)
  80b5a4:	dfc00117 	ldw	ra,4(sp)
  80b5a8:	dc000017 	ldw	r16,0(sp)
  80b5ac:	dec00204 	addi	sp,sp,8
  80b5b0:	f800283a 	ret

0080b5b4 <__seofread>:
  80b5b4:	0005883a 	mov	r2,zero
  80b5b8:	f800283a 	ret

0080b5bc <__swrite>:
  80b5bc:	2880030b 	ldhu	r2,12(r5)
  80b5c0:	defffb04 	addi	sp,sp,-20
  80b5c4:	dcc00315 	stw	r19,12(sp)
  80b5c8:	dc800215 	stw	r18,8(sp)
  80b5cc:	dc400115 	stw	r17,4(sp)
  80b5d0:	dc000015 	stw	r16,0(sp)
  80b5d4:	dfc00415 	stw	ra,16(sp)
  80b5d8:	10c0400c 	andi	r3,r2,256
  80b5dc:	2821883a 	mov	r16,r5
  80b5e0:	2027883a 	mov	r19,r4
  80b5e4:	3025883a 	mov	r18,r6
  80b5e8:	3823883a 	mov	r17,r7
  80b5ec:	18000526 	beq	r3,zero,80b604 <__swrite+0x48>
  80b5f0:	2940038f 	ldh	r5,14(r5)
  80b5f4:	000d883a 	mov	r6,zero
  80b5f8:	01c00084 	movi	r7,2
  80b5fc:	080c1a00 	call	80c1a0 <_lseek_r>
  80b600:	8080030b 	ldhu	r2,12(r16)
  80b604:	8140038f 	ldh	r5,14(r16)
  80b608:	10bbffcc 	andi	r2,r2,61439
  80b60c:	9809883a 	mov	r4,r19
  80b610:	900d883a 	mov	r6,r18
  80b614:	880f883a 	mov	r7,r17
  80b618:	8080030d 	sth	r2,12(r16)
  80b61c:	dfc00417 	ldw	ra,16(sp)
  80b620:	dcc00317 	ldw	r19,12(sp)
  80b624:	dc800217 	ldw	r18,8(sp)
  80b628:	dc400117 	ldw	r17,4(sp)
  80b62c:	dc000017 	ldw	r16,0(sp)
  80b630:	dec00504 	addi	sp,sp,20
  80b634:	080b7f01 	jmpi	80b7f0 <_write_r>

0080b638 <__sseek>:
  80b638:	defffe04 	addi	sp,sp,-8
  80b63c:	dc000015 	stw	r16,0(sp)
  80b640:	2821883a 	mov	r16,r5
  80b644:	2940038f 	ldh	r5,14(r5)
  80b648:	dfc00115 	stw	ra,4(sp)
  80b64c:	080c1a00 	call	80c1a0 <_lseek_r>
  80b650:	00ffffc4 	movi	r3,-1
  80b654:	10c00826 	beq	r2,r3,80b678 <__sseek+0x40>
  80b658:	80c0030b 	ldhu	r3,12(r16)
  80b65c:	80801415 	stw	r2,80(r16)
  80b660:	18c40014 	ori	r3,r3,4096
  80b664:	80c0030d 	sth	r3,12(r16)
  80b668:	dfc00117 	ldw	ra,4(sp)
  80b66c:	dc000017 	ldw	r16,0(sp)
  80b670:	dec00204 	addi	sp,sp,8
  80b674:	f800283a 	ret
  80b678:	80c0030b 	ldhu	r3,12(r16)
  80b67c:	18fbffcc 	andi	r3,r3,61439
  80b680:	80c0030d 	sth	r3,12(r16)
  80b684:	dfc00117 	ldw	ra,4(sp)
  80b688:	dc000017 	ldw	r16,0(sp)
  80b68c:	dec00204 	addi	sp,sp,8
  80b690:	f800283a 	ret

0080b694 <__sclose>:
  80b694:	2940038f 	ldh	r5,14(r5)
  80b698:	080b9a01 	jmpi	80b9a0 <_close_r>

0080b69c <__swbuf_r>:
  80b69c:	defffc04 	addi	sp,sp,-16
  80b6a0:	dc800215 	stw	r18,8(sp)
  80b6a4:	dc400115 	stw	r17,4(sp)
  80b6a8:	dc000015 	stw	r16,0(sp)
  80b6ac:	dfc00315 	stw	ra,12(sp)
  80b6b0:	2025883a 	mov	r18,r4
  80b6b4:	2823883a 	mov	r17,r5
  80b6b8:	3021883a 	mov	r16,r6
  80b6bc:	20000226 	beq	r4,zero,80b6c8 <__swbuf_r+0x2c>
  80b6c0:	20800e17 	ldw	r2,56(r4)
  80b6c4:	10004126 	beq	r2,zero,80b7cc <__swbuf_r+0x130>
  80b6c8:	80c00617 	ldw	r3,24(r16)
  80b6cc:	8180030b 	ldhu	r6,12(r16)
  80b6d0:	80c00215 	stw	r3,8(r16)
  80b6d4:	30c0020c 	andi	r3,r6,8
  80b6d8:	18003526 	beq	r3,zero,80b7b0 <__swbuf_r+0x114>
  80b6dc:	80c00417 	ldw	r3,16(r16)
  80b6e0:	18003326 	beq	r3,zero,80b7b0 <__swbuf_r+0x114>
  80b6e4:	3088000c 	andi	r2,r6,8192
  80b6e8:	8c403fcc 	andi	r17,r17,255
  80b6ec:	10001726 	beq	r2,zero,80b74c <__swbuf_r+0xb0>
  80b6f0:	80800017 	ldw	r2,0(r16)
  80b6f4:	81000517 	ldw	r4,20(r16)
  80b6f8:	10c7c83a 	sub	r3,r2,r3
  80b6fc:	19001d0e 	bge	r3,r4,80b774 <__swbuf_r+0xd8>
  80b700:	18c00044 	addi	r3,r3,1
  80b704:	81400217 	ldw	r5,8(r16)
  80b708:	11000044 	addi	r4,r2,1
  80b70c:	81000015 	stw	r4,0(r16)
  80b710:	297fffc4 	addi	r5,r5,-1
  80b714:	81400215 	stw	r5,8(r16)
  80b718:	14400005 	stb	r17,0(r2)
  80b71c:	80800517 	ldw	r2,20(r16)
  80b720:	10c01d26 	beq	r2,r3,80b798 <__swbuf_r+0xfc>
  80b724:	8080030b 	ldhu	r2,12(r16)
  80b728:	1080004c 	andi	r2,r2,1
  80b72c:	1000181e 	bne	r2,zero,80b790 <__swbuf_r+0xf4>
  80b730:	8805883a 	mov	r2,r17
  80b734:	dfc00317 	ldw	ra,12(sp)
  80b738:	dc800217 	ldw	r18,8(sp)
  80b73c:	dc400117 	ldw	r17,4(sp)
  80b740:	dc000017 	ldw	r16,0(sp)
  80b744:	dec00404 	addi	sp,sp,16
  80b748:	f800283a 	ret
  80b74c:	81001917 	ldw	r4,100(r16)
  80b750:	00b7ffc4 	movi	r2,-8193
  80b754:	31880014 	ori	r6,r6,8192
  80b758:	2084703a 	and	r2,r4,r2
  80b75c:	80801915 	stw	r2,100(r16)
  80b760:	80800017 	ldw	r2,0(r16)
  80b764:	81000517 	ldw	r4,20(r16)
  80b768:	8180030d 	sth	r6,12(r16)
  80b76c:	10c7c83a 	sub	r3,r2,r3
  80b770:	193fe316 	blt	r3,r4,80b700 <__alt_data_end+0xff80b700>
  80b774:	9009883a 	mov	r4,r18
  80b778:	800b883a 	mov	r5,r16
  80b77c:	080bd000 	call	80bd00 <_fflush_r>
  80b780:	1000091e 	bne	r2,zero,80b7a8 <__swbuf_r+0x10c>
  80b784:	80800017 	ldw	r2,0(r16)
  80b788:	00c00044 	movi	r3,1
  80b78c:	003fdd06 	br	80b704 <__alt_data_end+0xff80b704>
  80b790:	00800284 	movi	r2,10
  80b794:	88bfe61e 	bne	r17,r2,80b730 <__alt_data_end+0xff80b730>
  80b798:	9009883a 	mov	r4,r18
  80b79c:	800b883a 	mov	r5,r16
  80b7a0:	080bd000 	call	80bd00 <_fflush_r>
  80b7a4:	103fe226 	beq	r2,zero,80b730 <__alt_data_end+0xff80b730>
  80b7a8:	00bfffc4 	movi	r2,-1
  80b7ac:	003fe106 	br	80b734 <__alt_data_end+0xff80b734>
  80b7b0:	9009883a 	mov	r4,r18
  80b7b4:	800b883a 	mov	r5,r16
  80b7b8:	080b84c0 	call	80b84c <__swsetup_r>
  80b7bc:	103ffa1e 	bne	r2,zero,80b7a8 <__alt_data_end+0xff80b7a8>
  80b7c0:	8180030b 	ldhu	r6,12(r16)
  80b7c4:	80c00417 	ldw	r3,16(r16)
  80b7c8:	003fc606 	br	80b6e4 <__alt_data_end+0xff80b6e4>
  80b7cc:	080a8300 	call	80a830 <__sinit>
  80b7d0:	003fbd06 	br	80b6c8 <__alt_data_end+0xff80b6c8>

0080b7d4 <__swbuf>:
  80b7d4:	00c02074 	movhi	r3,129
  80b7d8:	18cdec04 	addi	r3,r3,14256
  80b7dc:	2005883a 	mov	r2,r4
  80b7e0:	19000017 	ldw	r4,0(r3)
  80b7e4:	280d883a 	mov	r6,r5
  80b7e8:	100b883a 	mov	r5,r2
  80b7ec:	080b69c1 	jmpi	80b69c <__swbuf_r>

0080b7f0 <_write_r>:
  80b7f0:	defffd04 	addi	sp,sp,-12
  80b7f4:	dc000015 	stw	r16,0(sp)
  80b7f8:	04002074 	movhi	r16,129
  80b7fc:	dc400115 	stw	r17,4(sp)
  80b800:	84153804 	addi	r16,r16,21728
  80b804:	2023883a 	mov	r17,r4
  80b808:	2809883a 	mov	r4,r5
  80b80c:	300b883a 	mov	r5,r6
  80b810:	380d883a 	mov	r6,r7
  80b814:	dfc00215 	stw	ra,8(sp)
  80b818:	80000015 	stw	zero,0(r16)
  80b81c:	080d2b00 	call	80d2b0 <write>
  80b820:	00ffffc4 	movi	r3,-1
  80b824:	10c00526 	beq	r2,r3,80b83c <_write_r+0x4c>
  80b828:	dfc00217 	ldw	ra,8(sp)
  80b82c:	dc400117 	ldw	r17,4(sp)
  80b830:	dc000017 	ldw	r16,0(sp)
  80b834:	dec00304 	addi	sp,sp,12
  80b838:	f800283a 	ret
  80b83c:	80c00017 	ldw	r3,0(r16)
  80b840:	183ff926 	beq	r3,zero,80b828 <__alt_data_end+0xff80b828>
  80b844:	88c00015 	stw	r3,0(r17)
  80b848:	003ff706 	br	80b828 <__alt_data_end+0xff80b828>

0080b84c <__swsetup_r>:
  80b84c:	00802074 	movhi	r2,129
  80b850:	defffd04 	addi	sp,sp,-12
  80b854:	108dec04 	addi	r2,r2,14256
  80b858:	dc400115 	stw	r17,4(sp)
  80b85c:	2023883a 	mov	r17,r4
  80b860:	11000017 	ldw	r4,0(r2)
  80b864:	dc000015 	stw	r16,0(sp)
  80b868:	dfc00215 	stw	ra,8(sp)
  80b86c:	2821883a 	mov	r16,r5
  80b870:	20000226 	beq	r4,zero,80b87c <__swsetup_r+0x30>
  80b874:	20c00e17 	ldw	r3,56(r4)
  80b878:	18003126 	beq	r3,zero,80b940 <__swsetup_r+0xf4>
  80b87c:	8080030b 	ldhu	r2,12(r16)
  80b880:	10c0020c 	andi	r3,r2,8
  80b884:	100d883a 	mov	r6,r2
  80b888:	18000f26 	beq	r3,zero,80b8c8 <__swsetup_r+0x7c>
  80b88c:	80c00417 	ldw	r3,16(r16)
  80b890:	18001526 	beq	r3,zero,80b8e8 <__swsetup_r+0x9c>
  80b894:	1100004c 	andi	r4,r2,1
  80b898:	20001c1e 	bne	r4,zero,80b90c <__swsetup_r+0xc0>
  80b89c:	1080008c 	andi	r2,r2,2
  80b8a0:	1000291e 	bne	r2,zero,80b948 <__swsetup_r+0xfc>
  80b8a4:	80800517 	ldw	r2,20(r16)
  80b8a8:	80800215 	stw	r2,8(r16)
  80b8ac:	18001c26 	beq	r3,zero,80b920 <__swsetup_r+0xd4>
  80b8b0:	0005883a 	mov	r2,zero
  80b8b4:	dfc00217 	ldw	ra,8(sp)
  80b8b8:	dc400117 	ldw	r17,4(sp)
  80b8bc:	dc000017 	ldw	r16,0(sp)
  80b8c0:	dec00304 	addi	sp,sp,12
  80b8c4:	f800283a 	ret
  80b8c8:	3080040c 	andi	r2,r6,16
  80b8cc:	10002e26 	beq	r2,zero,80b988 <__swsetup_r+0x13c>
  80b8d0:	3080010c 	andi	r2,r6,4
  80b8d4:	10001e1e 	bne	r2,zero,80b950 <__swsetup_r+0x104>
  80b8d8:	80c00417 	ldw	r3,16(r16)
  80b8dc:	30800214 	ori	r2,r6,8
  80b8e0:	8080030d 	sth	r2,12(r16)
  80b8e4:	183feb1e 	bne	r3,zero,80b894 <__alt_data_end+0xff80b894>
  80b8e8:	1140a00c 	andi	r5,r2,640
  80b8ec:	01008004 	movi	r4,512
  80b8f0:	293fe826 	beq	r5,r4,80b894 <__alt_data_end+0xff80b894>
  80b8f4:	8809883a 	mov	r4,r17
  80b8f8:	800b883a 	mov	r5,r16
  80b8fc:	080c1fc0 	call	80c1fc <__smakebuf_r>
  80b900:	8080030b 	ldhu	r2,12(r16)
  80b904:	80c00417 	ldw	r3,16(r16)
  80b908:	003fe206 	br	80b894 <__alt_data_end+0xff80b894>
  80b90c:	80800517 	ldw	r2,20(r16)
  80b910:	80000215 	stw	zero,8(r16)
  80b914:	0085c83a 	sub	r2,zero,r2
  80b918:	80800615 	stw	r2,24(r16)
  80b91c:	183fe41e 	bne	r3,zero,80b8b0 <__alt_data_end+0xff80b8b0>
  80b920:	80c0030b 	ldhu	r3,12(r16)
  80b924:	0005883a 	mov	r2,zero
  80b928:	1900200c 	andi	r4,r3,128
  80b92c:	203fe126 	beq	r4,zero,80b8b4 <__alt_data_end+0xff80b8b4>
  80b930:	18c01014 	ori	r3,r3,64
  80b934:	80c0030d 	sth	r3,12(r16)
  80b938:	00bfffc4 	movi	r2,-1
  80b93c:	003fdd06 	br	80b8b4 <__alt_data_end+0xff80b8b4>
  80b940:	080a8300 	call	80a830 <__sinit>
  80b944:	003fcd06 	br	80b87c <__alt_data_end+0xff80b87c>
  80b948:	0005883a 	mov	r2,zero
  80b94c:	003fd606 	br	80b8a8 <__alt_data_end+0xff80b8a8>
  80b950:	81400c17 	ldw	r5,48(r16)
  80b954:	28000626 	beq	r5,zero,80b970 <__swsetup_r+0x124>
  80b958:	80801004 	addi	r2,r16,64
  80b95c:	28800326 	beq	r5,r2,80b96c <__swsetup_r+0x120>
  80b960:	8809883a 	mov	r4,r17
  80b964:	080beb00 	call	80beb0 <_free_r>
  80b968:	8180030b 	ldhu	r6,12(r16)
  80b96c:	80000c15 	stw	zero,48(r16)
  80b970:	80c00417 	ldw	r3,16(r16)
  80b974:	00bff6c4 	movi	r2,-37
  80b978:	118c703a 	and	r6,r2,r6
  80b97c:	80000115 	stw	zero,4(r16)
  80b980:	80c00015 	stw	r3,0(r16)
  80b984:	003fd506 	br	80b8dc <__alt_data_end+0xff80b8dc>
  80b988:	00800244 	movi	r2,9
  80b98c:	88800015 	stw	r2,0(r17)
  80b990:	30801014 	ori	r2,r6,64
  80b994:	8080030d 	sth	r2,12(r16)
  80b998:	00bfffc4 	movi	r2,-1
  80b99c:	003fc506 	br	80b8b4 <__alt_data_end+0xff80b8b4>

0080b9a0 <_close_r>:
  80b9a0:	defffd04 	addi	sp,sp,-12
  80b9a4:	dc000015 	stw	r16,0(sp)
  80b9a8:	04002074 	movhi	r16,129
  80b9ac:	dc400115 	stw	r17,4(sp)
  80b9b0:	84153804 	addi	r16,r16,21728
  80b9b4:	2023883a 	mov	r17,r4
  80b9b8:	2809883a 	mov	r4,r5
  80b9bc:	dfc00215 	stw	ra,8(sp)
  80b9c0:	80000015 	stw	zero,0(r16)
  80b9c4:	080c64c0 	call	80c64c <close>
  80b9c8:	00ffffc4 	movi	r3,-1
  80b9cc:	10c00526 	beq	r2,r3,80b9e4 <_close_r+0x44>
  80b9d0:	dfc00217 	ldw	ra,8(sp)
  80b9d4:	dc400117 	ldw	r17,4(sp)
  80b9d8:	dc000017 	ldw	r16,0(sp)
  80b9dc:	dec00304 	addi	sp,sp,12
  80b9e0:	f800283a 	ret
  80b9e4:	80c00017 	ldw	r3,0(r16)
  80b9e8:	183ff926 	beq	r3,zero,80b9d0 <__alt_data_end+0xff80b9d0>
  80b9ec:	88c00015 	stw	r3,0(r17)
  80b9f0:	003ff706 	br	80b9d0 <__alt_data_end+0xff80b9d0>

0080b9f4 <_fclose_r>:
  80b9f4:	28003926 	beq	r5,zero,80badc <_fclose_r+0xe8>
  80b9f8:	defffc04 	addi	sp,sp,-16
  80b9fc:	dc400115 	stw	r17,4(sp)
  80ba00:	dc000015 	stw	r16,0(sp)
  80ba04:	dfc00315 	stw	ra,12(sp)
  80ba08:	dc800215 	stw	r18,8(sp)
  80ba0c:	2023883a 	mov	r17,r4
  80ba10:	2821883a 	mov	r16,r5
  80ba14:	20000226 	beq	r4,zero,80ba20 <_fclose_r+0x2c>
  80ba18:	20800e17 	ldw	r2,56(r4)
  80ba1c:	10002726 	beq	r2,zero,80babc <_fclose_r+0xc8>
  80ba20:	8080030f 	ldh	r2,12(r16)
  80ba24:	1000071e 	bne	r2,zero,80ba44 <_fclose_r+0x50>
  80ba28:	0005883a 	mov	r2,zero
  80ba2c:	dfc00317 	ldw	ra,12(sp)
  80ba30:	dc800217 	ldw	r18,8(sp)
  80ba34:	dc400117 	ldw	r17,4(sp)
  80ba38:	dc000017 	ldw	r16,0(sp)
  80ba3c:	dec00404 	addi	sp,sp,16
  80ba40:	f800283a 	ret
  80ba44:	8809883a 	mov	r4,r17
  80ba48:	800b883a 	mov	r5,r16
  80ba4c:	080baf80 	call	80baf8 <__sflush_r>
  80ba50:	1025883a 	mov	r18,r2
  80ba54:	80800b17 	ldw	r2,44(r16)
  80ba58:	10000426 	beq	r2,zero,80ba6c <_fclose_r+0x78>
  80ba5c:	81400717 	ldw	r5,28(r16)
  80ba60:	8809883a 	mov	r4,r17
  80ba64:	103ee83a 	callr	r2
  80ba68:	10001616 	blt	r2,zero,80bac4 <_fclose_r+0xd0>
  80ba6c:	8080030b 	ldhu	r2,12(r16)
  80ba70:	1080200c 	andi	r2,r2,128
  80ba74:	1000151e 	bne	r2,zero,80bacc <_fclose_r+0xd8>
  80ba78:	81400c17 	ldw	r5,48(r16)
  80ba7c:	28000526 	beq	r5,zero,80ba94 <_fclose_r+0xa0>
  80ba80:	80801004 	addi	r2,r16,64
  80ba84:	28800226 	beq	r5,r2,80ba90 <_fclose_r+0x9c>
  80ba88:	8809883a 	mov	r4,r17
  80ba8c:	080beb00 	call	80beb0 <_free_r>
  80ba90:	80000c15 	stw	zero,48(r16)
  80ba94:	81401117 	ldw	r5,68(r16)
  80ba98:	28000326 	beq	r5,zero,80baa8 <_fclose_r+0xb4>
  80ba9c:	8809883a 	mov	r4,r17
  80baa0:	080beb00 	call	80beb0 <_free_r>
  80baa4:	80001115 	stw	zero,68(r16)
  80baa8:	080a8400 	call	80a840 <__sfp_lock_acquire>
  80baac:	8000030d 	sth	zero,12(r16)
  80bab0:	080a8440 	call	80a844 <__sfp_lock_release>
  80bab4:	9005883a 	mov	r2,r18
  80bab8:	003fdc06 	br	80ba2c <__alt_data_end+0xff80ba2c>
  80babc:	080a8300 	call	80a830 <__sinit>
  80bac0:	003fd706 	br	80ba20 <__alt_data_end+0xff80ba20>
  80bac4:	04bfffc4 	movi	r18,-1
  80bac8:	003fe806 	br	80ba6c <__alt_data_end+0xff80ba6c>
  80bacc:	81400417 	ldw	r5,16(r16)
  80bad0:	8809883a 	mov	r4,r17
  80bad4:	080beb00 	call	80beb0 <_free_r>
  80bad8:	003fe706 	br	80ba78 <__alt_data_end+0xff80ba78>
  80badc:	0005883a 	mov	r2,zero
  80bae0:	f800283a 	ret

0080bae4 <fclose>:
  80bae4:	00802074 	movhi	r2,129
  80bae8:	108dec04 	addi	r2,r2,14256
  80baec:	200b883a 	mov	r5,r4
  80baf0:	11000017 	ldw	r4,0(r2)
  80baf4:	080b9f41 	jmpi	80b9f4 <_fclose_r>

0080baf8 <__sflush_r>:
  80baf8:	2880030b 	ldhu	r2,12(r5)
  80bafc:	defffb04 	addi	sp,sp,-20
  80bb00:	dcc00315 	stw	r19,12(sp)
  80bb04:	dc400115 	stw	r17,4(sp)
  80bb08:	dfc00415 	stw	ra,16(sp)
  80bb0c:	dc800215 	stw	r18,8(sp)
  80bb10:	dc000015 	stw	r16,0(sp)
  80bb14:	10c0020c 	andi	r3,r2,8
  80bb18:	2823883a 	mov	r17,r5
  80bb1c:	2027883a 	mov	r19,r4
  80bb20:	1800311e 	bne	r3,zero,80bbe8 <__sflush_r+0xf0>
  80bb24:	28c00117 	ldw	r3,4(r5)
  80bb28:	10820014 	ori	r2,r2,2048
  80bb2c:	2880030d 	sth	r2,12(r5)
  80bb30:	00c04b0e 	bge	zero,r3,80bc60 <__sflush_r+0x168>
  80bb34:	8a000a17 	ldw	r8,40(r17)
  80bb38:	40002326 	beq	r8,zero,80bbc8 <__sflush_r+0xd0>
  80bb3c:	9c000017 	ldw	r16,0(r19)
  80bb40:	10c4000c 	andi	r3,r2,4096
  80bb44:	98000015 	stw	zero,0(r19)
  80bb48:	18004826 	beq	r3,zero,80bc6c <__sflush_r+0x174>
  80bb4c:	89801417 	ldw	r6,80(r17)
  80bb50:	10c0010c 	andi	r3,r2,4
  80bb54:	18000626 	beq	r3,zero,80bb70 <__sflush_r+0x78>
  80bb58:	88c00117 	ldw	r3,4(r17)
  80bb5c:	88800c17 	ldw	r2,48(r17)
  80bb60:	30cdc83a 	sub	r6,r6,r3
  80bb64:	10000226 	beq	r2,zero,80bb70 <__sflush_r+0x78>
  80bb68:	88800f17 	ldw	r2,60(r17)
  80bb6c:	308dc83a 	sub	r6,r6,r2
  80bb70:	89400717 	ldw	r5,28(r17)
  80bb74:	9809883a 	mov	r4,r19
  80bb78:	000f883a 	mov	r7,zero
  80bb7c:	403ee83a 	callr	r8
  80bb80:	00ffffc4 	movi	r3,-1
  80bb84:	10c04426 	beq	r2,r3,80bc98 <__sflush_r+0x1a0>
  80bb88:	88c0030b 	ldhu	r3,12(r17)
  80bb8c:	89000417 	ldw	r4,16(r17)
  80bb90:	88000115 	stw	zero,4(r17)
  80bb94:	197dffcc 	andi	r5,r3,63487
  80bb98:	8940030d 	sth	r5,12(r17)
  80bb9c:	89000015 	stw	r4,0(r17)
  80bba0:	18c4000c 	andi	r3,r3,4096
  80bba4:	18002c1e 	bne	r3,zero,80bc58 <__sflush_r+0x160>
  80bba8:	89400c17 	ldw	r5,48(r17)
  80bbac:	9c000015 	stw	r16,0(r19)
  80bbb0:	28000526 	beq	r5,zero,80bbc8 <__sflush_r+0xd0>
  80bbb4:	88801004 	addi	r2,r17,64
  80bbb8:	28800226 	beq	r5,r2,80bbc4 <__sflush_r+0xcc>
  80bbbc:	9809883a 	mov	r4,r19
  80bbc0:	080beb00 	call	80beb0 <_free_r>
  80bbc4:	88000c15 	stw	zero,48(r17)
  80bbc8:	0005883a 	mov	r2,zero
  80bbcc:	dfc00417 	ldw	ra,16(sp)
  80bbd0:	dcc00317 	ldw	r19,12(sp)
  80bbd4:	dc800217 	ldw	r18,8(sp)
  80bbd8:	dc400117 	ldw	r17,4(sp)
  80bbdc:	dc000017 	ldw	r16,0(sp)
  80bbe0:	dec00504 	addi	sp,sp,20
  80bbe4:	f800283a 	ret
  80bbe8:	2c800417 	ldw	r18,16(r5)
  80bbec:	903ff626 	beq	r18,zero,80bbc8 <__alt_data_end+0xff80bbc8>
  80bbf0:	2c000017 	ldw	r16,0(r5)
  80bbf4:	108000cc 	andi	r2,r2,3
  80bbf8:	2c800015 	stw	r18,0(r5)
  80bbfc:	84a1c83a 	sub	r16,r16,r18
  80bc00:	1000131e 	bne	r2,zero,80bc50 <__sflush_r+0x158>
  80bc04:	28800517 	ldw	r2,20(r5)
  80bc08:	88800215 	stw	r2,8(r17)
  80bc0c:	04000316 	blt	zero,r16,80bc1c <__sflush_r+0x124>
  80bc10:	003fed06 	br	80bbc8 <__alt_data_end+0xff80bbc8>
  80bc14:	90a5883a 	add	r18,r18,r2
  80bc18:	043feb0e 	bge	zero,r16,80bbc8 <__alt_data_end+0xff80bbc8>
  80bc1c:	88800917 	ldw	r2,36(r17)
  80bc20:	89400717 	ldw	r5,28(r17)
  80bc24:	800f883a 	mov	r7,r16
  80bc28:	900d883a 	mov	r6,r18
  80bc2c:	9809883a 	mov	r4,r19
  80bc30:	103ee83a 	callr	r2
  80bc34:	80a1c83a 	sub	r16,r16,r2
  80bc38:	00bff616 	blt	zero,r2,80bc14 <__alt_data_end+0xff80bc14>
  80bc3c:	88c0030b 	ldhu	r3,12(r17)
  80bc40:	00bfffc4 	movi	r2,-1
  80bc44:	18c01014 	ori	r3,r3,64
  80bc48:	88c0030d 	sth	r3,12(r17)
  80bc4c:	003fdf06 	br	80bbcc <__alt_data_end+0xff80bbcc>
  80bc50:	0005883a 	mov	r2,zero
  80bc54:	003fec06 	br	80bc08 <__alt_data_end+0xff80bc08>
  80bc58:	88801415 	stw	r2,80(r17)
  80bc5c:	003fd206 	br	80bba8 <__alt_data_end+0xff80bba8>
  80bc60:	28c00f17 	ldw	r3,60(r5)
  80bc64:	00ffb316 	blt	zero,r3,80bb34 <__alt_data_end+0xff80bb34>
  80bc68:	003fd706 	br	80bbc8 <__alt_data_end+0xff80bbc8>
  80bc6c:	89400717 	ldw	r5,28(r17)
  80bc70:	000d883a 	mov	r6,zero
  80bc74:	9809883a 	mov	r4,r19
  80bc78:	01c00044 	movi	r7,1
  80bc7c:	403ee83a 	callr	r8
  80bc80:	100d883a 	mov	r6,r2
  80bc84:	00bfffc4 	movi	r2,-1
  80bc88:	30801426 	beq	r6,r2,80bcdc <__sflush_r+0x1e4>
  80bc8c:	8880030b 	ldhu	r2,12(r17)
  80bc90:	8a000a17 	ldw	r8,40(r17)
  80bc94:	003fae06 	br	80bb50 <__alt_data_end+0xff80bb50>
  80bc98:	98c00017 	ldw	r3,0(r19)
  80bc9c:	183fba26 	beq	r3,zero,80bb88 <__alt_data_end+0xff80bb88>
  80bca0:	01000744 	movi	r4,29
  80bca4:	19000626 	beq	r3,r4,80bcc0 <__sflush_r+0x1c8>
  80bca8:	01000584 	movi	r4,22
  80bcac:	19000426 	beq	r3,r4,80bcc0 <__sflush_r+0x1c8>
  80bcb0:	88c0030b 	ldhu	r3,12(r17)
  80bcb4:	18c01014 	ori	r3,r3,64
  80bcb8:	88c0030d 	sth	r3,12(r17)
  80bcbc:	003fc306 	br	80bbcc <__alt_data_end+0xff80bbcc>
  80bcc0:	8880030b 	ldhu	r2,12(r17)
  80bcc4:	88c00417 	ldw	r3,16(r17)
  80bcc8:	88000115 	stw	zero,4(r17)
  80bccc:	10bdffcc 	andi	r2,r2,63487
  80bcd0:	8880030d 	sth	r2,12(r17)
  80bcd4:	88c00015 	stw	r3,0(r17)
  80bcd8:	003fb306 	br	80bba8 <__alt_data_end+0xff80bba8>
  80bcdc:	98800017 	ldw	r2,0(r19)
  80bce0:	103fea26 	beq	r2,zero,80bc8c <__alt_data_end+0xff80bc8c>
  80bce4:	00c00744 	movi	r3,29
  80bce8:	10c00226 	beq	r2,r3,80bcf4 <__sflush_r+0x1fc>
  80bcec:	00c00584 	movi	r3,22
  80bcf0:	10ffd21e 	bne	r2,r3,80bc3c <__alt_data_end+0xff80bc3c>
  80bcf4:	9c000015 	stw	r16,0(r19)
  80bcf8:	0005883a 	mov	r2,zero
  80bcfc:	003fb306 	br	80bbcc <__alt_data_end+0xff80bbcc>

0080bd00 <_fflush_r>:
  80bd00:	defffd04 	addi	sp,sp,-12
  80bd04:	dc000115 	stw	r16,4(sp)
  80bd08:	dfc00215 	stw	ra,8(sp)
  80bd0c:	2021883a 	mov	r16,r4
  80bd10:	20000226 	beq	r4,zero,80bd1c <_fflush_r+0x1c>
  80bd14:	20800e17 	ldw	r2,56(r4)
  80bd18:	10000c26 	beq	r2,zero,80bd4c <_fflush_r+0x4c>
  80bd1c:	2880030f 	ldh	r2,12(r5)
  80bd20:	1000051e 	bne	r2,zero,80bd38 <_fflush_r+0x38>
  80bd24:	0005883a 	mov	r2,zero
  80bd28:	dfc00217 	ldw	ra,8(sp)
  80bd2c:	dc000117 	ldw	r16,4(sp)
  80bd30:	dec00304 	addi	sp,sp,12
  80bd34:	f800283a 	ret
  80bd38:	8009883a 	mov	r4,r16
  80bd3c:	dfc00217 	ldw	ra,8(sp)
  80bd40:	dc000117 	ldw	r16,4(sp)
  80bd44:	dec00304 	addi	sp,sp,12
  80bd48:	080baf81 	jmpi	80baf8 <__sflush_r>
  80bd4c:	d9400015 	stw	r5,0(sp)
  80bd50:	080a8300 	call	80a830 <__sinit>
  80bd54:	d9400017 	ldw	r5,0(sp)
  80bd58:	003ff006 	br	80bd1c <__alt_data_end+0xff80bd1c>

0080bd5c <fflush>:
  80bd5c:	20000526 	beq	r4,zero,80bd74 <fflush+0x18>
  80bd60:	00802074 	movhi	r2,129
  80bd64:	108dec04 	addi	r2,r2,14256
  80bd68:	200b883a 	mov	r5,r4
  80bd6c:	11000017 	ldw	r4,0(r2)
  80bd70:	080bd001 	jmpi	80bd00 <_fflush_r>
  80bd74:	00802074 	movhi	r2,129
  80bd78:	108deb04 	addi	r2,r2,14252
  80bd7c:	11000017 	ldw	r4,0(r2)
  80bd80:	01402074 	movhi	r5,129
  80bd84:	296f4004 	addi	r5,r5,-17152
  80bd88:	080a9441 	jmpi	80a944 <_fwalk_reent>

0080bd8c <_malloc_trim_r>:
  80bd8c:	defffb04 	addi	sp,sp,-20
  80bd90:	dcc00315 	stw	r19,12(sp)
  80bd94:	04c02074 	movhi	r19,129
  80bd98:	dc800215 	stw	r18,8(sp)
  80bd9c:	dc400115 	stw	r17,4(sp)
  80bda0:	dc000015 	stw	r16,0(sp)
  80bda4:	dfc00415 	stw	ra,16(sp)
  80bda8:	2821883a 	mov	r16,r5
  80bdac:	9cc7d404 	addi	r19,r19,8016
  80bdb0:	2025883a 	mov	r18,r4
  80bdb4:	080cbbc0 	call	80cbbc <__malloc_lock>
  80bdb8:	98800217 	ldw	r2,8(r19)
  80bdbc:	14400117 	ldw	r17,4(r2)
  80bdc0:	00bfff04 	movi	r2,-4
  80bdc4:	88a2703a 	and	r17,r17,r2
  80bdc8:	8c21c83a 	sub	r16,r17,r16
  80bdcc:	8403fbc4 	addi	r16,r16,4079
  80bdd0:	8020d33a 	srli	r16,r16,12
  80bdd4:	0083ffc4 	movi	r2,4095
  80bdd8:	843fffc4 	addi	r16,r16,-1
  80bddc:	8020933a 	slli	r16,r16,12
  80bde0:	1400060e 	bge	r2,r16,80bdfc <_malloc_trim_r+0x70>
  80bde4:	9009883a 	mov	r4,r18
  80bde8:	000b883a 	mov	r5,zero
  80bdec:	080b50c0 	call	80b50c <_sbrk_r>
  80bdf0:	98c00217 	ldw	r3,8(r19)
  80bdf4:	1c47883a 	add	r3,r3,r17
  80bdf8:	10c00a26 	beq	r2,r3,80be24 <_malloc_trim_r+0x98>
  80bdfc:	9009883a 	mov	r4,r18
  80be00:	080cbdc0 	call	80cbdc <__malloc_unlock>
  80be04:	0005883a 	mov	r2,zero
  80be08:	dfc00417 	ldw	ra,16(sp)
  80be0c:	dcc00317 	ldw	r19,12(sp)
  80be10:	dc800217 	ldw	r18,8(sp)
  80be14:	dc400117 	ldw	r17,4(sp)
  80be18:	dc000017 	ldw	r16,0(sp)
  80be1c:	dec00504 	addi	sp,sp,20
  80be20:	f800283a 	ret
  80be24:	9009883a 	mov	r4,r18
  80be28:	040bc83a 	sub	r5,zero,r16
  80be2c:	080b50c0 	call	80b50c <_sbrk_r>
  80be30:	00ffffc4 	movi	r3,-1
  80be34:	10c00d26 	beq	r2,r3,80be6c <_malloc_trim_r+0xe0>
  80be38:	00c02074 	movhi	r3,129
  80be3c:	18d54604 	addi	r3,r3,21784
  80be40:	18800017 	ldw	r2,0(r3)
  80be44:	99000217 	ldw	r4,8(r19)
  80be48:	8c23c83a 	sub	r17,r17,r16
  80be4c:	8c400054 	ori	r17,r17,1
  80be50:	1421c83a 	sub	r16,r2,r16
  80be54:	24400115 	stw	r17,4(r4)
  80be58:	9009883a 	mov	r4,r18
  80be5c:	1c000015 	stw	r16,0(r3)
  80be60:	080cbdc0 	call	80cbdc <__malloc_unlock>
  80be64:	00800044 	movi	r2,1
  80be68:	003fe706 	br	80be08 <__alt_data_end+0xff80be08>
  80be6c:	9009883a 	mov	r4,r18
  80be70:	000b883a 	mov	r5,zero
  80be74:	080b50c0 	call	80b50c <_sbrk_r>
  80be78:	99000217 	ldw	r4,8(r19)
  80be7c:	014003c4 	movi	r5,15
  80be80:	1107c83a 	sub	r3,r2,r4
  80be84:	28ffdd0e 	bge	r5,r3,80bdfc <__alt_data_end+0xff80bdfc>
  80be88:	01402074 	movhi	r5,129
  80be8c:	294ded04 	addi	r5,r5,14260
  80be90:	29400017 	ldw	r5,0(r5)
  80be94:	18c00054 	ori	r3,r3,1
  80be98:	20c00115 	stw	r3,4(r4)
  80be9c:	00c02074 	movhi	r3,129
  80bea0:	1145c83a 	sub	r2,r2,r5
  80bea4:	18d54604 	addi	r3,r3,21784
  80bea8:	18800015 	stw	r2,0(r3)
  80beac:	003fd306 	br	80bdfc <__alt_data_end+0xff80bdfc>

0080beb0 <_free_r>:
  80beb0:	28004c26 	beq	r5,zero,80bfe4 <_free_r+0x134>
  80beb4:	defffd04 	addi	sp,sp,-12
  80beb8:	dc400115 	stw	r17,4(sp)
  80bebc:	dc000015 	stw	r16,0(sp)
  80bec0:	2023883a 	mov	r17,r4
  80bec4:	2821883a 	mov	r16,r5
  80bec8:	dfc00215 	stw	ra,8(sp)
  80becc:	080cbbc0 	call	80cbbc <__malloc_lock>
  80bed0:	813fff17 	ldw	r4,-4(r16)
  80bed4:	00bfff84 	movi	r2,-2
  80bed8:	02402074 	movhi	r9,129
  80bedc:	81bffe04 	addi	r6,r16,-8
  80bee0:	2084703a 	and	r2,r4,r2
  80bee4:	4a47d404 	addi	r9,r9,8016
  80bee8:	308b883a 	add	r5,r6,r2
  80beec:	2a000117 	ldw	r8,4(r5)
  80bef0:	49c00217 	ldw	r7,8(r9)
  80bef4:	00ffff04 	movi	r3,-4
  80bef8:	40c6703a 	and	r3,r8,r3
  80befc:	39405326 	beq	r7,r5,80c04c <_free_r+0x19c>
  80bf00:	28c00115 	stw	r3,4(r5)
  80bf04:	2100004c 	andi	r4,r4,1
  80bf08:	2000091e 	bne	r4,zero,80bf30 <_free_r+0x80>
  80bf0c:	81fffe17 	ldw	r7,-8(r16)
  80bf10:	4a000204 	addi	r8,r9,8
  80bf14:	31cdc83a 	sub	r6,r6,r7
  80bf18:	31000217 	ldw	r4,8(r6)
  80bf1c:	11c5883a 	add	r2,r2,r7
  80bf20:	22006126 	beq	r4,r8,80c0a8 <_free_r+0x1f8>
  80bf24:	31c00317 	ldw	r7,12(r6)
  80bf28:	21c00315 	stw	r7,12(r4)
  80bf2c:	39000215 	stw	r4,8(r7)
  80bf30:	28c9883a 	add	r4,r5,r3
  80bf34:	21c00117 	ldw	r7,4(r4)
  80bf38:	39c0004c 	andi	r7,r7,1
  80bf3c:	38000d1e 	bne	r7,zero,80bf74 <_free_r+0xc4>
  80bf40:	29000217 	ldw	r4,8(r5)
  80bf44:	10c5883a 	add	r2,r2,r3
  80bf48:	00c02074 	movhi	r3,129
  80bf4c:	18c7d604 	addi	r3,r3,8024
  80bf50:	20c07526 	beq	r4,r3,80c128 <_free_r+0x278>
  80bf54:	29c00317 	ldw	r7,12(r5)
  80bf58:	11400054 	ori	r5,r2,1
  80bf5c:	3087883a 	add	r3,r6,r2
  80bf60:	21c00315 	stw	r7,12(r4)
  80bf64:	39000215 	stw	r4,8(r7)
  80bf68:	31400115 	stw	r5,4(r6)
  80bf6c:	18800015 	stw	r2,0(r3)
  80bf70:	00000406 	br	80bf84 <_free_r+0xd4>
  80bf74:	10c00054 	ori	r3,r2,1
  80bf78:	30c00115 	stw	r3,4(r6)
  80bf7c:	3087883a 	add	r3,r6,r2
  80bf80:	18800015 	stw	r2,0(r3)
  80bf84:	00c07fc4 	movi	r3,511
  80bf88:	18801736 	bltu	r3,r2,80bfe8 <_free_r+0x138>
  80bf8c:	1004d0fa 	srli	r2,r2,3
  80bf90:	01400044 	movi	r5,1
  80bf94:	49000117 	ldw	r4,4(r9)
  80bf98:	1087883a 	add	r3,r2,r2
  80bf9c:	18c7883a 	add	r3,r3,r3
  80bfa0:	1005d0ba 	srai	r2,r2,2
  80bfa4:	18c7883a 	add	r3,r3,r3
  80bfa8:	1a47883a 	add	r3,r3,r9
  80bfac:	19c00217 	ldw	r7,8(r3)
  80bfb0:	2884983a 	sll	r2,r5,r2
  80bfb4:	30c00315 	stw	r3,12(r6)
  80bfb8:	31c00215 	stw	r7,8(r6)
  80bfbc:	1104b03a 	or	r2,r2,r4
  80bfc0:	19800215 	stw	r6,8(r3)
  80bfc4:	48800115 	stw	r2,4(r9)
  80bfc8:	39800315 	stw	r6,12(r7)
  80bfcc:	8809883a 	mov	r4,r17
  80bfd0:	dfc00217 	ldw	ra,8(sp)
  80bfd4:	dc400117 	ldw	r17,4(sp)
  80bfd8:	dc000017 	ldw	r16,0(sp)
  80bfdc:	dec00304 	addi	sp,sp,12
  80bfe0:	080cbdc1 	jmpi	80cbdc <__malloc_unlock>
  80bfe4:	f800283a 	ret
  80bfe8:	1006d27a 	srli	r3,r2,9
  80bfec:	01000104 	movi	r4,4
  80bff0:	20c04036 	bltu	r4,r3,80c0f4 <_free_r+0x244>
  80bff4:	1006d1ba 	srli	r3,r2,6
  80bff8:	19400e04 	addi	r5,r3,56
  80bffc:	2947883a 	add	r3,r5,r5
  80c000:	18c7883a 	add	r3,r3,r3
  80c004:	18c7883a 	add	r3,r3,r3
  80c008:	1a49883a 	add	r4,r3,r9
  80c00c:	20c00217 	ldw	r3,8(r4)
  80c010:	01c02074 	movhi	r7,129
  80c014:	39c7d404 	addi	r7,r7,8016
  80c018:	19003b26 	beq	r3,r4,80c108 <_free_r+0x258>
  80c01c:	01ffff04 	movi	r7,-4
  80c020:	19400117 	ldw	r5,4(r3)
  80c024:	29ca703a 	and	r5,r5,r7
  80c028:	1140022e 	bgeu	r2,r5,80c034 <_free_r+0x184>
  80c02c:	18c00217 	ldw	r3,8(r3)
  80c030:	20fffb1e 	bne	r4,r3,80c020 <__alt_data_end+0xff80c020>
  80c034:	18800317 	ldw	r2,12(r3)
  80c038:	30800315 	stw	r2,12(r6)
  80c03c:	30c00215 	stw	r3,8(r6)
  80c040:	11800215 	stw	r6,8(r2)
  80c044:	19800315 	stw	r6,12(r3)
  80c048:	003fe006 	br	80bfcc <__alt_data_end+0xff80bfcc>
  80c04c:	2100004c 	andi	r4,r4,1
  80c050:	1885883a 	add	r2,r3,r2
  80c054:	2000071e 	bne	r4,zero,80c074 <_free_r+0x1c4>
  80c058:	817ffe17 	ldw	r5,-8(r16)
  80c05c:	314dc83a 	sub	r6,r6,r5
  80c060:	30c00317 	ldw	r3,12(r6)
  80c064:	31000217 	ldw	r4,8(r6)
  80c068:	1145883a 	add	r2,r2,r5
  80c06c:	20c00315 	stw	r3,12(r4)
  80c070:	19000215 	stw	r4,8(r3)
  80c074:	10c00054 	ori	r3,r2,1
  80c078:	30c00115 	stw	r3,4(r6)
  80c07c:	00c02074 	movhi	r3,129
  80c080:	18cdee04 	addi	r3,r3,14264
  80c084:	18c00017 	ldw	r3,0(r3)
  80c088:	49800215 	stw	r6,8(r9)
  80c08c:	10ffcf36 	bltu	r2,r3,80bfcc <__alt_data_end+0xff80bfcc>
  80c090:	00802074 	movhi	r2,129
  80c094:	10953704 	addi	r2,r2,21724
  80c098:	11400017 	ldw	r5,0(r2)
  80c09c:	8809883a 	mov	r4,r17
  80c0a0:	080bd8c0 	call	80bd8c <_malloc_trim_r>
  80c0a4:	003fc906 	br	80bfcc <__alt_data_end+0xff80bfcc>
  80c0a8:	28c9883a 	add	r4,r5,r3
  80c0ac:	21000117 	ldw	r4,4(r4)
  80c0b0:	2100004c 	andi	r4,r4,1
  80c0b4:	20000a1e 	bne	r4,zero,80c0e0 <_free_r+0x230>
  80c0b8:	29000317 	ldw	r4,12(r5)
  80c0bc:	29400217 	ldw	r5,8(r5)
  80c0c0:	10c5883a 	add	r2,r2,r3
  80c0c4:	10c00054 	ori	r3,r2,1
  80c0c8:	29000315 	stw	r4,12(r5)
  80c0cc:	21400215 	stw	r5,8(r4)
  80c0d0:	30c00115 	stw	r3,4(r6)
  80c0d4:	308d883a 	add	r6,r6,r2
  80c0d8:	30800015 	stw	r2,0(r6)
  80c0dc:	003fbb06 	br	80bfcc <__alt_data_end+0xff80bfcc>
  80c0e0:	10c00054 	ori	r3,r2,1
  80c0e4:	30c00115 	stw	r3,4(r6)
  80c0e8:	308d883a 	add	r6,r6,r2
  80c0ec:	30800015 	stw	r2,0(r6)
  80c0f0:	003fb606 	br	80bfcc <__alt_data_end+0xff80bfcc>
  80c0f4:	01000504 	movi	r4,20
  80c0f8:	20c01436 	bltu	r4,r3,80c14c <_free_r+0x29c>
  80c0fc:	194016c4 	addi	r5,r3,91
  80c100:	2947883a 	add	r3,r5,r5
  80c104:	003fbe06 	br	80c000 <__alt_data_end+0xff80c000>
  80c108:	280bd0ba 	srai	r5,r5,2
  80c10c:	00800044 	movi	r2,1
  80c110:	39000117 	ldw	r4,4(r7)
  80c114:	114a983a 	sll	r5,r2,r5
  80c118:	1805883a 	mov	r2,r3
  80c11c:	2908b03a 	or	r4,r5,r4
  80c120:	39000115 	stw	r4,4(r7)
  80c124:	003fc406 	br	80c038 <__alt_data_end+0xff80c038>
  80c128:	49800515 	stw	r6,20(r9)
  80c12c:	49800415 	stw	r6,16(r9)
  80c130:	10c00054 	ori	r3,r2,1
  80c134:	31000315 	stw	r4,12(r6)
  80c138:	31000215 	stw	r4,8(r6)
  80c13c:	30c00115 	stw	r3,4(r6)
  80c140:	308d883a 	add	r6,r6,r2
  80c144:	30800015 	stw	r2,0(r6)
  80c148:	003fa006 	br	80bfcc <__alt_data_end+0xff80bfcc>
  80c14c:	01001504 	movi	r4,84
  80c150:	20c00436 	bltu	r4,r3,80c164 <_free_r+0x2b4>
  80c154:	1006d33a 	srli	r3,r2,12
  80c158:	19401b84 	addi	r5,r3,110
  80c15c:	2947883a 	add	r3,r5,r5
  80c160:	003fa706 	br	80c000 <__alt_data_end+0xff80c000>
  80c164:	01005504 	movi	r4,340
  80c168:	20c00436 	bltu	r4,r3,80c17c <_free_r+0x2cc>
  80c16c:	1006d3fa 	srli	r3,r2,15
  80c170:	19401dc4 	addi	r5,r3,119
  80c174:	2947883a 	add	r3,r5,r5
  80c178:	003fa106 	br	80c000 <__alt_data_end+0xff80c000>
  80c17c:	01015504 	movi	r4,1364
  80c180:	20c00436 	bltu	r4,r3,80c194 <_free_r+0x2e4>
  80c184:	1006d4ba 	srli	r3,r2,18
  80c188:	19401f04 	addi	r5,r3,124
  80c18c:	2947883a 	add	r3,r5,r5
  80c190:	003f9b06 	br	80c000 <__alt_data_end+0xff80c000>
  80c194:	00c03f04 	movi	r3,252
  80c198:	01401f84 	movi	r5,126
  80c19c:	003f9806 	br	80c000 <__alt_data_end+0xff80c000>

0080c1a0 <_lseek_r>:
  80c1a0:	defffd04 	addi	sp,sp,-12
  80c1a4:	dc000015 	stw	r16,0(sp)
  80c1a8:	04002074 	movhi	r16,129
  80c1ac:	dc400115 	stw	r17,4(sp)
  80c1b0:	84153804 	addi	r16,r16,21728
  80c1b4:	2023883a 	mov	r17,r4
  80c1b8:	2809883a 	mov	r4,r5
  80c1bc:	300b883a 	mov	r5,r6
  80c1c0:	380d883a 	mov	r6,r7
  80c1c4:	dfc00215 	stw	ra,8(sp)
  80c1c8:	80000015 	stw	zero,0(r16)
  80c1cc:	080ca700 	call	80ca70 <lseek>
  80c1d0:	00ffffc4 	movi	r3,-1
  80c1d4:	10c00526 	beq	r2,r3,80c1ec <_lseek_r+0x4c>
  80c1d8:	dfc00217 	ldw	ra,8(sp)
  80c1dc:	dc400117 	ldw	r17,4(sp)
  80c1e0:	dc000017 	ldw	r16,0(sp)
  80c1e4:	dec00304 	addi	sp,sp,12
  80c1e8:	f800283a 	ret
  80c1ec:	80c00017 	ldw	r3,0(r16)
  80c1f0:	183ff926 	beq	r3,zero,80c1d8 <__alt_data_end+0xff80c1d8>
  80c1f4:	88c00015 	stw	r3,0(r17)
  80c1f8:	003ff706 	br	80c1d8 <__alt_data_end+0xff80c1d8>

0080c1fc <__smakebuf_r>:
  80c1fc:	2880030b 	ldhu	r2,12(r5)
  80c200:	10c0008c 	andi	r3,r2,2
  80c204:	1800401e 	bne	r3,zero,80c308 <__smakebuf_r+0x10c>
  80c208:	deffec04 	addi	sp,sp,-80
  80c20c:	dc000f15 	stw	r16,60(sp)
  80c210:	2821883a 	mov	r16,r5
  80c214:	2940038f 	ldh	r5,14(r5)
  80c218:	dc401015 	stw	r17,64(sp)
  80c21c:	dfc01315 	stw	ra,76(sp)
  80c220:	dcc01215 	stw	r19,72(sp)
  80c224:	dc801115 	stw	r18,68(sp)
  80c228:	2023883a 	mov	r17,r4
  80c22c:	28001b16 	blt	r5,zero,80c29c <__smakebuf_r+0xa0>
  80c230:	d80d883a 	mov	r6,sp
  80c234:	080c4100 	call	80c410 <_fstat_r>
  80c238:	10001716 	blt	r2,zero,80c298 <__smakebuf_r+0x9c>
  80c23c:	d8800117 	ldw	r2,4(sp)
  80c240:	00e00014 	movui	r3,32768
  80c244:	10bc000c 	andi	r2,r2,61440
  80c248:	10c03726 	beq	r2,r3,80c328 <__smakebuf_r+0x12c>
  80c24c:	80c0030b 	ldhu	r3,12(r16)
  80c250:	18c20014 	ori	r3,r3,2048
  80c254:	80c0030d 	sth	r3,12(r16)
  80c258:	00c80004 	movi	r3,8192
  80c25c:	10c03c1e 	bne	r2,r3,80c350 <__smakebuf_r+0x154>
  80c260:	8140038f 	ldh	r5,14(r16)
  80c264:	8809883a 	mov	r4,r17
  80c268:	080c4680 	call	80c468 <_isatty_r>
  80c26c:	10004e26 	beq	r2,zero,80c3a8 <__smakebuf_r+0x1ac>
  80c270:	8080030b 	ldhu	r2,12(r16)
  80c274:	04c00044 	movi	r19,1
  80c278:	80c010c4 	addi	r3,r16,67
  80c27c:	14c4b03a 	or	r2,r2,r19
  80c280:	8080030d 	sth	r2,12(r16)
  80c284:	80c00015 	stw	r3,0(r16)
  80c288:	80c00415 	stw	r3,16(r16)
  80c28c:	84c00515 	stw	r19,20(r16)
  80c290:	04810004 	movi	r18,1024
  80c294:	00000706 	br	80c2b4 <__smakebuf_r+0xb8>
  80c298:	8080030b 	ldhu	r2,12(r16)
  80c29c:	10c0200c 	andi	r3,r2,128
  80c2a0:	18001f1e 	bne	r3,zero,80c320 <__smakebuf_r+0x124>
  80c2a4:	04810004 	movi	r18,1024
  80c2a8:	10820014 	ori	r2,r2,2048
  80c2ac:	8080030d 	sth	r2,12(r16)
  80c2b0:	0027883a 	mov	r19,zero
  80c2b4:	8809883a 	mov	r4,r17
  80c2b8:	900b883a 	mov	r5,r18
  80c2bc:	080aa080 	call	80aa08 <_malloc_r>
  80c2c0:	10002e26 	beq	r2,zero,80c37c <__smakebuf_r+0x180>
  80c2c4:	80c0030b 	ldhu	r3,12(r16)
  80c2c8:	01002074 	movhi	r4,129
  80c2cc:	21293c04 	addi	r4,r4,-23312
  80c2d0:	89000f15 	stw	r4,60(r17)
  80c2d4:	18c02014 	ori	r3,r3,128
  80c2d8:	80c0030d 	sth	r3,12(r16)
  80c2dc:	80800015 	stw	r2,0(r16)
  80c2e0:	80800415 	stw	r2,16(r16)
  80c2e4:	84800515 	stw	r18,20(r16)
  80c2e8:	98001c1e 	bne	r19,zero,80c35c <__smakebuf_r+0x160>
  80c2ec:	dfc01317 	ldw	ra,76(sp)
  80c2f0:	dcc01217 	ldw	r19,72(sp)
  80c2f4:	dc801117 	ldw	r18,68(sp)
  80c2f8:	dc401017 	ldw	r17,64(sp)
  80c2fc:	dc000f17 	ldw	r16,60(sp)
  80c300:	dec01404 	addi	sp,sp,80
  80c304:	f800283a 	ret
  80c308:	288010c4 	addi	r2,r5,67
  80c30c:	28800015 	stw	r2,0(r5)
  80c310:	28800415 	stw	r2,16(r5)
  80c314:	00800044 	movi	r2,1
  80c318:	28800515 	stw	r2,20(r5)
  80c31c:	f800283a 	ret
  80c320:	04801004 	movi	r18,64
  80c324:	003fe006 	br	80c2a8 <__alt_data_end+0xff80c2a8>
  80c328:	81000a17 	ldw	r4,40(r16)
  80c32c:	00c02074 	movhi	r3,129
  80c330:	18ed8e04 	addi	r3,r3,-18888
  80c334:	20ffc51e 	bne	r4,r3,80c24c <__alt_data_end+0xff80c24c>
  80c338:	80c0030b 	ldhu	r3,12(r16)
  80c33c:	01010004 	movi	r4,1024
  80c340:	81001315 	stw	r4,76(r16)
  80c344:	1906b03a 	or	r3,r3,r4
  80c348:	80c0030d 	sth	r3,12(r16)
  80c34c:	003fc206 	br	80c258 <__alt_data_end+0xff80c258>
  80c350:	0027883a 	mov	r19,zero
  80c354:	04810004 	movi	r18,1024
  80c358:	003fd606 	br	80c2b4 <__alt_data_end+0xff80c2b4>
  80c35c:	8140038f 	ldh	r5,14(r16)
  80c360:	8809883a 	mov	r4,r17
  80c364:	080c4680 	call	80c468 <_isatty_r>
  80c368:	103fe026 	beq	r2,zero,80c2ec <__alt_data_end+0xff80c2ec>
  80c36c:	8080030b 	ldhu	r2,12(r16)
  80c370:	10800054 	ori	r2,r2,1
  80c374:	8080030d 	sth	r2,12(r16)
  80c378:	003fdc06 	br	80c2ec <__alt_data_end+0xff80c2ec>
  80c37c:	8080030b 	ldhu	r2,12(r16)
  80c380:	10c0800c 	andi	r3,r2,512
  80c384:	183fd91e 	bne	r3,zero,80c2ec <__alt_data_end+0xff80c2ec>
  80c388:	10800094 	ori	r2,r2,2
  80c38c:	80c010c4 	addi	r3,r16,67
  80c390:	8080030d 	sth	r2,12(r16)
  80c394:	00800044 	movi	r2,1
  80c398:	80c00015 	stw	r3,0(r16)
  80c39c:	80c00415 	stw	r3,16(r16)
  80c3a0:	80800515 	stw	r2,20(r16)
  80c3a4:	003fd106 	br	80c2ec <__alt_data_end+0xff80c2ec>
  80c3a8:	04c00044 	movi	r19,1
  80c3ac:	04810004 	movi	r18,1024
  80c3b0:	003fc006 	br	80c2b4 <__alt_data_end+0xff80c2b4>

0080c3b4 <_read_r>:
  80c3b4:	defffd04 	addi	sp,sp,-12
  80c3b8:	dc000015 	stw	r16,0(sp)
  80c3bc:	04002074 	movhi	r16,129
  80c3c0:	dc400115 	stw	r17,4(sp)
  80c3c4:	84153804 	addi	r16,r16,21728
  80c3c8:	2023883a 	mov	r17,r4
  80c3cc:	2809883a 	mov	r4,r5
  80c3d0:	300b883a 	mov	r5,r6
  80c3d4:	380d883a 	mov	r6,r7
  80c3d8:	dfc00215 	stw	ra,8(sp)
  80c3dc:	80000015 	stw	zero,0(r16)
  80c3e0:	080ceb80 	call	80ceb8 <read>
  80c3e4:	00ffffc4 	movi	r3,-1
  80c3e8:	10c00526 	beq	r2,r3,80c400 <_read_r+0x4c>
  80c3ec:	dfc00217 	ldw	ra,8(sp)
  80c3f0:	dc400117 	ldw	r17,4(sp)
  80c3f4:	dc000017 	ldw	r16,0(sp)
  80c3f8:	dec00304 	addi	sp,sp,12
  80c3fc:	f800283a 	ret
  80c400:	80c00017 	ldw	r3,0(r16)
  80c404:	183ff926 	beq	r3,zero,80c3ec <__alt_data_end+0xff80c3ec>
  80c408:	88c00015 	stw	r3,0(r17)
  80c40c:	003ff706 	br	80c3ec <__alt_data_end+0xff80c3ec>

0080c410 <_fstat_r>:
  80c410:	defffd04 	addi	sp,sp,-12
  80c414:	dc000015 	stw	r16,0(sp)
  80c418:	04002074 	movhi	r16,129
  80c41c:	dc400115 	stw	r17,4(sp)
  80c420:	84153804 	addi	r16,r16,21728
  80c424:	2023883a 	mov	r17,r4
  80c428:	2809883a 	mov	r4,r5
  80c42c:	300b883a 	mov	r5,r6
  80c430:	dfc00215 	stw	ra,8(sp)
  80c434:	80000015 	stw	zero,0(r16)
  80c438:	080c7980 	call	80c798 <fstat>
  80c43c:	00ffffc4 	movi	r3,-1
  80c440:	10c00526 	beq	r2,r3,80c458 <_fstat_r+0x48>
  80c444:	dfc00217 	ldw	ra,8(sp)
  80c448:	dc400117 	ldw	r17,4(sp)
  80c44c:	dc000017 	ldw	r16,0(sp)
  80c450:	dec00304 	addi	sp,sp,12
  80c454:	f800283a 	ret
  80c458:	80c00017 	ldw	r3,0(r16)
  80c45c:	183ff926 	beq	r3,zero,80c444 <__alt_data_end+0xff80c444>
  80c460:	88c00015 	stw	r3,0(r17)
  80c464:	003ff706 	br	80c444 <__alt_data_end+0xff80c444>

0080c468 <_isatty_r>:
  80c468:	defffd04 	addi	sp,sp,-12
  80c46c:	dc000015 	stw	r16,0(sp)
  80c470:	04002074 	movhi	r16,129
  80c474:	dc400115 	stw	r17,4(sp)
  80c478:	84153804 	addi	r16,r16,21728
  80c47c:	2023883a 	mov	r17,r4
  80c480:	2809883a 	mov	r4,r5
  80c484:	dfc00215 	stw	ra,8(sp)
  80c488:	80000015 	stw	zero,0(r16)
  80c48c:	080c8980 	call	80c898 <isatty>
  80c490:	00ffffc4 	movi	r3,-1
  80c494:	10c00526 	beq	r2,r3,80c4ac <_isatty_r+0x44>
  80c498:	dfc00217 	ldw	ra,8(sp)
  80c49c:	dc400117 	ldw	r17,4(sp)
  80c4a0:	dc000017 	ldw	r16,0(sp)
  80c4a4:	dec00304 	addi	sp,sp,12
  80c4a8:	f800283a 	ret
  80c4ac:	80c00017 	ldw	r3,0(r16)
  80c4b0:	183ff926 	beq	r3,zero,80c498 <__alt_data_end+0xff80c498>
  80c4b4:	88c00015 	stw	r3,0(r17)
  80c4b8:	003ff706 	br	80c498 <__alt_data_end+0xff80c498>

0080c4bc <alt_alarm_start>:
 */ 

int alt_alarm_start (alt_alarm* alarm, alt_u32 nticks,
                     alt_u32 (*callback) (void* context),
                     void* context)
{
  80c4bc:	defff504 	addi	sp,sp,-44
  80c4c0:	df000a15 	stw	fp,40(sp)
  80c4c4:	df000a04 	addi	fp,sp,40
  80c4c8:	e13ffc15 	stw	r4,-16(fp)
  80c4cc:	e17ffd15 	stw	r5,-12(fp)
  80c4d0:	e1bffe15 	stw	r6,-8(fp)
  80c4d4:	e1ffff15 	stw	r7,-4(fp)
  alt_irq_context irq_context;
  alt_u32 current_nticks = 0;
  80c4d8:	e03ff615 	stw	zero,-40(fp)
 * Obtain the system clock rate in ticks/s. 
 */

static ALT_INLINE alt_u32 ALT_ALWAYS_INLINE alt_ticks_per_second (void)
{
  return _alt_tick_rate;
  80c4dc:	00802074 	movhi	r2,129
  80c4e0:	10953c04 	addi	r2,r2,21744
  80c4e4:	10800017 	ldw	r2,0(r2)
  
  if (alt_ticks_per_second ())
  80c4e8:	10003f26 	beq	r2,zero,80c5e8 <alt_alarm_start+0x12c>
  {
    if (alarm)
  80c4ec:	e0bffc17 	ldw	r2,-16(fp)
  80c4f0:	10003b26 	beq	r2,zero,80c5e0 <alt_alarm_start+0x124>
    {
      alarm->callback = callback;
  80c4f4:	e0bffc17 	ldw	r2,-16(fp)
  80c4f8:	e0fffe17 	ldw	r3,-8(fp)
  80c4fc:	10c00315 	stw	r3,12(r2)
      alarm->context  = context;
  80c500:	e0bffc17 	ldw	r2,-16(fp)
  80c504:	e0ffff17 	ldw	r3,-4(fp)
  80c508:	10c00515 	stw	r3,20(r2)
static ALT_INLINE alt_irq_context ALT_ALWAYS_INLINE 
       alt_irq_disable_all (void)
{
  alt_irq_context context;

  NIOS2_READ_STATUS (context);
  80c50c:	0005303a 	rdctl	r2,status
  80c510:	e0bff815 	stw	r2,-32(fp)

  NIOS2_WRITE_STATUS (context & ~NIOS2_STATUS_PIE_MSK);
  80c514:	e0fff817 	ldw	r3,-32(fp)
  80c518:	00bfff84 	movi	r2,-2
  80c51c:	1884703a 	and	r2,r3,r2
  80c520:	1001703a 	wrctl	status,r2
  
  return context;
  80c524:	e0bff817 	ldw	r2,-32(fp)
 
      irq_context = alt_irq_disable_all ();
  80c528:	e0bff715 	stw	r2,-36(fp)
 * alt_nticks() returns the elapsed number of system clock ticks since reset.
 */

static ALT_INLINE alt_u32 ALT_ALWAYS_INLINE alt_nticks (void)
{
  return _alt_nticks;
  80c52c:	00802074 	movhi	r2,129
  80c530:	10953d04 	addi	r2,r2,21748
  80c534:	10800017 	ldw	r2,0(r2)
      
      current_nticks = alt_nticks();
  80c538:	e0bff615 	stw	r2,-40(fp)
      
      alarm->time = nticks + current_nticks + 1; 
  80c53c:	e0fffd17 	ldw	r3,-12(fp)
  80c540:	e0bff617 	ldw	r2,-40(fp)
  80c544:	1885883a 	add	r2,r3,r2
  80c548:	10c00044 	addi	r3,r2,1
  80c54c:	e0bffc17 	ldw	r2,-16(fp)
  80c550:	10c00215 	stw	r3,8(r2)
      /* 
       * If the desired alarm time causes a roll-over, set the rollover
       * flag. This will prevent the subsequent tick event from causing
       * an alarm too early.
       */
      if(alarm->time < current_nticks)
  80c554:	e0bffc17 	ldw	r2,-16(fp)
  80c558:	10c00217 	ldw	r3,8(r2)
  80c55c:	e0bff617 	ldw	r2,-40(fp)
  80c560:	1880042e 	bgeu	r3,r2,80c574 <alt_alarm_start+0xb8>
      {
        alarm->rollover = 1;
  80c564:	e0bffc17 	ldw	r2,-16(fp)
  80c568:	00c00044 	movi	r3,1
  80c56c:	10c00405 	stb	r3,16(r2)
  80c570:	00000206 	br	80c57c <alt_alarm_start+0xc0>
      }
      else
      {
        alarm->rollover = 0;
  80c574:	e0bffc17 	ldw	r2,-16(fp)
  80c578:	10000405 	stb	zero,16(r2)
      }
    
      alt_llist_insert (&alt_alarm_list, &alarm->llist);
  80c57c:	e0fffc17 	ldw	r3,-16(fp)
  80c580:	00802074 	movhi	r2,129
  80c584:	108df604 	addi	r2,r2,14296
  80c588:	e0bff915 	stw	r2,-28(fp)
  80c58c:	e0fffa15 	stw	r3,-24(fp)
 */

static ALT_INLINE void ALT_ALWAYS_INLINE alt_llist_insert(alt_llist* list, 
                alt_llist* entry)
{
  entry->previous = list;
  80c590:	e0bffa17 	ldw	r2,-24(fp)
  80c594:	e0fff917 	ldw	r3,-28(fp)
  80c598:	10c00115 	stw	r3,4(r2)
  entry->next     = list->next;
  80c59c:	e0bff917 	ldw	r2,-28(fp)
  80c5a0:	10c00017 	ldw	r3,0(r2)
  80c5a4:	e0bffa17 	ldw	r2,-24(fp)
  80c5a8:	10c00015 	stw	r3,0(r2)

  list->next->previous = entry;
  80c5ac:	e0bff917 	ldw	r2,-28(fp)
  80c5b0:	10800017 	ldw	r2,0(r2)
  80c5b4:	e0fffa17 	ldw	r3,-24(fp)
  80c5b8:	10c00115 	stw	r3,4(r2)
  list->next           = entry;
  80c5bc:	e0bff917 	ldw	r2,-28(fp)
  80c5c0:	e0fffa17 	ldw	r3,-24(fp)
  80c5c4:	10c00015 	stw	r3,0(r2)
  80c5c8:	e0bff717 	ldw	r2,-36(fp)
  80c5cc:	e0bffb15 	stw	r2,-20(fp)
  status &= ~NIOS2_STATUS_PIE_MSK;
  status |= (context & NIOS2_STATUS_PIE_MSK);
  
  NIOS2_WRITE_STATUS (status);
#else
  NIOS2_WRITE_STATUS (context);
  80c5d0:	e0bffb17 	ldw	r2,-20(fp)
  80c5d4:	1001703a 	wrctl	status,r2
      alt_irq_enable_all (irq_context);

      return 0;
  80c5d8:	0005883a 	mov	r2,zero
  80c5dc:	00000306 	br	80c5ec <alt_alarm_start+0x130>
    }
    else
    {
      return -EINVAL;
  80c5e0:	00bffa84 	movi	r2,-22
  80c5e4:	00000106 	br	80c5ec <alt_alarm_start+0x130>
    }
  }
  else
  {
    return -ENOTSUP;
  80c5e8:	00bfde84 	movi	r2,-134
  }
}
  80c5ec:	e037883a 	mov	sp,fp
  80c5f0:	df000017 	ldw	fp,0(sp)
  80c5f4:	dec00104 	addi	sp,sp,4
  80c5f8:	f800283a 	ret

0080c5fc <alt_get_errno>:
#undef errno

extern int errno;

static ALT_INLINE int* alt_get_errno(void)
{
  80c5fc:	defffe04 	addi	sp,sp,-8
  80c600:	dfc00115 	stw	ra,4(sp)
  80c604:	df000015 	stw	fp,0(sp)
  80c608:	d839883a 	mov	fp,sp
  return ((alt_errno) ? alt_errno() : &errno);
  80c60c:	00802074 	movhi	r2,129
  80c610:	108df404 	addi	r2,r2,14288
  80c614:	10800017 	ldw	r2,0(r2)
  80c618:	10000526 	beq	r2,zero,80c630 <alt_get_errno+0x34>
  80c61c:	00802074 	movhi	r2,129
  80c620:	108df404 	addi	r2,r2,14288
  80c624:	10800017 	ldw	r2,0(r2)
  80c628:	103ee83a 	callr	r2
  80c62c:	00000206 	br	80c638 <alt_get_errno+0x3c>
  80c630:	00802074 	movhi	r2,129
  80c634:	10953804 	addi	r2,r2,21728
}
  80c638:	e037883a 	mov	sp,fp
  80c63c:	dfc00117 	ldw	ra,4(sp)
  80c640:	df000017 	ldw	fp,0(sp)
  80c644:	dec00204 	addi	sp,sp,8
  80c648:	f800283a 	ret

0080c64c <close>:
 *
 * ALT_CLOSE is mapped onto the close() system call in alt_syscall.h
 */
 
int ALT_CLOSE (int fildes)
{
  80c64c:	defffb04 	addi	sp,sp,-20
  80c650:	dfc00415 	stw	ra,16(sp)
  80c654:	df000315 	stw	fp,12(sp)
  80c658:	df000304 	addi	fp,sp,12
  80c65c:	e13fff15 	stw	r4,-4(fp)
   * A common error case is that when the file descriptor was created, the call
   * to open() failed resulting in a negative file descriptor. This is trapped
   * below so that we don't try and process an invalid file descriptor.
   */

  fd = (fildes < 0) ? NULL : &alt_fd_list[fildes];
  80c660:	e0bfff17 	ldw	r2,-4(fp)
  80c664:	10000616 	blt	r2,zero,80c680 <close+0x34>
  80c668:	e0bfff17 	ldw	r2,-4(fp)
  80c66c:	10c00324 	muli	r3,r2,12
  80c670:	00802074 	movhi	r2,129
  80c674:	1088e004 	addi	r2,r2,9088
  80c678:	1885883a 	add	r2,r3,r2
  80c67c:	00000106 	br	80c684 <close+0x38>
  80c680:	0005883a 	mov	r2,zero
  80c684:	e0bffd15 	stw	r2,-12(fp)

  if (fd)
  80c688:	e0bffd17 	ldw	r2,-12(fp)
  80c68c:	10001926 	beq	r2,zero,80c6f4 <close+0xa8>
    /*
     * If the associated file system/device has a close function, call it so 
     * that any necessary cleanup code can run.
     */

    rval = (fd->dev->close) ? fd->dev->close(fd) : 0;
  80c690:	e0bffd17 	ldw	r2,-12(fp)
  80c694:	10800017 	ldw	r2,0(r2)
  80c698:	10800417 	ldw	r2,16(r2)
  80c69c:	10000626 	beq	r2,zero,80c6b8 <close+0x6c>
  80c6a0:	e0bffd17 	ldw	r2,-12(fp)
  80c6a4:	10800017 	ldw	r2,0(r2)
  80c6a8:	10800417 	ldw	r2,16(r2)
  80c6ac:	e13ffd17 	ldw	r4,-12(fp)
  80c6b0:	103ee83a 	callr	r2
  80c6b4:	00000106 	br	80c6bc <close+0x70>
  80c6b8:	0005883a 	mov	r2,zero
  80c6bc:	e0bffe15 	stw	r2,-8(fp)

    /* Free the file descriptor structure and return. */

    alt_release_fd (fildes);
  80c6c0:	e13fff17 	ldw	r4,-4(fp)
  80c6c4:	080cfb40 	call	80cfb4 <alt_release_fd>
    if (rval < 0)
  80c6c8:	e0bffe17 	ldw	r2,-8(fp)
  80c6cc:	1000070e 	bge	r2,zero,80c6ec <close+0xa0>
    {
      ALT_ERRNO = -rval;
  80c6d0:	080c5fc0 	call	80c5fc <alt_get_errno>
  80c6d4:	1007883a 	mov	r3,r2
  80c6d8:	e0bffe17 	ldw	r2,-8(fp)
  80c6dc:	0085c83a 	sub	r2,zero,r2
  80c6e0:	18800015 	stw	r2,0(r3)
      return -1;
  80c6e4:	00bfffc4 	movi	r2,-1
  80c6e8:	00000706 	br	80c708 <close+0xbc>
    }
    return 0;
  80c6ec:	0005883a 	mov	r2,zero
  80c6f0:	00000506 	br	80c708 <close+0xbc>
  }
  else
  {
    ALT_ERRNO = EBADFD;
  80c6f4:	080c5fc0 	call	80c5fc <alt_get_errno>
  80c6f8:	1007883a 	mov	r3,r2
  80c6fc:	00801444 	movi	r2,81
  80c700:	18800015 	stw	r2,0(r3)
    return -1;
  80c704:	00bfffc4 	movi	r2,-1
  }
}
  80c708:	e037883a 	mov	sp,fp
  80c70c:	dfc00117 	ldw	ra,4(sp)
  80c710:	df000017 	ldw	fp,0(sp)
  80c714:	dec00204 	addi	sp,sp,8
  80c718:	f800283a 	ret

0080c71c <alt_dev_null_write>:
 * by the alt_dev_null device. It simple discards all data passed to it, and
 * indicates that the data has been successfully transmitted.
 */

static int alt_dev_null_write (alt_fd* fd, const char* ptr, int len)
{
  80c71c:	defffc04 	addi	sp,sp,-16
  80c720:	df000315 	stw	fp,12(sp)
  80c724:	df000304 	addi	fp,sp,12
  80c728:	e13ffd15 	stw	r4,-12(fp)
  80c72c:	e17ffe15 	stw	r5,-8(fp)
  80c730:	e1bfff15 	stw	r6,-4(fp)
  return len;
  80c734:	e0bfff17 	ldw	r2,-4(fp)
}
  80c738:	e037883a 	mov	sp,fp
  80c73c:	df000017 	ldw	fp,0(sp)
  80c740:	dec00104 	addi	sp,sp,4
  80c744:	f800283a 	ret

0080c748 <alt_get_errno>:
#undef errno

extern int errno;

static ALT_INLINE int* alt_get_errno(void)
{
  80c748:	defffe04 	addi	sp,sp,-8
  80c74c:	dfc00115 	stw	ra,4(sp)
  80c750:	df000015 	stw	fp,0(sp)
  80c754:	d839883a 	mov	fp,sp
  return ((alt_errno) ? alt_errno() : &errno);
  80c758:	00802074 	movhi	r2,129
  80c75c:	108df404 	addi	r2,r2,14288
  80c760:	10800017 	ldw	r2,0(r2)
  80c764:	10000526 	beq	r2,zero,80c77c <alt_get_errno+0x34>
  80c768:	00802074 	movhi	r2,129
  80c76c:	108df404 	addi	r2,r2,14288
  80c770:	10800017 	ldw	r2,0(r2)
  80c774:	103ee83a 	callr	r2
  80c778:	00000206 	br	80c784 <alt_get_errno+0x3c>
  80c77c:	00802074 	movhi	r2,129
  80c780:	10953804 	addi	r2,r2,21728
}
  80c784:	e037883a 	mov	sp,fp
  80c788:	dfc00117 	ldw	ra,4(sp)
  80c78c:	df000017 	ldw	fp,0(sp)
  80c790:	dec00204 	addi	sp,sp,8
  80c794:	f800283a 	ret

0080c798 <fstat>:
}

#else /* !ALT_USE_DIRECT_DRIVERS */

int ALT_FSTAT (int file, struct stat *st)
{
  80c798:	defffb04 	addi	sp,sp,-20
  80c79c:	dfc00415 	stw	ra,16(sp)
  80c7a0:	df000315 	stw	fp,12(sp)
  80c7a4:	df000304 	addi	fp,sp,12
  80c7a8:	e13ffe15 	stw	r4,-8(fp)
  80c7ac:	e17fff15 	stw	r5,-4(fp)
   * A common error case is that when the file descriptor was created, the call
   * to open() failed resulting in a negative file descriptor. This is trapped
   * below so that we don't try and process an invalid file descriptor.
   */

  fd = (file < 0) ? NULL : &alt_fd_list[file];
  80c7b0:	e0bffe17 	ldw	r2,-8(fp)
  80c7b4:	10000616 	blt	r2,zero,80c7d0 <fstat+0x38>
  80c7b8:	e0bffe17 	ldw	r2,-8(fp)
  80c7bc:	10c00324 	muli	r3,r2,12
  80c7c0:	00802074 	movhi	r2,129
  80c7c4:	1088e004 	addi	r2,r2,9088
  80c7c8:	1885883a 	add	r2,r3,r2
  80c7cc:	00000106 	br	80c7d4 <fstat+0x3c>
  80c7d0:	0005883a 	mov	r2,zero
  80c7d4:	e0bffd15 	stw	r2,-12(fp)
  
  if (fd)
  80c7d8:	e0bffd17 	ldw	r2,-12(fp)
  80c7dc:	10001026 	beq	r2,zero,80c820 <fstat+0x88>
  {
    /* Call the drivers fstat() function to fill out the "st" structure. */

    if (fd->dev->fstat)
  80c7e0:	e0bffd17 	ldw	r2,-12(fp)
  80c7e4:	10800017 	ldw	r2,0(r2)
  80c7e8:	10800817 	ldw	r2,32(r2)
  80c7ec:	10000726 	beq	r2,zero,80c80c <fstat+0x74>
    {
      return fd->dev->fstat(fd, st);
  80c7f0:	e0bffd17 	ldw	r2,-12(fp)
  80c7f4:	10800017 	ldw	r2,0(r2)
  80c7f8:	10800817 	ldw	r2,32(r2)
  80c7fc:	e13ffd17 	ldw	r4,-12(fp)
  80c800:	e17fff17 	ldw	r5,-4(fp)
  80c804:	103ee83a 	callr	r2
  80c808:	00000a06 	br	80c834 <fstat+0x9c>
     * device.
     */
 
    else
    {
      st->st_mode = _IFCHR;
  80c80c:	e0bfff17 	ldw	r2,-4(fp)
  80c810:	00c80004 	movi	r3,8192
  80c814:	10c00115 	stw	r3,4(r2)
      return 0;
  80c818:	0005883a 	mov	r2,zero
  80c81c:	00000506 	br	80c834 <fstat+0x9c>
    }
  }
  else
  {
    ALT_ERRNO = EBADFD;
  80c820:	080c7480 	call	80c748 <alt_get_errno>
  80c824:	1007883a 	mov	r3,r2
  80c828:	00801444 	movi	r2,81
  80c82c:	18800015 	stw	r2,0(r3)
    return -1;
  80c830:	00bfffc4 	movi	r2,-1
  }
}
  80c834:	e037883a 	mov	sp,fp
  80c838:	dfc00117 	ldw	ra,4(sp)
  80c83c:	df000017 	ldw	fp,0(sp)
  80c840:	dec00204 	addi	sp,sp,8
  80c844:	f800283a 	ret

0080c848 <alt_get_errno>:
#undef errno

extern int errno;

static ALT_INLINE int* alt_get_errno(void)
{
  80c848:	defffe04 	addi	sp,sp,-8
  80c84c:	dfc00115 	stw	ra,4(sp)
  80c850:	df000015 	stw	fp,0(sp)
  80c854:	d839883a 	mov	fp,sp
  return ((alt_errno) ? alt_errno() : &errno);
  80c858:	00802074 	movhi	r2,129
  80c85c:	108df404 	addi	r2,r2,14288
  80c860:	10800017 	ldw	r2,0(r2)
  80c864:	10000526 	beq	r2,zero,80c87c <alt_get_errno+0x34>
  80c868:	00802074 	movhi	r2,129
  80c86c:	108df404 	addi	r2,r2,14288
  80c870:	10800017 	ldw	r2,0(r2)
  80c874:	103ee83a 	callr	r2
  80c878:	00000206 	br	80c884 <alt_get_errno+0x3c>
  80c87c:	00802074 	movhi	r2,129
  80c880:	10953804 	addi	r2,r2,21728
}
  80c884:	e037883a 	mov	sp,fp
  80c888:	dfc00117 	ldw	ra,4(sp)
  80c88c:	df000017 	ldw	fp,0(sp)
  80c890:	dec00204 	addi	sp,sp,8
  80c894:	f800283a 	ret

0080c898 <isatty>:
 *
 * ALT_ISATTY is mapped onto the isatty() system call in alt_syscall.h
 */
 
int ALT_ISATTY (int file)
{
  80c898:	deffed04 	addi	sp,sp,-76
  80c89c:	dfc01215 	stw	ra,72(sp)
  80c8a0:	df001115 	stw	fp,68(sp)
  80c8a4:	df001104 	addi	fp,sp,68
  80c8a8:	e13fff15 	stw	r4,-4(fp)
   * A common error case is that when the file descriptor was created, the call
   * to open() failed resulting in a negative file descriptor. This is trapped
   * below so that we don't try and process an invalid file descriptor.
   */

  fd = (file < 0) ? NULL : &alt_fd_list[file];
  80c8ac:	e0bfff17 	ldw	r2,-4(fp)
  80c8b0:	10000616 	blt	r2,zero,80c8cc <isatty+0x34>
  80c8b4:	e0bfff17 	ldw	r2,-4(fp)
  80c8b8:	10c00324 	muli	r3,r2,12
  80c8bc:	00802074 	movhi	r2,129
  80c8c0:	1088e004 	addi	r2,r2,9088
  80c8c4:	1885883a 	add	r2,r3,r2
  80c8c8:	00000106 	br	80c8d0 <isatty+0x38>
  80c8cc:	0005883a 	mov	r2,zero
  80c8d0:	e0bfef15 	stw	r2,-68(fp)
  
  if (fd)
  80c8d4:	e0bfef17 	ldw	r2,-68(fp)
  80c8d8:	10000e26 	beq	r2,zero,80c914 <isatty+0x7c>
    /*
     * If a device driver does not provide an fstat() function, then it is 
     * treated as a terminal device by default.
     */

    if (!fd->dev->fstat)
  80c8dc:	e0bfef17 	ldw	r2,-68(fp)
  80c8e0:	10800017 	ldw	r2,0(r2)
  80c8e4:	10800817 	ldw	r2,32(r2)
  80c8e8:	1000021e 	bne	r2,zero,80c8f4 <isatty+0x5c>
    {
      return 1;
  80c8ec:	00800044 	movi	r2,1
  80c8f0:	00000d06 	br	80c928 <isatty+0x90>
     * this is called so that the device can identify itself.
     */ 

    else
    {
      fstat (file, &stat);
  80c8f4:	e0bff004 	addi	r2,fp,-64
  80c8f8:	e13fff17 	ldw	r4,-4(fp)
  80c8fc:	100b883a 	mov	r5,r2
  80c900:	080c7980 	call	80c798 <fstat>
      return (stat.st_mode == _IFCHR) ? 1 : 0;
  80c904:	e0bff117 	ldw	r2,-60(fp)
  80c908:	10880020 	cmpeqi	r2,r2,8192
  80c90c:	10803fcc 	andi	r2,r2,255
  80c910:	00000506 	br	80c928 <isatty+0x90>
    }
  }
  else
  {
    ALT_ERRNO = EBADFD;
  80c914:	080c8480 	call	80c848 <alt_get_errno>
  80c918:	1007883a 	mov	r3,r2
  80c91c:	00801444 	movi	r2,81
  80c920:	18800015 	stw	r2,0(r3)
    return 0;
  80c924:	0005883a 	mov	r2,zero
  }
}
  80c928:	e037883a 	mov	sp,fp
  80c92c:	dfc00117 	ldw	ra,4(sp)
  80c930:	df000017 	ldw	fp,0(sp)
  80c934:	dec00204 	addi	sp,sp,8
  80c938:	f800283a 	ret

0080c93c <alt_load_section>:
 */

static void ALT_INLINE alt_load_section (alt_u32* from, 
                                         alt_u32* to, 
                                         alt_u32* end)
{
  80c93c:	defffc04 	addi	sp,sp,-16
  80c940:	df000315 	stw	fp,12(sp)
  80c944:	df000304 	addi	fp,sp,12
  80c948:	e13ffd15 	stw	r4,-12(fp)
  80c94c:	e17ffe15 	stw	r5,-8(fp)
  80c950:	e1bfff15 	stw	r6,-4(fp)
  if (to != from)
  80c954:	e0fffe17 	ldw	r3,-8(fp)
  80c958:	e0bffd17 	ldw	r2,-12(fp)
  80c95c:	18800c26 	beq	r3,r2,80c990 <alt_load_section+0x54>
  {
    while( to != end )
  80c960:	00000806 	br	80c984 <alt_load_section+0x48>
    {
      *to++ = *from++;
  80c964:	e0bffe17 	ldw	r2,-8(fp)
  80c968:	10c00104 	addi	r3,r2,4
  80c96c:	e0fffe15 	stw	r3,-8(fp)
  80c970:	e0fffd17 	ldw	r3,-12(fp)
  80c974:	19000104 	addi	r4,r3,4
  80c978:	e13ffd15 	stw	r4,-12(fp)
  80c97c:	18c00017 	ldw	r3,0(r3)
  80c980:	10c00015 	stw	r3,0(r2)
                                         alt_u32* to, 
                                         alt_u32* end)
{
  if (to != from)
  {
    while( to != end )
  80c984:	e0fffe17 	ldw	r3,-8(fp)
  80c988:	e0bfff17 	ldw	r2,-4(fp)
  80c98c:	18bff51e 	bne	r3,r2,80c964 <__alt_data_end+0xff80c964>
    {
      *to++ = *from++;
    }
  }
}
  80c990:	e037883a 	mov	sp,fp
  80c994:	df000017 	ldw	fp,0(sp)
  80c998:	dec00104 	addi	sp,sp,4
  80c99c:	f800283a 	ret

0080c9a0 <alt_load>:
 * there is no bootloader, so this application is responsible for loading to
 * RAM any sections that are required.
 */  

void alt_load (void)
{
  80c9a0:	defffe04 	addi	sp,sp,-8
  80c9a4:	dfc00115 	stw	ra,4(sp)
  80c9a8:	df000015 	stw	fp,0(sp)
  80c9ac:	d839883a 	mov	fp,sp
  /* 
   * Copy the .rwdata section. 
   */

  alt_load_section (&__flash_rwdata_start, 
  80c9b0:	01002074 	movhi	r4,129
  80c9b4:	210dfb04 	addi	r4,r4,14316
  80c9b8:	01402074 	movhi	r5,129
  80c9bc:	2946cb04 	addi	r5,r5,6956
  80c9c0:	01802074 	movhi	r6,129
  80c9c4:	318dfb04 	addi	r6,r6,14316
  80c9c8:	080c93c0 	call	80c93c <alt_load_section>

  /*
   * Copy the exception handler.
   */

  alt_load_section (&__flash_exceptions_start, 
  80c9cc:	01002034 	movhi	r4,128
  80c9d0:	21000804 	addi	r4,r4,32
  80c9d4:	01402034 	movhi	r5,128
  80c9d8:	29400804 	addi	r5,r5,32
  80c9dc:	01802034 	movhi	r6,128
  80c9e0:	31809104 	addi	r6,r6,580
  80c9e4:	080c93c0 	call	80c93c <alt_load_section>

  /*
   * Copy the .rodata section.
   */

  alt_load_section (&__flash_rodata_start, 
  80c9e8:	01002074 	movhi	r4,129
  80c9ec:	21043404 	addi	r4,r4,4304
  80c9f0:	01402074 	movhi	r5,129
  80c9f4:	29443404 	addi	r5,r5,4304
  80c9f8:	01802074 	movhi	r6,129
  80c9fc:	3186cb04 	addi	r6,r6,6956
  80ca00:	080c93c0 	call	80c93c <alt_load_section>
  
  /*
   * Now ensure that the caches are in synch.
   */
  
  alt_dcache_flush_all();
  80ca04:	080ff500 	call	80ff50 <alt_dcache_flush_all>
  alt_icache_flush_all();
  80ca08:	08101d00 	call	8101d0 <alt_icache_flush_all>
}
  80ca0c:	e037883a 	mov	sp,fp
  80ca10:	dfc00117 	ldw	ra,4(sp)
  80ca14:	df000017 	ldw	fp,0(sp)
  80ca18:	dec00204 	addi	sp,sp,8
  80ca1c:	f800283a 	ret

0080ca20 <alt_get_errno>:
#undef errno

extern int errno;

static ALT_INLINE int* alt_get_errno(void)
{
  80ca20:	defffe04 	addi	sp,sp,-8
  80ca24:	dfc00115 	stw	ra,4(sp)
  80ca28:	df000015 	stw	fp,0(sp)
  80ca2c:	d839883a 	mov	fp,sp
  return ((alt_errno) ? alt_errno() : &errno);
  80ca30:	00802074 	movhi	r2,129
  80ca34:	108df404 	addi	r2,r2,14288
  80ca38:	10800017 	ldw	r2,0(r2)
  80ca3c:	10000526 	beq	r2,zero,80ca54 <alt_get_errno+0x34>
  80ca40:	00802074 	movhi	r2,129
  80ca44:	108df404 	addi	r2,r2,14288
  80ca48:	10800017 	ldw	r2,0(r2)
  80ca4c:	103ee83a 	callr	r2
  80ca50:	00000206 	br	80ca5c <alt_get_errno+0x3c>
  80ca54:	00802074 	movhi	r2,129
  80ca58:	10953804 	addi	r2,r2,21728
}
  80ca5c:	e037883a 	mov	sp,fp
  80ca60:	dfc00117 	ldw	ra,4(sp)
  80ca64:	df000017 	ldw	fp,0(sp)
  80ca68:	dec00204 	addi	sp,sp,8
  80ca6c:	f800283a 	ret

0080ca70 <lseek>:
 * ALT_LSEEK is mapped onto the lseek() system call in alt_syscall.h
 *
 */

off_t ALT_LSEEK (int file, off_t ptr, int dir)
{
  80ca70:	defff904 	addi	sp,sp,-28
  80ca74:	dfc00615 	stw	ra,24(sp)
  80ca78:	df000515 	stw	fp,20(sp)
  80ca7c:	df000504 	addi	fp,sp,20
  80ca80:	e13ffd15 	stw	r4,-12(fp)
  80ca84:	e17ffe15 	stw	r5,-8(fp)
  80ca88:	e1bfff15 	stw	r6,-4(fp)
  alt_fd* fd;
  off_t   rc = 0; 
  80ca8c:	e03ffb15 	stw	zero,-20(fp)
   * A common error case is that when the file descriptor was created, the call
   * to open() failed resulting in a negative file descriptor. This is trapped
   * below so that we don't try and process an invalid file descriptor.
   */

  fd = (file < 0) ? NULL : &alt_fd_list[file];
  80ca90:	e0bffd17 	ldw	r2,-12(fp)
  80ca94:	10000616 	blt	r2,zero,80cab0 <lseek+0x40>
  80ca98:	e0bffd17 	ldw	r2,-12(fp)
  80ca9c:	10c00324 	muli	r3,r2,12
  80caa0:	00802074 	movhi	r2,129
  80caa4:	1088e004 	addi	r2,r2,9088
  80caa8:	1885883a 	add	r2,r3,r2
  80caac:	00000106 	br	80cab4 <lseek+0x44>
  80cab0:	0005883a 	mov	r2,zero
  80cab4:	e0bffc15 	stw	r2,-16(fp)
  
  if (fd) 
  80cab8:	e0bffc17 	ldw	r2,-16(fp)
  80cabc:	10001026 	beq	r2,zero,80cb00 <lseek+0x90>
    /*
     * If the device driver provides an implementation of the lseek() function,
     * then call that to process the request.
     */
 
    if (fd->dev->lseek)
  80cac0:	e0bffc17 	ldw	r2,-16(fp)
  80cac4:	10800017 	ldw	r2,0(r2)
  80cac8:	10800717 	ldw	r2,28(r2)
  80cacc:	10000926 	beq	r2,zero,80caf4 <lseek+0x84>
    {
      rc = fd->dev->lseek(fd, ptr, dir);
  80cad0:	e0bffc17 	ldw	r2,-16(fp)
  80cad4:	10800017 	ldw	r2,0(r2)
  80cad8:	10800717 	ldw	r2,28(r2)
  80cadc:	e13ffc17 	ldw	r4,-16(fp)
  80cae0:	e17ffe17 	ldw	r5,-8(fp)
  80cae4:	e1bfff17 	ldw	r6,-4(fp)
  80cae8:	103ee83a 	callr	r2
  80caec:	e0bffb15 	stw	r2,-20(fp)
  80caf0:	00000506 	br	80cb08 <lseek+0x98>
     * Otherwise return an error.
     */

    else
    {
      rc = -ENOTSUP;
  80caf4:	00bfde84 	movi	r2,-134
  80caf8:	e0bffb15 	stw	r2,-20(fp)
  80cafc:	00000206 	br	80cb08 <lseek+0x98>
    }
  }
  else  
  {
    rc = -EBADFD;
  80cb00:	00bfebc4 	movi	r2,-81
  80cb04:	e0bffb15 	stw	r2,-20(fp)
  }

  if (rc < 0)
  80cb08:	e0bffb17 	ldw	r2,-20(fp)
  80cb0c:	1000070e 	bge	r2,zero,80cb2c <lseek+0xbc>
  {
    ALT_ERRNO = -rc;
  80cb10:	080ca200 	call	80ca20 <alt_get_errno>
  80cb14:	1007883a 	mov	r3,r2
  80cb18:	e0bffb17 	ldw	r2,-20(fp)
  80cb1c:	0085c83a 	sub	r2,zero,r2
  80cb20:	18800015 	stw	r2,0(r3)
    rc = -1;
  80cb24:	00bfffc4 	movi	r2,-1
  80cb28:	e0bffb15 	stw	r2,-20(fp)
  }

  return rc;
  80cb2c:	e0bffb17 	ldw	r2,-20(fp)
}
  80cb30:	e037883a 	mov	sp,fp
  80cb34:	dfc00117 	ldw	ra,4(sp)
  80cb38:	df000017 	ldw	fp,0(sp)
  80cb3c:	dec00204 	addi	sp,sp,8
  80cb40:	f800283a 	ret

0080cb44 <alt_main>:
 * devices/filesystems/components in the system; and call the entry point for
 * the users application, i.e. main().
 */

void alt_main (void)
{
  80cb44:	defffd04 	addi	sp,sp,-12
  80cb48:	dfc00215 	stw	ra,8(sp)
  80cb4c:	df000115 	stw	fp,4(sp)
  80cb50:	df000104 	addi	fp,sp,4
#endif

  /* ALT LOG - please see HAL/sys/alt_log_printf.h for details */
  ALT_LOG_PRINT_BOOT("[alt_main.c] Entering alt_main, calling alt_irq_init.\r\n");
  /* Initialize the interrupt controller. */
  alt_irq_init (NULL);
  80cb54:	0009883a 	mov	r4,zero
  80cb58:	080d3e00 	call	80d3e0 <alt_irq_init>

  /* Initialize the operating system */
  ALT_LOG_PRINT_BOOT("[alt_main.c] Done alt_irq_init, calling alt_os_init.\r\n");
  ALT_OS_INIT();
  80cb5c:	0001883a 	nop
  ALT_LOG_PRINT_BOOT("[alt_main.c] Done OS Init, calling alt_sem_create.\r\n");
  ALT_SEM_CREATE (&alt_fd_list_lock, 1);

  /* Initialize the device drivers/software components. */
  ALT_LOG_PRINT_BOOT("[alt_main.c] Calling alt_sys_init.\r\n");
  alt_sys_init();
  80cb60:	080d4140 	call	80d414 <alt_sys_init>
   * devices be present (not equal to /dev/null) and if direct drivers
   * aren't being used.
   */

    ALT_LOG_PRINT_BOOT("[alt_main.c] Redirecting IO.\r\n");
    alt_io_redirect(ALT_STDOUT, ALT_STDIN, ALT_STDERR);
  80cb64:	01002074 	movhi	r4,129
  80cb68:	21060f04 	addi	r4,r4,6204
  80cb6c:	01402074 	movhi	r5,129
  80cb70:	29460f04 	addi	r5,r5,6204
  80cb74:	01802074 	movhi	r6,129
  80cb78:	31860f04 	addi	r6,r6,6204
  80cb7c:	08102c00 	call	8102c0 <alt_io_redirect>
  /* 
   * Call the C++ constructors 
   */

  ALT_LOG_PRINT_BOOT("[alt_main.c] Calling C++ constructors.\r\n");
  _do_ctors ();
  80cb80:	08100880 	call	810088 <_do_ctors>
   * redefined as _exit()). This is in the interest of reducing code footprint,
   * in that the atexit() overhead is removed when it's not needed.
   */

  ALT_LOG_PRINT_BOOT("[alt_main.c] Calling atexit.\r\n");
  atexit (_do_dtors);
  80cb84:	01002074 	movhi	r4,129
  80cb88:	21003904 	addi	r4,r4,228
  80cb8c:	0810bf40 	call	810bf4 <atexit>
  ALT_LOG_PRINT_BOOT("[alt_main.c] Calling main.\r\n");

#ifdef ALT_NO_EXIT
  main (alt_argc, alt_argv, alt_envp);
#else
  result = main (alt_argc, alt_argv, alt_envp);
  80cb90:	d1275017 	ldw	r4,-25280(gp)
  80cb94:	d0e75117 	ldw	r3,-25276(gp)
  80cb98:	d0a75217 	ldw	r2,-25272(gp)
  80cb9c:	180b883a 	mov	r5,r3
  80cba0:	100d883a 	mov	r6,r2
  80cba4:	08082c00 	call	8082c0 <main>
  80cba8:	e0bfff15 	stw	r2,-4(fp)
  close(STDOUT_FILENO);
  80cbac:	01000044 	movi	r4,1
  80cbb0:	080c64c0 	call	80c64c <close>
  exit (result);
  80cbb4:	e13fff17 	ldw	r4,-4(fp)
  80cbb8:	0810c080 	call	810c08 <exit>

0080cbbc <__malloc_lock>:
 * configuration is single threaded, so there is nothing to do here. Note that 
 * this requires that malloc is never called by an interrupt service routine.
 */

void __malloc_lock ( struct _reent *_r )
{
  80cbbc:	defffe04 	addi	sp,sp,-8
  80cbc0:	df000115 	stw	fp,4(sp)
  80cbc4:	df000104 	addi	fp,sp,4
  80cbc8:	e13fff15 	stw	r4,-4(fp)
}
  80cbcc:	e037883a 	mov	sp,fp
  80cbd0:	df000017 	ldw	fp,0(sp)
  80cbd4:	dec00104 	addi	sp,sp,4
  80cbd8:	f800283a 	ret

0080cbdc <__malloc_unlock>:
/*
 *
 */

void __malloc_unlock ( struct _reent *_r )
{
  80cbdc:	defffe04 	addi	sp,sp,-8
  80cbe0:	df000115 	stw	fp,4(sp)
  80cbe4:	df000104 	addi	fp,sp,4
  80cbe8:	e13fff15 	stw	r4,-4(fp)
}
  80cbec:	e037883a 	mov	sp,fp
  80cbf0:	df000017 	ldw	fp,0(sp)
  80cbf4:	dec00104 	addi	sp,sp,4
  80cbf8:	f800283a 	ret

0080cbfc <alt_printf>:
/* 
 * ALT printf function 
 */
void 
alt_printf(const char* fmt, ... )
{
  80cbfc:	defff204 	addi	sp,sp,-56
  80cc00:	dfc00a15 	stw	ra,40(sp)
  80cc04:	df000915 	stw	fp,36(sp)
  80cc08:	df000904 	addi	fp,sp,36
  80cc0c:	e1400215 	stw	r5,8(fp)
  80cc10:	e1800315 	stw	r6,12(fp)
  80cc14:	e1c00415 	stw	r7,16(fp)
  80cc18:	e13fff15 	stw	r4,-4(fp)
	va_list args;
	va_start(args, fmt);
  80cc1c:	e0800204 	addi	r2,fp,8
  80cc20:	e0bffe15 	stw	r2,-8(fp)
    const char *w;
    char c;

    /* Process format string. */
    w = fmt;
  80cc24:	e0bfff17 	ldw	r2,-4(fp)
  80cc28:	e0bff715 	stw	r2,-36(fp)
    while ((c = *w++) != 0)
  80cc2c:	00007106 	br	80cdf4 <alt_printf+0x1f8>
    {
        /* If not a format escape character, just print  */
        /* character.  Otherwise, process format string. */
        if (c != '%')
  80cc30:	e0bff807 	ldb	r2,-32(fp)
  80cc34:	10800960 	cmpeqi	r2,r2,37
  80cc38:	1000041e 	bne	r2,zero,80cc4c <alt_printf+0x50>
        {
            alt_putchar(c);
  80cc3c:	e0bff807 	ldb	r2,-32(fp)
  80cc40:	1009883a 	mov	r4,r2
  80cc44:	080ce240 	call	80ce24 <alt_putchar>
  80cc48:	00006a06 	br	80cdf4 <alt_printf+0x1f8>
        }
        else
        {
            /* Get format character.  If none     */
            /* available, processing is complete. */
            if ((c = *w++) != 0)
  80cc4c:	e0bff717 	ldw	r2,-36(fp)
  80cc50:	10c00044 	addi	r3,r2,1
  80cc54:	e0fff715 	stw	r3,-36(fp)
  80cc58:	10800003 	ldbu	r2,0(r2)
  80cc5c:	e0bff805 	stb	r2,-32(fp)
  80cc60:	e0bff807 	ldb	r2,-32(fp)
  80cc64:	10006226 	beq	r2,zero,80cdf0 <alt_printf+0x1f4>
            {
                if (c == '%')
  80cc68:	e0bff807 	ldb	r2,-32(fp)
  80cc6c:	10800958 	cmpnei	r2,r2,37
  80cc70:	1000041e 	bne	r2,zero,80cc84 <alt_printf+0x88>
                {
                    /* Process "%" escape sequence. */
                    alt_putchar(c);
  80cc74:	e0bff807 	ldb	r2,-32(fp)
  80cc78:	1009883a 	mov	r4,r2
  80cc7c:	080ce240 	call	80ce24 <alt_putchar>
  80cc80:	00005c06 	br	80cdf4 <alt_printf+0x1f8>
                } 
                else if (c == 'c')
  80cc84:	e0bff807 	ldb	r2,-32(fp)
  80cc88:	108018d8 	cmpnei	r2,r2,99
  80cc8c:	1000081e 	bne	r2,zero,80ccb0 <alt_printf+0xb4>
                {
                    int v = va_arg(args, int);
  80cc90:	e0bffe17 	ldw	r2,-8(fp)
  80cc94:	10c00104 	addi	r3,r2,4
  80cc98:	e0fffe15 	stw	r3,-8(fp)
  80cc9c:	10800017 	ldw	r2,0(r2)
  80cca0:	e0bffd15 	stw	r2,-12(fp)
                    alt_putchar(v);
  80cca4:	e13ffd17 	ldw	r4,-12(fp)
  80cca8:	080ce240 	call	80ce24 <alt_putchar>
  80ccac:	00005106 	br	80cdf4 <alt_printf+0x1f8>
                }
                else if (c == 'x')
  80ccb0:	e0bff807 	ldb	r2,-32(fp)
  80ccb4:	10801e18 	cmpnei	r2,r2,120
  80ccb8:	1000341e 	bne	r2,zero,80cd8c <alt_printf+0x190>
                {
                    /* Process hexadecimal number format. */
                    unsigned long v = va_arg(args, unsigned long);
  80ccbc:	e0bffe17 	ldw	r2,-8(fp)
  80ccc0:	10c00104 	addi	r3,r2,4
  80ccc4:	e0fffe15 	stw	r3,-8(fp)
  80ccc8:	10800017 	ldw	r2,0(r2)
  80cccc:	e0bffb15 	stw	r2,-20(fp)
                    unsigned long digit;
                    int digit_shift;

                    /* If the number value is zero, just print and continue. */
                    if (v == 0)
  80ccd0:	e0bffb17 	ldw	r2,-20(fp)
  80ccd4:	1000031e 	bne	r2,zero,80cce4 <alt_printf+0xe8>
                    {
                        alt_putchar('0');
  80ccd8:	01000c04 	movi	r4,48
  80ccdc:	080ce240 	call	80ce24 <alt_putchar>
                        continue;
  80cce0:	00004406 	br	80cdf4 <alt_printf+0x1f8>
                    }

                    /* Find first non-zero digit. */
                    digit_shift = 28;
  80cce4:	00800704 	movi	r2,28
  80cce8:	e0bff915 	stw	r2,-28(fp)
                    while (!(v & (0xF << digit_shift)))
  80ccec:	00000306 	br	80ccfc <alt_printf+0x100>
                        digit_shift -= 4;
  80ccf0:	e0bff917 	ldw	r2,-28(fp)
  80ccf4:	10bfff04 	addi	r2,r2,-4
  80ccf8:	e0bff915 	stw	r2,-28(fp)
                        continue;
                    }

                    /* Find first non-zero digit. */
                    digit_shift = 28;
                    while (!(v & (0xF << digit_shift)))
  80ccfc:	00c003c4 	movi	r3,15
  80cd00:	e0bff917 	ldw	r2,-28(fp)
  80cd04:	1884983a 	sll	r2,r3,r2
  80cd08:	1007883a 	mov	r3,r2
  80cd0c:	e0bffb17 	ldw	r2,-20(fp)
  80cd10:	1884703a 	and	r2,r3,r2
  80cd14:	103ff626 	beq	r2,zero,80ccf0 <__alt_data_end+0xff80ccf0>
                        digit_shift -= 4;

                    /* Print digits. */
                    for (; digit_shift >= 0; digit_shift -= 4)
  80cd18:	00001906 	br	80cd80 <alt_printf+0x184>
                    {
                        digit = (v & (0xF << digit_shift)) >> digit_shift;
  80cd1c:	00c003c4 	movi	r3,15
  80cd20:	e0bff917 	ldw	r2,-28(fp)
  80cd24:	1884983a 	sll	r2,r3,r2
  80cd28:	1007883a 	mov	r3,r2
  80cd2c:	e0bffb17 	ldw	r2,-20(fp)
  80cd30:	1886703a 	and	r3,r3,r2
  80cd34:	e0bff917 	ldw	r2,-28(fp)
  80cd38:	1884d83a 	srl	r2,r3,r2
  80cd3c:	e0bffc15 	stw	r2,-16(fp)
                        if (digit <= 9)
  80cd40:	e0bffc17 	ldw	r2,-16(fp)
  80cd44:	108002a8 	cmpgeui	r2,r2,10
  80cd48:	1000041e 	bne	r2,zero,80cd5c <alt_printf+0x160>
                            c = '0' + digit;
  80cd4c:	e0bffc17 	ldw	r2,-16(fp)
  80cd50:	10800c04 	addi	r2,r2,48
  80cd54:	e0bff805 	stb	r2,-32(fp)
  80cd58:	00000306 	br	80cd68 <alt_printf+0x16c>
                        else
                            c = 'a' + digit - 10;
  80cd5c:	e0bffc17 	ldw	r2,-16(fp)
  80cd60:	108015c4 	addi	r2,r2,87
  80cd64:	e0bff805 	stb	r2,-32(fp)
                        alt_putchar(c);
  80cd68:	e0bff807 	ldb	r2,-32(fp)
  80cd6c:	1009883a 	mov	r4,r2
  80cd70:	080ce240 	call	80ce24 <alt_putchar>
                    digit_shift = 28;
                    while (!(v & (0xF << digit_shift)))
                        digit_shift -= 4;

                    /* Print digits. */
                    for (; digit_shift >= 0; digit_shift -= 4)
  80cd74:	e0bff917 	ldw	r2,-28(fp)
  80cd78:	10bfff04 	addi	r2,r2,-4
  80cd7c:	e0bff915 	stw	r2,-28(fp)
  80cd80:	e0bff917 	ldw	r2,-28(fp)
  80cd84:	103fe50e 	bge	r2,zero,80cd1c <__alt_data_end+0xff80cd1c>
  80cd88:	00001a06 	br	80cdf4 <alt_printf+0x1f8>
                        else
                            c = 'a' + digit - 10;
                        alt_putchar(c);
                    }
                }
                else if (c == 's')
  80cd8c:	e0bff807 	ldb	r2,-32(fp)
  80cd90:	10801cd8 	cmpnei	r2,r2,115
  80cd94:	1000151e 	bne	r2,zero,80cdec <alt_printf+0x1f0>
                {
                    /* Process string format. */
                    char *s = va_arg(args, char *);
  80cd98:	e0bffe17 	ldw	r2,-8(fp)
  80cd9c:	10c00104 	addi	r3,r2,4
  80cda0:	e0fffe15 	stw	r3,-8(fp)
  80cda4:	10800017 	ldw	r2,0(r2)
  80cda8:	e0bffa15 	stw	r2,-24(fp)

                    while(*s)
  80cdac:	00000906 	br	80cdd4 <alt_printf+0x1d8>
                      alt_putchar(*s++);
  80cdb0:	e0bffa17 	ldw	r2,-24(fp)
  80cdb4:	10c00044 	addi	r3,r2,1
  80cdb8:	e0fffa15 	stw	r3,-24(fp)
  80cdbc:	10800003 	ldbu	r2,0(r2)
  80cdc0:	10803fcc 	andi	r2,r2,255
  80cdc4:	1080201c 	xori	r2,r2,128
  80cdc8:	10bfe004 	addi	r2,r2,-128
  80cdcc:	1009883a 	mov	r4,r2
  80cdd0:	080ce240 	call	80ce24 <alt_putchar>
                else if (c == 's')
                {
                    /* Process string format. */
                    char *s = va_arg(args, char *);

                    while(*s)
  80cdd4:	e0bffa17 	ldw	r2,-24(fp)
  80cdd8:	10800003 	ldbu	r2,0(r2)
  80cddc:	10803fcc 	andi	r2,r2,255
  80cde0:	1080201c 	xori	r2,r2,128
  80cde4:	10bfe004 	addi	r2,r2,-128
  80cde8:	103ff11e 	bne	r2,zero,80cdb0 <__alt_data_end+0xff80cdb0>
  80cdec:	00000106 	br	80cdf4 <alt_printf+0x1f8>
                      alt_putchar(*s++);
                }
            }
            else
            {
                break;
  80cdf0:	00000706 	br	80ce10 <alt_printf+0x214>
    const char *w;
    char c;

    /* Process format string. */
    w = fmt;
    while ((c = *w++) != 0)
  80cdf4:	e0bff717 	ldw	r2,-36(fp)
  80cdf8:	10c00044 	addi	r3,r2,1
  80cdfc:	e0fff715 	stw	r3,-36(fp)
  80ce00:	10800003 	ldbu	r2,0(r2)
  80ce04:	e0bff805 	stb	r2,-32(fp)
  80ce08:	e0bff807 	ldb	r2,-32(fp)
  80ce0c:	103f881e 	bne	r2,zero,80cc30 <__alt_data_end+0xff80cc30>
        }
    }
#ifdef ALT_SEMIHOSTING
    alt_putbufflush();
#endif
}
  80ce10:	e037883a 	mov	sp,fp
  80ce14:	dfc00117 	ldw	ra,4(sp)
  80ce18:	df000017 	ldw	fp,0(sp)
  80ce1c:	dec00504 	addi	sp,sp,20
  80ce20:	f800283a 	ret

0080ce24 <alt_putchar>:
 * Uses the ALT_DRIVER_WRITE() macro to call directly to driver if available.
 * Otherwise, uses newlib provided putchar() routine.
 */
int 
alt_putchar(int c)
{
  80ce24:	defffd04 	addi	sp,sp,-12
  80ce28:	dfc00215 	stw	ra,8(sp)
  80ce2c:	df000115 	stw	fp,4(sp)
  80ce30:	df000104 	addi	fp,sp,4
  80ce34:	e13fff15 	stw	r4,-4(fp)
    if (ALT_DRIVER_WRITE(ALT_STDOUT_DEV, &c1, 1, 0) == -1) {
        return -1;
    }
    return c;
#else
    return putchar(c);
  80ce38:	00802074 	movhi	r2,129
  80ce3c:	108dec04 	addi	r2,r2,14256
  80ce40:	10800017 	ldw	r2,0(r2)
  80ce44:	10800217 	ldw	r2,8(r2)
  80ce48:	e13fff17 	ldw	r4,-4(fp)
  80ce4c:	100b883a 	mov	r5,r2
  80ce50:	080b2500 	call	80b250 <putc>
#endif
#endif
}
  80ce54:	e037883a 	mov	sp,fp
  80ce58:	dfc00117 	ldw	ra,4(sp)
  80ce5c:	df000017 	ldw	fp,0(sp)
  80ce60:	dec00204 	addi	sp,sp,8
  80ce64:	f800283a 	ret

0080ce68 <alt_get_errno>:
#undef errno

extern int errno;

static ALT_INLINE int* alt_get_errno(void)
{
  80ce68:	defffe04 	addi	sp,sp,-8
  80ce6c:	dfc00115 	stw	ra,4(sp)
  80ce70:	df000015 	stw	fp,0(sp)
  80ce74:	d839883a 	mov	fp,sp
  return ((alt_errno) ? alt_errno() : &errno);
  80ce78:	00802074 	movhi	r2,129
  80ce7c:	108df404 	addi	r2,r2,14288
  80ce80:	10800017 	ldw	r2,0(r2)
  80ce84:	10000526 	beq	r2,zero,80ce9c <alt_get_errno+0x34>
  80ce88:	00802074 	movhi	r2,129
  80ce8c:	108df404 	addi	r2,r2,14288
  80ce90:	10800017 	ldw	r2,0(r2)
  80ce94:	103ee83a 	callr	r2
  80ce98:	00000206 	br	80cea4 <alt_get_errno+0x3c>
  80ce9c:	00802074 	movhi	r2,129
  80cea0:	10953804 	addi	r2,r2,21728
}
  80cea4:	e037883a 	mov	sp,fp
  80cea8:	dfc00117 	ldw	ra,4(sp)
  80ceac:	df000017 	ldw	fp,0(sp)
  80ceb0:	dec00204 	addi	sp,sp,8
  80ceb4:	f800283a 	ret

0080ceb8 <read>:
}

#else /* !ALT_USE_DIRECT_DRIVERS */

int ALT_READ (int file, void *ptr, size_t len)
{
  80ceb8:	defff904 	addi	sp,sp,-28
  80cebc:	dfc00615 	stw	ra,24(sp)
  80cec0:	df000515 	stw	fp,20(sp)
  80cec4:	df000504 	addi	fp,sp,20
  80cec8:	e13ffd15 	stw	r4,-12(fp)
  80cecc:	e17ffe15 	stw	r5,-8(fp)
  80ced0:	e1bfff15 	stw	r6,-4(fp)
   * A common error case is that when the file descriptor was created, the call
   * to open() failed resulting in a negative file descriptor. This is trapped
   * below so that we don't try and process an invalid file descriptor.
   */

  fd = (file < 0) ? NULL : &alt_fd_list[file];
  80ced4:	e0bffd17 	ldw	r2,-12(fp)
  80ced8:	10000616 	blt	r2,zero,80cef4 <read+0x3c>
  80cedc:	e0bffd17 	ldw	r2,-12(fp)
  80cee0:	10c00324 	muli	r3,r2,12
  80cee4:	00802074 	movhi	r2,129
  80cee8:	1088e004 	addi	r2,r2,9088
  80ceec:	1885883a 	add	r2,r3,r2
  80cef0:	00000106 	br	80cef8 <read+0x40>
  80cef4:	0005883a 	mov	r2,zero
  80cef8:	e0bffb15 	stw	r2,-20(fp)
  
  if (fd)
  80cefc:	e0bffb17 	ldw	r2,-20(fp)
  80cf00:	10002226 	beq	r2,zero,80cf8c <read+0xd4>
     * If the file has not been opened with read access, or if the driver does
     * not provide an implementation of read(), generate an error. Otherwise
     * call the drivers read() function to process the request.
     */

    if (((fd->fd_flags & O_ACCMODE) != O_WRONLY) && 
  80cf04:	e0bffb17 	ldw	r2,-20(fp)
  80cf08:	10800217 	ldw	r2,8(r2)
  80cf0c:	108000cc 	andi	r2,r2,3
  80cf10:	10800060 	cmpeqi	r2,r2,1
  80cf14:	1000181e 	bne	r2,zero,80cf78 <read+0xc0>
        (fd->dev->read))
  80cf18:	e0bffb17 	ldw	r2,-20(fp)
  80cf1c:	10800017 	ldw	r2,0(r2)
  80cf20:	10800517 	ldw	r2,20(r2)
     * If the file has not been opened with read access, or if the driver does
     * not provide an implementation of read(), generate an error. Otherwise
     * call the drivers read() function to process the request.
     */

    if (((fd->fd_flags & O_ACCMODE) != O_WRONLY) && 
  80cf24:	10001426 	beq	r2,zero,80cf78 <read+0xc0>
        (fd->dev->read))
      {
        if ((rval = fd->dev->read(fd, ptr, len)) < 0)
  80cf28:	e0bffb17 	ldw	r2,-20(fp)
  80cf2c:	10800017 	ldw	r2,0(r2)
  80cf30:	10800517 	ldw	r2,20(r2)
  80cf34:	e0ffff17 	ldw	r3,-4(fp)
  80cf38:	e13ffb17 	ldw	r4,-20(fp)
  80cf3c:	e17ffe17 	ldw	r5,-8(fp)
  80cf40:	180d883a 	mov	r6,r3
  80cf44:	103ee83a 	callr	r2
  80cf48:	e0bffc15 	stw	r2,-16(fp)
  80cf4c:	e0bffc17 	ldw	r2,-16(fp)
  80cf50:	1000070e 	bge	r2,zero,80cf70 <read+0xb8>
        {
          ALT_ERRNO = -rval;
  80cf54:	080ce680 	call	80ce68 <alt_get_errno>
  80cf58:	1007883a 	mov	r3,r2
  80cf5c:	e0bffc17 	ldw	r2,-16(fp)
  80cf60:	0085c83a 	sub	r2,zero,r2
  80cf64:	18800015 	stw	r2,0(r3)
          return -1;
  80cf68:	00bfffc4 	movi	r2,-1
  80cf6c:	00000c06 	br	80cfa0 <read+0xe8>
        }
        return rval;
  80cf70:	e0bffc17 	ldw	r2,-16(fp)
  80cf74:	00000a06 	br	80cfa0 <read+0xe8>
      }
      else
      {
        ALT_ERRNO = EACCES;
  80cf78:	080ce680 	call	80ce68 <alt_get_errno>
  80cf7c:	1007883a 	mov	r3,r2
  80cf80:	00800344 	movi	r2,13
  80cf84:	18800015 	stw	r2,0(r3)
  80cf88:	00000406 	br	80cf9c <read+0xe4>
      }
    }
  else
  {
    ALT_ERRNO = EBADFD;
  80cf8c:	080ce680 	call	80ce68 <alt_get_errno>
  80cf90:	1007883a 	mov	r3,r2
  80cf94:	00801444 	movi	r2,81
  80cf98:	18800015 	stw	r2,0(r3)
  }
  return -1;
  80cf9c:	00bfffc4 	movi	r2,-1
}
  80cfa0:	e037883a 	mov	sp,fp
  80cfa4:	dfc00117 	ldw	ra,4(sp)
  80cfa8:	df000017 	ldw	fp,0(sp)
  80cfac:	dec00204 	addi	sp,sp,8
  80cfb0:	f800283a 	ret

0080cfb4 <alt_release_fd>:
 * File descriptors correcponding to standard in, standard out and standard 
 * error cannont be released backed to the pool. They are always reserved.
 */

void alt_release_fd (int fd)
{
  80cfb4:	defffe04 	addi	sp,sp,-8
  80cfb8:	df000115 	stw	fp,4(sp)
  80cfbc:	df000104 	addi	fp,sp,4
  80cfc0:	e13fff15 	stw	r4,-4(fp)
  if (fd > 2)
  80cfc4:	e0bfff17 	ldw	r2,-4(fp)
  80cfc8:	108000d0 	cmplti	r2,r2,3
  80cfcc:	10000d1e 	bne	r2,zero,80d004 <alt_release_fd+0x50>
  {
    alt_fd_list[fd].fd_flags = 0;
  80cfd0:	00802074 	movhi	r2,129
  80cfd4:	1088e004 	addi	r2,r2,9088
  80cfd8:	e0ffff17 	ldw	r3,-4(fp)
  80cfdc:	18c00324 	muli	r3,r3,12
  80cfe0:	18c00204 	addi	r3,r3,8
  80cfe4:	10c5883a 	add	r2,r2,r3
  80cfe8:	10000015 	stw	zero,0(r2)
    alt_fd_list[fd].dev      = 0;
  80cfec:	00802074 	movhi	r2,129
  80cff0:	1088e004 	addi	r2,r2,9088
  80cff4:	e0ffff17 	ldw	r3,-4(fp)
  80cff8:	18c00324 	muli	r3,r3,12
  80cffc:	10c5883a 	add	r2,r2,r3
  80d000:	10000015 	stw	zero,0(r2)
  }
}
  80d004:	e037883a 	mov	sp,fp
  80d008:	df000017 	ldw	fp,0(sp)
  80d00c:	dec00104 	addi	sp,sp,4
  80d010:	f800283a 	ret

0080d014 <sbrk>:
#endif
 
caddr_t ALT_SBRK (int incr) __attribute__ ((no_instrument_function ));

caddr_t ALT_SBRK (int incr)
{ 
  80d014:	defff904 	addi	sp,sp,-28
  80d018:	df000615 	stw	fp,24(sp)
  80d01c:	df000604 	addi	fp,sp,24
  80d020:	e13fff15 	stw	r4,-4(fp)
static ALT_INLINE alt_irq_context ALT_ALWAYS_INLINE 
       alt_irq_disable_all (void)
{
  alt_irq_context context;

  NIOS2_READ_STATUS (context);
  80d024:	0005303a 	rdctl	r2,status
  80d028:	e0bffc15 	stw	r2,-16(fp)

  NIOS2_WRITE_STATUS (context & ~NIOS2_STATUS_PIE_MSK);
  80d02c:	e0fffc17 	ldw	r3,-16(fp)
  80d030:	00bfff84 	movi	r2,-2
  80d034:	1884703a 	and	r2,r3,r2
  80d038:	1001703a 	wrctl	status,r2
  
  return context;
  80d03c:	e0bffc17 	ldw	r2,-16(fp)
  alt_irq_context context;
  char *prev_heap_end; 

  context = alt_irq_disable_all();
  80d040:	e0bffa15 	stw	r2,-24(fp)

  /* Always return data aligned on a word boundary */
  heap_end = (char *)(((unsigned int)heap_end + 3) & ~3);
  80d044:	d0a00c17 	ldw	r2,-32720(gp)
  80d048:	10c000c4 	addi	r3,r2,3
  80d04c:	00bfff04 	movi	r2,-4
  80d050:	1884703a 	and	r2,r3,r2
  80d054:	d0a00c15 	stw	r2,-32720(gp)
  if (((heap_end + incr) - __alt_heap_start) > ALT_MAX_HEAP_BYTES) {
    alt_irq_enable_all(context);
    return (caddr_t)-1;
  }
#else
  if ((heap_end + incr) > __alt_heap_limit) {
  80d058:	d0e00c17 	ldw	r3,-32720(gp)
  80d05c:	e0bfff17 	ldw	r2,-4(fp)
  80d060:	1887883a 	add	r3,r3,r2
  80d064:	00804034 	movhi	r2,256
  80d068:	10800004 	addi	r2,r2,0
  80d06c:	10c0062e 	bgeu	r2,r3,80d088 <sbrk+0x74>
  80d070:	e0bffa17 	ldw	r2,-24(fp)
  80d074:	e0bffd15 	stw	r2,-12(fp)
  status &= ~NIOS2_STATUS_PIE_MSK;
  status |= (context & NIOS2_STATUS_PIE_MSK);
  
  NIOS2_WRITE_STATUS (status);
#else
  NIOS2_WRITE_STATUS (context);
  80d078:	e0bffd17 	ldw	r2,-12(fp)
  80d07c:	1001703a 	wrctl	status,r2
    alt_irq_enable_all(context);
    return (caddr_t)-1;
  80d080:	00bfffc4 	movi	r2,-1
  80d084:	00000b06 	br	80d0b4 <sbrk+0xa0>
  }
#endif

  prev_heap_end = heap_end; 
  80d088:	d0a00c17 	ldw	r2,-32720(gp)
  80d08c:	e0bffb15 	stw	r2,-20(fp)
  heap_end += incr; 
  80d090:	d0e00c17 	ldw	r3,-32720(gp)
  80d094:	e0bfff17 	ldw	r2,-4(fp)
  80d098:	1885883a 	add	r2,r3,r2
  80d09c:	d0a00c15 	stw	r2,-32720(gp)
  80d0a0:	e0bffa17 	ldw	r2,-24(fp)
  80d0a4:	e0bffe15 	stw	r2,-8(fp)
  80d0a8:	e0bffe17 	ldw	r2,-8(fp)
  80d0ac:	1001703a 	wrctl	status,r2

#endif

  alt_irq_enable_all(context);

  return (caddr_t) prev_heap_end; 
  80d0b0:	e0bffb17 	ldw	r2,-20(fp)
} 
  80d0b4:	e037883a 	mov	sp,fp
  80d0b8:	df000017 	ldw	fp,0(sp)
  80d0bc:	dec00104 	addi	sp,sp,4
  80d0c0:	f800283a 	ret

0080d0c4 <alt_alarm_stop>:
 * alarms. Alternatively an alarm can unregister itself by returning zero when 
 * the alarm executes.
 */

void alt_alarm_stop (alt_alarm* alarm)
{
  80d0c4:	defffa04 	addi	sp,sp,-24
  80d0c8:	df000515 	stw	fp,20(sp)
  80d0cc:	df000504 	addi	fp,sp,20
  80d0d0:	e13fff15 	stw	r4,-4(fp)
static ALT_INLINE alt_irq_context ALT_ALWAYS_INLINE 
       alt_irq_disable_all (void)
{
  alt_irq_context context;

  NIOS2_READ_STATUS (context);
  80d0d4:	0005303a 	rdctl	r2,status
  80d0d8:	e0bffc15 	stw	r2,-16(fp)

  NIOS2_WRITE_STATUS (context & ~NIOS2_STATUS_PIE_MSK);
  80d0dc:	e0fffc17 	ldw	r3,-16(fp)
  80d0e0:	00bfff84 	movi	r2,-2
  80d0e4:	1884703a 	and	r2,r3,r2
  80d0e8:	1001703a 	wrctl	status,r2
  
  return context;
  80d0ec:	e0bffc17 	ldw	r2,-16(fp)
  alt_irq_context irq_context;

  irq_context = alt_irq_disable_all();
  80d0f0:	e0bffb15 	stw	r2,-20(fp)
  alt_llist_remove (&alarm->llist);
  80d0f4:	e0bfff17 	ldw	r2,-4(fp)
  80d0f8:	e0bffd15 	stw	r2,-12(fp)
 * input argument is the element to remove.
 */
     
static ALT_INLINE void ALT_ALWAYS_INLINE alt_llist_remove(alt_llist* entry)
{
  entry->next->previous = entry->previous;
  80d0fc:	e0bffd17 	ldw	r2,-12(fp)
  80d100:	10800017 	ldw	r2,0(r2)
  80d104:	e0fffd17 	ldw	r3,-12(fp)
  80d108:	18c00117 	ldw	r3,4(r3)
  80d10c:	10c00115 	stw	r3,4(r2)
  entry->previous->next = entry->next;
  80d110:	e0bffd17 	ldw	r2,-12(fp)
  80d114:	10800117 	ldw	r2,4(r2)
  80d118:	e0fffd17 	ldw	r3,-12(fp)
  80d11c:	18c00017 	ldw	r3,0(r3)
  80d120:	10c00015 	stw	r3,0(r2)
  /* 
   * Set the entry to point to itself, so that any further calls to
   * alt_llist_remove() are harmless.
   */

  entry->previous = entry;
  80d124:	e0bffd17 	ldw	r2,-12(fp)
  80d128:	e0fffd17 	ldw	r3,-12(fp)
  80d12c:	10c00115 	stw	r3,4(r2)
  entry->next     = entry;
  80d130:	e0bffd17 	ldw	r2,-12(fp)
  80d134:	e0fffd17 	ldw	r3,-12(fp)
  80d138:	10c00015 	stw	r3,0(r2)
  80d13c:	e0bffb17 	ldw	r2,-20(fp)
  80d140:	e0bffe15 	stw	r2,-8(fp)
  status &= ~NIOS2_STATUS_PIE_MSK;
  status |= (context & NIOS2_STATUS_PIE_MSK);
  
  NIOS2_WRITE_STATUS (status);
#else
  NIOS2_WRITE_STATUS (context);
  80d144:	e0bffe17 	ldw	r2,-8(fp)
  80d148:	1001703a 	wrctl	status,r2
  alt_irq_enable_all (irq_context);
}
  80d14c:	e037883a 	mov	sp,fp
  80d150:	df000017 	ldw	fp,0(sp)
  80d154:	dec00104 	addi	sp,sp,4
  80d158:	f800283a 	ret

0080d15c <alt_tick>:
 * 
 * alt_tick() is expected to run at interrupt level.
 */

void alt_tick (void)
{
  80d15c:	defffb04 	addi	sp,sp,-20
  80d160:	dfc00415 	stw	ra,16(sp)
  80d164:	df000315 	stw	fp,12(sp)
  80d168:	df000304 	addi	fp,sp,12
  alt_alarm* next;
  alt_alarm* alarm = (alt_alarm*) alt_alarm_list.next;
  80d16c:	d0a00d17 	ldw	r2,-32716(gp)
  80d170:	e0bffd15 	stw	r2,-12(fp)

  alt_u32    next_callback;

  /* update the tick counter */

  _alt_nticks++;
  80d174:	d0a75417 	ldw	r2,-25264(gp)
  80d178:	10800044 	addi	r2,r2,1
  80d17c:	d0a75415 	stw	r2,-25264(gp)

  /* process the registered callbacks */

  while (alarm != (alt_alarm*) &alt_alarm_list)
  80d180:	00002e06 	br	80d23c <alt_tick+0xe0>
  {
    next = (alt_alarm*) alarm->llist.next;
  80d184:	e0bffd17 	ldw	r2,-12(fp)
  80d188:	10800017 	ldw	r2,0(r2)
  80d18c:	e0bffe15 	stw	r2,-8(fp)
    /* 
     * Upon the tick-counter rolling over it is safe to clear the 
     * roll-over flag; once the flag is cleared this (or subsequnt)
     * tick events are enabled to generate an alarm event. 
     */
    if ((alarm->rollover) && (_alt_nticks == 0))
  80d190:	e0bffd17 	ldw	r2,-12(fp)
  80d194:	10800403 	ldbu	r2,16(r2)
  80d198:	10803fcc 	andi	r2,r2,255
  80d19c:	10000426 	beq	r2,zero,80d1b0 <alt_tick+0x54>
  80d1a0:	d0a75417 	ldw	r2,-25264(gp)
  80d1a4:	1000021e 	bne	r2,zero,80d1b0 <alt_tick+0x54>
    {
      alarm->rollover = 0;
  80d1a8:	e0bffd17 	ldw	r2,-12(fp)
  80d1ac:	10000405 	stb	zero,16(r2)
    }
    
    /* if the alarm period has expired, make the callback */    
    if ((alarm->time <= _alt_nticks) && (alarm->rollover == 0))
  80d1b0:	e0bffd17 	ldw	r2,-12(fp)
  80d1b4:	10800217 	ldw	r2,8(r2)
  80d1b8:	d0e75417 	ldw	r3,-25264(gp)
  80d1bc:	18801d36 	bltu	r3,r2,80d234 <alt_tick+0xd8>
  80d1c0:	e0bffd17 	ldw	r2,-12(fp)
  80d1c4:	10800403 	ldbu	r2,16(r2)
  80d1c8:	10803fcc 	andi	r2,r2,255
  80d1cc:	1000191e 	bne	r2,zero,80d234 <alt_tick+0xd8>
    {
      next_callback = alarm->callback (alarm->context);
  80d1d0:	e0bffd17 	ldw	r2,-12(fp)
  80d1d4:	10800317 	ldw	r2,12(r2)
  80d1d8:	e0fffd17 	ldw	r3,-12(fp)
  80d1dc:	18c00517 	ldw	r3,20(r3)
  80d1e0:	1809883a 	mov	r4,r3
  80d1e4:	103ee83a 	callr	r2
  80d1e8:	e0bfff15 	stw	r2,-4(fp)

      /* deactivate the alarm if the return value is zero */

      if (next_callback == 0)
  80d1ec:	e0bfff17 	ldw	r2,-4(fp)
  80d1f0:	1000031e 	bne	r2,zero,80d200 <alt_tick+0xa4>
      {
        alt_alarm_stop (alarm);
  80d1f4:	e13ffd17 	ldw	r4,-12(fp)
  80d1f8:	080d0c40 	call	80d0c4 <alt_alarm_stop>
  80d1fc:	00000d06 	br	80d234 <alt_tick+0xd8>
      }
      else
      {
        alarm->time += next_callback;
  80d200:	e0bffd17 	ldw	r2,-12(fp)
  80d204:	10c00217 	ldw	r3,8(r2)
  80d208:	e0bfff17 	ldw	r2,-4(fp)
  80d20c:	1887883a 	add	r3,r3,r2
  80d210:	e0bffd17 	ldw	r2,-12(fp)
  80d214:	10c00215 	stw	r3,8(r2)
        /* 
         * If the desired alarm time causes a roll-over, set the rollover
         * flag. This will prevent the subsequent tick event from causing
         * an alarm too early.
         */
        if(alarm->time < _alt_nticks)
  80d218:	e0bffd17 	ldw	r2,-12(fp)
  80d21c:	10c00217 	ldw	r3,8(r2)
  80d220:	d0a75417 	ldw	r2,-25264(gp)
  80d224:	1880032e 	bgeu	r3,r2,80d234 <alt_tick+0xd8>
        {
          alarm->rollover = 1;
  80d228:	e0bffd17 	ldw	r2,-12(fp)
  80d22c:	00c00044 	movi	r3,1
  80d230:	10c00405 	stb	r3,16(r2)
        }
      }
    }
    alarm = next;
  80d234:	e0bffe17 	ldw	r2,-8(fp)
  80d238:	e0bffd15 	stw	r2,-12(fp)

  _alt_nticks++;

  /* process the registered callbacks */

  while (alarm != (alt_alarm*) &alt_alarm_list)
  80d23c:	e0fffd17 	ldw	r3,-12(fp)
  80d240:	d0a00d04 	addi	r2,gp,-32716
  80d244:	18bfcf1e 	bne	r3,r2,80d184 <__alt_data_end+0xff80d184>

  /* 
   * Update the operating system specific timer facilities.
   */

  ALT_OS_TIME_TICK();
  80d248:	0001883a 	nop
}
  80d24c:	e037883a 	mov	sp,fp
  80d250:	dfc00117 	ldw	ra,4(sp)
  80d254:	df000017 	ldw	fp,0(sp)
  80d258:	dec00204 	addi	sp,sp,8
  80d25c:	f800283a 	ret

0080d260 <alt_get_errno>:
#undef errno

extern int errno;

static ALT_INLINE int* alt_get_errno(void)
{
  80d260:	defffe04 	addi	sp,sp,-8
  80d264:	dfc00115 	stw	ra,4(sp)
  80d268:	df000015 	stw	fp,0(sp)
  80d26c:	d839883a 	mov	fp,sp
  return ((alt_errno) ? alt_errno() : &errno);
  80d270:	00802074 	movhi	r2,129
  80d274:	108df404 	addi	r2,r2,14288
  80d278:	10800017 	ldw	r2,0(r2)
  80d27c:	10000526 	beq	r2,zero,80d294 <alt_get_errno+0x34>
  80d280:	00802074 	movhi	r2,129
  80d284:	108df404 	addi	r2,r2,14288
  80d288:	10800017 	ldw	r2,0(r2)
  80d28c:	103ee83a 	callr	r2
  80d290:	00000206 	br	80d29c <alt_get_errno+0x3c>
  80d294:	00802074 	movhi	r2,129
  80d298:	10953804 	addi	r2,r2,21728
}
  80d29c:	e037883a 	mov	sp,fp
  80d2a0:	dfc00117 	ldw	ra,4(sp)
  80d2a4:	df000017 	ldw	fp,0(sp)
  80d2a8:	dec00204 	addi	sp,sp,8
  80d2ac:	f800283a 	ret

0080d2b0 <write>:
}

#else /* !ALT_USE_DIRECT_DRIVERS */

int ALT_WRITE (int file, const void *ptr, size_t len)
{
  80d2b0:	defff904 	addi	sp,sp,-28
  80d2b4:	dfc00615 	stw	ra,24(sp)
  80d2b8:	df000515 	stw	fp,20(sp)
  80d2bc:	df000504 	addi	fp,sp,20
  80d2c0:	e13ffd15 	stw	r4,-12(fp)
  80d2c4:	e17ffe15 	stw	r5,-8(fp)
  80d2c8:	e1bfff15 	stw	r6,-4(fp)
   * A common error case is that when the file descriptor was created, the call
   * to open() failed resulting in a negative file descriptor. This is trapped
   * below so that we don't try and process an invalid file descriptor.
   */

  fd = (file < 0) ? NULL : &alt_fd_list[file];
  80d2cc:	e0bffd17 	ldw	r2,-12(fp)
  80d2d0:	10000616 	blt	r2,zero,80d2ec <write+0x3c>
  80d2d4:	e0bffd17 	ldw	r2,-12(fp)
  80d2d8:	10c00324 	muli	r3,r2,12
  80d2dc:	00802074 	movhi	r2,129
  80d2e0:	1088e004 	addi	r2,r2,9088
  80d2e4:	1885883a 	add	r2,r3,r2
  80d2e8:	00000106 	br	80d2f0 <write+0x40>
  80d2ec:	0005883a 	mov	r2,zero
  80d2f0:	e0bffb15 	stw	r2,-20(fp)
  
  if (fd)
  80d2f4:	e0bffb17 	ldw	r2,-20(fp)
  80d2f8:	10002126 	beq	r2,zero,80d380 <write+0xd0>
     * If the file has not been opened with write access, or if the driver does
     * not provide an implementation of write(), generate an error. Otherwise
     * call the drivers write() function to process the request.
     */

    if (((fd->fd_flags & O_ACCMODE) != O_RDONLY) && fd->dev->write)
  80d2fc:	e0bffb17 	ldw	r2,-20(fp)
  80d300:	10800217 	ldw	r2,8(r2)
  80d304:	108000cc 	andi	r2,r2,3
  80d308:	10001826 	beq	r2,zero,80d36c <write+0xbc>
  80d30c:	e0bffb17 	ldw	r2,-20(fp)
  80d310:	10800017 	ldw	r2,0(r2)
  80d314:	10800617 	ldw	r2,24(r2)
  80d318:	10001426 	beq	r2,zero,80d36c <write+0xbc>
    {
      
      /* ALT_LOG - see altera_hal/HAL/inc/sys/alt_log_printf.h */
      ALT_LOG_WRITE_FUNCTION(ptr,len);

      if ((rval = fd->dev->write(fd, ptr, len)) < 0)
  80d31c:	e0bffb17 	ldw	r2,-20(fp)
  80d320:	10800017 	ldw	r2,0(r2)
  80d324:	10800617 	ldw	r2,24(r2)
  80d328:	e0ffff17 	ldw	r3,-4(fp)
  80d32c:	e13ffb17 	ldw	r4,-20(fp)
  80d330:	e17ffe17 	ldw	r5,-8(fp)
  80d334:	180d883a 	mov	r6,r3
  80d338:	103ee83a 	callr	r2
  80d33c:	e0bffc15 	stw	r2,-16(fp)
  80d340:	e0bffc17 	ldw	r2,-16(fp)
  80d344:	1000070e 	bge	r2,zero,80d364 <write+0xb4>
      {
        ALT_ERRNO = -rval;
  80d348:	080d2600 	call	80d260 <alt_get_errno>
  80d34c:	1007883a 	mov	r3,r2
  80d350:	e0bffc17 	ldw	r2,-16(fp)
  80d354:	0085c83a 	sub	r2,zero,r2
  80d358:	18800015 	stw	r2,0(r3)
        return -1;
  80d35c:	00bfffc4 	movi	r2,-1
  80d360:	00000c06 	br	80d394 <write+0xe4>
      }
      return rval;
  80d364:	e0bffc17 	ldw	r2,-16(fp)
  80d368:	00000a06 	br	80d394 <write+0xe4>
    }
    else
    {
      ALT_ERRNO = EACCES;
  80d36c:	080d2600 	call	80d260 <alt_get_errno>
  80d370:	1007883a 	mov	r3,r2
  80d374:	00800344 	movi	r2,13
  80d378:	18800015 	stw	r2,0(r3)
  80d37c:	00000406 	br	80d390 <write+0xe0>
    }
  }
  else  
  {
    ALT_ERRNO = EBADFD;
  80d380:	080d2600 	call	80d260 <alt_get_errno>
  80d384:	1007883a 	mov	r3,r2
  80d388:	00801444 	movi	r2,81
  80d38c:	18800015 	stw	r2,0(r3)
  }
  return -1;
  80d390:	00bfffc4 	movi	r2,-1
}
  80d394:	e037883a 	mov	sp,fp
  80d398:	dfc00117 	ldw	ra,4(sp)
  80d39c:	df000017 	ldw	fp,0(sp)
  80d3a0:	dec00204 	addi	sp,sp,8
  80d3a4:	f800283a 	ret

0080d3a8 <alt_dev_reg>:
 */

extern int alt_fs_reg  (alt_dev* dev); 

static ALT_INLINE int alt_dev_reg (alt_dev* dev)
{
  80d3a8:	defffd04 	addi	sp,sp,-12
  80d3ac:	dfc00215 	stw	ra,8(sp)
  80d3b0:	df000115 	stw	fp,4(sp)
  80d3b4:	df000104 	addi	fp,sp,4
  80d3b8:	e13fff15 	stw	r4,-4(fp)
  extern alt_llist alt_dev_list;

  return alt_dev_llist_insert ((alt_dev_llist*) dev, &alt_dev_list);
  80d3bc:	e13fff17 	ldw	r4,-4(fp)
  80d3c0:	01402074 	movhi	r5,129
  80d3c4:	294df104 	addi	r5,r5,14276
  80d3c8:	080ffe40 	call	80ffe4 <alt_dev_llist_insert>
}
  80d3cc:	e037883a 	mov	sp,fp
  80d3d0:	dfc00117 	ldw	ra,4(sp)
  80d3d4:	df000017 	ldw	fp,0(sp)
  80d3d8:	dec00204 	addi	sp,sp,8
  80d3dc:	f800283a 	ret

0080d3e0 <alt_irq_init>:
 * The "base" parameter is ignored and only
 * present for backwards-compatibility.
 */

void alt_irq_init ( const void* base )
{
  80d3e0:	defffd04 	addi	sp,sp,-12
  80d3e4:	dfc00215 	stw	ra,8(sp)
  80d3e8:	df000115 	stw	fp,4(sp)
  80d3ec:	df000104 	addi	fp,sp,4
  80d3f0:	e13fff15 	stw	r4,-4(fp)
    ALTERA_NIOS2_GEN2_IRQ_INIT ( NIOS2_GEN2_0, nios2_gen2_0);
  80d3f4:	081078c0 	call	81078c <altera_nios2_gen2_irq_init>
 * alt_irq_cpu_enable_interrupts() enables the CPU to start taking interrupts.
 */
static ALT_INLINE void ALT_ALWAYS_INLINE 
       alt_irq_cpu_enable_interrupts (void)
{
    NIOS2_WRITE_STATUS(NIOS2_STATUS_PIE_MSK
  80d3f8:	00800044 	movi	r2,1
  80d3fc:	1001703a 	wrctl	status,r2
    alt_irq_cpu_enable_interrupts();
}
  80d400:	e037883a 	mov	sp,fp
  80d404:	dfc00117 	ldw	ra,4(sp)
  80d408:	df000017 	ldw	fp,0(sp)
  80d40c:	dec00204 	addi	sp,sp,8
  80d410:	f800283a 	ret

0080d414 <alt_sys_init>:
 * Initialize the non-interrupt controller devices.
 * Called after alt_irq_init().
 */

void alt_sys_init( void )
{
  80d414:	defffe04 	addi	sp,sp,-8
  80d418:	dfc00115 	stw	ra,4(sp)
  80d41c:	df000015 	stw	fp,0(sp)
  80d420:	d839883a 	mov	fp,sp
    ALTERA_AVALON_TIMER_INIT ( SYSTEM_TIMER, system_timer);
  80d424:	01004034 	movhi	r4,256
  80d428:	21042004 	addi	r4,r4,4224
  80d42c:	000b883a 	mov	r5,zero
  80d430:	01800104 	movi	r6,4
  80d434:	01c0fa04 	movi	r7,1000
  80d438:	080ee500 	call	80ee50 <alt_avalon_timer_sc_init>
    ALTERA_AVALON_TIMER_INIT ( TIMER_0, timer_0);
    ALTERA_AVALON_JTAG_UART_INIT ( JTAG_UART_0, jtag_uart_0);
  80d43c:	01002074 	movhi	r4,129
  80d440:	21094a04 	addi	r4,r4,9512
  80d444:	000b883a 	mov	r5,zero
  80d448:	000d883a 	mov	r6,zero
  80d44c:	080d6280 	call	80d628 <altera_avalon_jtag_uart_init>
  80d450:	01002074 	movhi	r4,129
  80d454:	21094004 	addi	r4,r4,9472
  80d458:	080d3a80 	call	80d3a8 <alt_dev_reg>
    ALTERA_AVALON_LCD_16207_INIT ( LCD_DISPLAY, lcd_display);
  80d45c:	01002074 	movhi	r4,129
  80d460:	210d6204 	addi	r4,r4,13704
  80d464:	080ec400 	call	80ec40 <altera_avalon_lcd_16207_init>
  80d468:	01002074 	movhi	r4,129
  80d46c:	210d5804 	addi	r4,r4,13664
  80d470:	080d3a80 	call	80d3a8 <alt_dev_reg>
    ALTERA_AVALON_SYSID_QSYS_INIT ( SYSID_QSYS_0, sysid_qsys_0);
  80d474:	0001883a 	nop
    ALTERA_AVALON_UART_INIT ( UART, uart);
  80d478:	01002074 	movhi	r4,129
  80d47c:	210daa04 	addi	r4,r4,13992
  80d480:	000b883a 	mov	r5,zero
  80d484:	018000c4 	movi	r6,3
  80d488:	080efe00 	call	80efe0 <altera_avalon_uart_init>
  80d48c:	01002074 	movhi	r4,129
  80d490:	210da004 	addi	r4,r4,13952
  80d494:	080d3a80 	call	80d3a8 <alt_dev_reg>
    ALTERA_UP_AVALON_AUDIO_AND_VIDEO_CONFIG_INIT ( AUDIO_I2C_CONFIG, audio_i2c_config);
  80d498:	01002074 	movhi	r4,129
  80d49c:	210dd104 	addi	r4,r4,14148
  80d4a0:	080d3a80 	call	80d3a8 <alt_dev_reg>
    ALTERA_UP_AVALON_AUDIO_INIT ( AUDIO, Audio);
  80d4a4:	01002074 	movhi	r4,129
  80d4a8:	210ddd04 	addi	r4,r4,14196
  80d4ac:	080d3a80 	call	80d3a8 <alt_dev_reg>
}
  80d4b0:	e037883a 	mov	sp,fp
  80d4b4:	dfc00117 	ldw	ra,4(sp)
  80d4b8:	df000017 	ldw	fp,0(sp)
  80d4bc:	dec00204 	addi	sp,sp,8
  80d4c0:	f800283a 	ret

0080d4c4 <altera_avalon_jtag_uart_read_fd>:
 *
 */

int 
altera_avalon_jtag_uart_read_fd(alt_fd* fd, char* buffer, int space)
{
  80d4c4:	defffa04 	addi	sp,sp,-24
  80d4c8:	dfc00515 	stw	ra,20(sp)
  80d4cc:	df000415 	stw	fp,16(sp)
  80d4d0:	df000404 	addi	fp,sp,16
  80d4d4:	e13ffd15 	stw	r4,-12(fp)
  80d4d8:	e17ffe15 	stw	r5,-8(fp)
  80d4dc:	e1bfff15 	stw	r6,-4(fp)
    altera_avalon_jtag_uart_dev* dev = (altera_avalon_jtag_uart_dev*) fd->dev; 
  80d4e0:	e0bffd17 	ldw	r2,-12(fp)
  80d4e4:	10800017 	ldw	r2,0(r2)
  80d4e8:	e0bffc15 	stw	r2,-16(fp)

    return altera_avalon_jtag_uart_read(&dev->state, buffer, space,
  80d4ec:	e0bffc17 	ldw	r2,-16(fp)
  80d4f0:	10c00a04 	addi	r3,r2,40
  80d4f4:	e0bffd17 	ldw	r2,-12(fp)
  80d4f8:	10800217 	ldw	r2,8(r2)
  80d4fc:	1809883a 	mov	r4,r3
  80d500:	e17ffe17 	ldw	r5,-8(fp)
  80d504:	e1bfff17 	ldw	r6,-4(fp)
  80d508:	100f883a 	mov	r7,r2
  80d50c:	080dae40 	call	80dae4 <altera_avalon_jtag_uart_read>
      fd->fd_flags);
}
  80d510:	e037883a 	mov	sp,fp
  80d514:	dfc00117 	ldw	ra,4(sp)
  80d518:	df000017 	ldw	fp,0(sp)
  80d51c:	dec00204 	addi	sp,sp,8
  80d520:	f800283a 	ret

0080d524 <altera_avalon_jtag_uart_write_fd>:

int 
altera_avalon_jtag_uart_write_fd(alt_fd* fd, const char* buffer, int space)
{
  80d524:	defffa04 	addi	sp,sp,-24
  80d528:	dfc00515 	stw	ra,20(sp)
  80d52c:	df000415 	stw	fp,16(sp)
  80d530:	df000404 	addi	fp,sp,16
  80d534:	e13ffd15 	stw	r4,-12(fp)
  80d538:	e17ffe15 	stw	r5,-8(fp)
  80d53c:	e1bfff15 	stw	r6,-4(fp)
    altera_avalon_jtag_uart_dev* dev = (altera_avalon_jtag_uart_dev*) fd->dev; 
  80d540:	e0bffd17 	ldw	r2,-12(fp)
  80d544:	10800017 	ldw	r2,0(r2)
  80d548:	e0bffc15 	stw	r2,-16(fp)

    return altera_avalon_jtag_uart_write(&dev->state, buffer, space,
  80d54c:	e0bffc17 	ldw	r2,-16(fp)
  80d550:	10c00a04 	addi	r3,r2,40
  80d554:	e0bffd17 	ldw	r2,-12(fp)
  80d558:	10800217 	ldw	r2,8(r2)
  80d55c:	1809883a 	mov	r4,r3
  80d560:	e17ffe17 	ldw	r5,-8(fp)
  80d564:	e1bfff17 	ldw	r6,-4(fp)
  80d568:	100f883a 	mov	r7,r2
  80d56c:	080dcf00 	call	80dcf0 <altera_avalon_jtag_uart_write>
      fd->fd_flags);
}
  80d570:	e037883a 	mov	sp,fp
  80d574:	dfc00117 	ldw	ra,4(sp)
  80d578:	df000017 	ldw	fp,0(sp)
  80d57c:	dec00204 	addi	sp,sp,8
  80d580:	f800283a 	ret

0080d584 <altera_avalon_jtag_uart_close_fd>:

#ifndef ALTERA_AVALON_JTAG_UART_SMALL

int 
altera_avalon_jtag_uart_close_fd(alt_fd* fd)
{
  80d584:	defffc04 	addi	sp,sp,-16
  80d588:	dfc00315 	stw	ra,12(sp)
  80d58c:	df000215 	stw	fp,8(sp)
  80d590:	df000204 	addi	fp,sp,8
  80d594:	e13fff15 	stw	r4,-4(fp)
    altera_avalon_jtag_uart_dev* dev = (altera_avalon_jtag_uart_dev*) fd->dev; 
  80d598:	e0bfff17 	ldw	r2,-4(fp)
  80d59c:	10800017 	ldw	r2,0(r2)
  80d5a0:	e0bffe15 	stw	r2,-8(fp)

    return altera_avalon_jtag_uart_close(&dev->state, fd->fd_flags);
  80d5a4:	e0bffe17 	ldw	r2,-8(fp)
  80d5a8:	10c00a04 	addi	r3,r2,40
  80d5ac:	e0bfff17 	ldw	r2,-4(fp)
  80d5b0:	10800217 	ldw	r2,8(r2)
  80d5b4:	1809883a 	mov	r4,r3
  80d5b8:	100b883a 	mov	r5,r2
  80d5bc:	080d9900 	call	80d990 <altera_avalon_jtag_uart_close>
}
  80d5c0:	e037883a 	mov	sp,fp
  80d5c4:	dfc00117 	ldw	ra,4(sp)
  80d5c8:	df000017 	ldw	fp,0(sp)
  80d5cc:	dec00204 	addi	sp,sp,8
  80d5d0:	f800283a 	ret

0080d5d4 <altera_avalon_jtag_uart_ioctl_fd>:

int 
altera_avalon_jtag_uart_ioctl_fd(alt_fd* fd, int req, void* arg)
{
  80d5d4:	defffa04 	addi	sp,sp,-24
  80d5d8:	dfc00515 	stw	ra,20(sp)
  80d5dc:	df000415 	stw	fp,16(sp)
  80d5e0:	df000404 	addi	fp,sp,16
  80d5e4:	e13ffd15 	stw	r4,-12(fp)
  80d5e8:	e17ffe15 	stw	r5,-8(fp)
  80d5ec:	e1bfff15 	stw	r6,-4(fp)
    altera_avalon_jtag_uart_dev* dev = (altera_avalon_jtag_uart_dev*) fd->dev;
  80d5f0:	e0bffd17 	ldw	r2,-12(fp)
  80d5f4:	10800017 	ldw	r2,0(r2)
  80d5f8:	e0bffc15 	stw	r2,-16(fp)

    return altera_avalon_jtag_uart_ioctl(&dev->state, req, arg);
  80d5fc:	e0bffc17 	ldw	r2,-16(fp)
  80d600:	10800a04 	addi	r2,r2,40
  80d604:	1009883a 	mov	r4,r2
  80d608:	e17ffe17 	ldw	r5,-8(fp)
  80d60c:	e1bfff17 	ldw	r6,-4(fp)
  80d610:	080d9f80 	call	80d9f8 <altera_avalon_jtag_uart_ioctl>
}
  80d614:	e037883a 	mov	sp,fp
  80d618:	dfc00117 	ldw	ra,4(sp)
  80d61c:	df000017 	ldw	fp,0(sp)
  80d620:	dec00204 	addi	sp,sp,8
  80d624:	f800283a 	ret

0080d628 <altera_avalon_jtag_uart_init>:
 * Return 1 on sucessful IRQ register and 0 on failure.
 */

void altera_avalon_jtag_uart_init(altera_avalon_jtag_uart_state* sp, 
                                  int irq_controller_id, int irq)
{
  80d628:	defffb04 	addi	sp,sp,-20
  80d62c:	dfc00415 	stw	ra,16(sp)
  80d630:	df000315 	stw	fp,12(sp)
  80d634:	df000304 	addi	fp,sp,12
  80d638:	e13ffd15 	stw	r4,-12(fp)
  80d63c:	e17ffe15 	stw	r5,-8(fp)
  80d640:	e1bfff15 	stw	r6,-4(fp)
  ALT_FLAG_CREATE(&sp->events, 0);
  ALT_SEM_CREATE(&sp->read_lock, 1);
  ALT_SEM_CREATE(&sp->write_lock, 1);

  /* enable read interrupts at the device */
  sp->irq_enable = ALTERA_AVALON_JTAG_UART_CONTROL_RE_MSK;
  80d644:	e0bffd17 	ldw	r2,-12(fp)
  80d648:	00c00044 	movi	r3,1
  80d64c:	10c00815 	stw	r3,32(r2)

  IOWR_ALTERA_AVALON_JTAG_UART_CONTROL(sp->base, sp->irq_enable); 
  80d650:	e0bffd17 	ldw	r2,-12(fp)
  80d654:	10800017 	ldw	r2,0(r2)
  80d658:	10800104 	addi	r2,r2,4
  80d65c:	1007883a 	mov	r3,r2
  80d660:	e0bffd17 	ldw	r2,-12(fp)
  80d664:	10800817 	ldw	r2,32(r2)
  80d668:	18800035 	stwio	r2,0(r3)
  /* register the interrupt handler */
#ifdef ALT_ENHANCED_INTERRUPT_API_PRESENT
  alt_ic_isr_register(irq_controller_id, irq, altera_avalon_jtag_uart_irq, 
                      sp, NULL);
#else
  alt_irq_register(irq, sp, altera_avalon_jtag_uart_irq);
  80d66c:	e0bfff17 	ldw	r2,-4(fp)
  80d670:	1009883a 	mov	r4,r2
  80d674:	e17ffd17 	ldw	r5,-12(fp)
  80d678:	01802074 	movhi	r6,129
  80d67c:	31b5b804 	addi	r6,r6,-10528
  80d680:	08103380 	call	810338 <alt_irq_register>
#endif  

  /* Register an alarm to go off every second to check for presence of host */
  sp->host_inactive = 0;
  80d684:	e0bffd17 	ldw	r2,-12(fp)
  80d688:	10000915 	stw	zero,36(r2)

  if (alt_alarm_start(&sp->alarm, alt_ticks_per_second(), 
  80d68c:	e0bffd17 	ldw	r2,-12(fp)
  80d690:	10c00204 	addi	r3,r2,8
 * Obtain the system clock rate in ticks/s. 
 */

static ALT_INLINE alt_u32 ALT_ALWAYS_INLINE alt_ticks_per_second (void)
{
  return _alt_tick_rate;
  80d694:	00802074 	movhi	r2,129
  80d698:	10953c04 	addi	r2,r2,21744
  80d69c:	10800017 	ldw	r2,0(r2)
  80d6a0:	1809883a 	mov	r4,r3
  80d6a4:	100b883a 	mov	r5,r2
  80d6a8:	01802074 	movhi	r6,129
  80d6ac:	31b63a04 	addi	r6,r6,-10008
  80d6b0:	e1fffd17 	ldw	r7,-12(fp)
  80d6b4:	080c4bc0 	call	80c4bc <alt_alarm_start>
  80d6b8:	1000040e 	bge	r2,zero,80d6cc <altera_avalon_jtag_uart_init+0xa4>
    &altera_avalon_jtag_uart_timeout, sp) < 0)
  {
    /* If we can't set the alarm then record "don't know if host present" 
     * and behave as though the host is present.
     */
    sp->timeout = INT_MAX;
  80d6bc:	e0fffd17 	ldw	r3,-12(fp)
  80d6c0:	00a00034 	movhi	r2,32768
  80d6c4:	10bfffc4 	addi	r2,r2,-1
  80d6c8:	18800115 	stw	r2,4(r3)
  }

  /* ALT_LOG - see altera_hal/HAL/inc/sys/alt_log_printf.h */ 
  ALT_LOG_JTAG_UART_ALARM_REGISTER(sp, sp->base);
}
  80d6cc:	e037883a 	mov	sp,fp
  80d6d0:	dfc00117 	ldw	ra,4(sp)
  80d6d4:	df000017 	ldw	fp,0(sp)
  80d6d8:	dec00204 	addi	sp,sp,8
  80d6dc:	f800283a 	ret

0080d6e0 <altera_avalon_jtag_uart_irq>:
#ifdef ALT_ENHANCED_INTERRUPT_API_PRESENT
static void altera_avalon_jtag_uart_irq(void* context)
#else
static void altera_avalon_jtag_uart_irq(void* context, alt_u32 id)
#endif
{
  80d6e0:	defff704 	addi	sp,sp,-36
  80d6e4:	df000815 	stw	fp,32(sp)
  80d6e8:	df000804 	addi	fp,sp,32
  80d6ec:	e13ffe15 	stw	r4,-8(fp)
  80d6f0:	e17fff15 	stw	r5,-4(fp)
  altera_avalon_jtag_uart_state* sp = (altera_avalon_jtag_uart_state*) context;
  80d6f4:	e0bffe17 	ldw	r2,-8(fp)
  80d6f8:	e0bffa15 	stw	r2,-24(fp)
  unsigned int base = sp->base;
  80d6fc:	e0bffa17 	ldw	r2,-24(fp)
  80d700:	10800017 	ldw	r2,0(r2)
  80d704:	e0bffb15 	stw	r2,-20(fp)
  /* ALT_LOG - see altera_hal/HAL/inc/sys/alt_log_printf.h */ 
  ALT_LOG_JTAG_UART_ISR_FUNCTION(base, sp);

  for ( ; ; )
  {
    unsigned int control = IORD_ALTERA_AVALON_JTAG_UART_CONTROL(base);
  80d708:	e0bffb17 	ldw	r2,-20(fp)
  80d70c:	10800104 	addi	r2,r2,4
  80d710:	10800037 	ldwio	r2,0(r2)
  80d714:	e0bffc15 	stw	r2,-16(fp)

    /* Return once nothing more to do */
    if ((control & (ALTERA_AVALON_JTAG_UART_CONTROL_RI_MSK | ALTERA_AVALON_JTAG_UART_CONTROL_WI_MSK)) == 0)
  80d718:	e0bffc17 	ldw	r2,-16(fp)
  80d71c:	1080c00c 	andi	r2,r2,768
  80d720:	1000011e 	bne	r2,zero,80d728 <altera_avalon_jtag_uart_irq+0x48>
      break;
  80d724:	00006c06 	br	80d8d8 <altera_avalon_jtag_uart_irq+0x1f8>

    if (control & ALTERA_AVALON_JTAG_UART_CONTROL_RI_MSK)
  80d728:	e0bffc17 	ldw	r2,-16(fp)
  80d72c:	1080400c 	andi	r2,r2,256
  80d730:	10003426 	beq	r2,zero,80d804 <altera_avalon_jtag_uart_irq+0x124>
    {
      /* process a read irq.  Start by assuming that there is data in the
       * receive FIFO (otherwise why would we have been interrupted?)
       */
      unsigned int data = 1 << ALTERA_AVALON_JTAG_UART_DATA_RAVAIL_OFST;
  80d734:	00800074 	movhi	r2,1
  80d738:	e0bff815 	stw	r2,-32(fp)
      for ( ; ; )
      {
        /* Check whether there is space in the buffer.  If not then we must not
         * read any characters from the buffer as they will be lost.
         */
        unsigned int next = (sp->rx_in + 1) % ALTERA_AVALON_JTAG_UART_BUF_LEN;
  80d73c:	e0bffa17 	ldw	r2,-24(fp)
  80d740:	10800a17 	ldw	r2,40(r2)
  80d744:	10800044 	addi	r2,r2,1
  80d748:	1081ffcc 	andi	r2,r2,2047
  80d74c:	e0bffd15 	stw	r2,-12(fp)
        if (next == sp->rx_out)
  80d750:	e0bffa17 	ldw	r2,-24(fp)
  80d754:	10c00b17 	ldw	r3,44(r2)
  80d758:	e0bffd17 	ldw	r2,-12(fp)
  80d75c:	1880011e 	bne	r3,r2,80d764 <altera_avalon_jtag_uart_irq+0x84>
          break;
  80d760:	00001606 	br	80d7bc <altera_avalon_jtag_uart_irq+0xdc>

        /* Try to remove a character from the FIFO and find out whether there
         * are any more characters remaining.
         */
        data = IORD_ALTERA_AVALON_JTAG_UART_DATA(base);
  80d764:	e0bffb17 	ldw	r2,-20(fp)
  80d768:	10800037 	ldwio	r2,0(r2)
  80d76c:	e0bff815 	stw	r2,-32(fp)
        
        if ((data & ALTERA_AVALON_JTAG_UART_DATA_RVALID_MSK) == 0)
  80d770:	e0bff817 	ldw	r2,-32(fp)
  80d774:	10a0000c 	andi	r2,r2,32768
  80d778:	1000011e 	bne	r2,zero,80d780 <altera_avalon_jtag_uart_irq+0xa0>
          break;
  80d77c:	00000f06 	br	80d7bc <altera_avalon_jtag_uart_irq+0xdc>

        sp->rx_buf[sp->rx_in] = (data & ALTERA_AVALON_JTAG_UART_DATA_DATA_MSK) >> ALTERA_AVALON_JTAG_UART_DATA_DATA_OFST;
  80d780:	e0bffa17 	ldw	r2,-24(fp)
  80d784:	10800a17 	ldw	r2,40(r2)
  80d788:	e0fff817 	ldw	r3,-32(fp)
  80d78c:	1809883a 	mov	r4,r3
  80d790:	e0fffa17 	ldw	r3,-24(fp)
  80d794:	1885883a 	add	r2,r3,r2
  80d798:	10800e04 	addi	r2,r2,56
  80d79c:	11000005 	stb	r4,0(r2)
        sp->rx_in = (sp->rx_in + 1) % ALTERA_AVALON_JTAG_UART_BUF_LEN;
  80d7a0:	e0bffa17 	ldw	r2,-24(fp)
  80d7a4:	10800a17 	ldw	r2,40(r2)
  80d7a8:	10800044 	addi	r2,r2,1
  80d7ac:	10c1ffcc 	andi	r3,r2,2047
  80d7b0:	e0bffa17 	ldw	r2,-24(fp)
  80d7b4:	10c00a15 	stw	r3,40(r2)

        /* Post an event to notify jtag_uart_read that a character has been read */
        ALT_FLAG_POST (sp->events, ALT_JTAG_UART_READ_RDY, OS_FLAG_SET);
      }
  80d7b8:	003fe006 	br	80d73c <__alt_data_end+0xff80d73c>

      if (data & ALTERA_AVALON_JTAG_UART_DATA_RAVAIL_MSK)
  80d7bc:	e0bff817 	ldw	r2,-32(fp)
  80d7c0:	10bfffec 	andhi	r2,r2,65535
  80d7c4:	10000f26 	beq	r2,zero,80d804 <altera_avalon_jtag_uart_irq+0x124>
      {
        /* If there is still data available here then the buffer is full 
         * so turn off receive interrupts until some space becomes available.
         */
        sp->irq_enable &= ~ALTERA_AVALON_JTAG_UART_CONTROL_RE_MSK;
  80d7c8:	e0bffa17 	ldw	r2,-24(fp)
  80d7cc:	10c00817 	ldw	r3,32(r2)
  80d7d0:	00bfff84 	movi	r2,-2
  80d7d4:	1886703a 	and	r3,r3,r2
  80d7d8:	e0bffa17 	ldw	r2,-24(fp)
  80d7dc:	10c00815 	stw	r3,32(r2)
        IOWR_ALTERA_AVALON_JTAG_UART_CONTROL(base, sp->irq_enable);
  80d7e0:	e0bffb17 	ldw	r2,-20(fp)
  80d7e4:	10800104 	addi	r2,r2,4
  80d7e8:	1007883a 	mov	r3,r2
  80d7ec:	e0bffa17 	ldw	r2,-24(fp)
  80d7f0:	10800817 	ldw	r2,32(r2)
  80d7f4:	18800035 	stwio	r2,0(r3)
        
        /* Dummy read to ensure IRQ is cleared prior to ISR completion */
        IORD_ALTERA_AVALON_JTAG_UART_CONTROL(base);
  80d7f8:	e0bffb17 	ldw	r2,-20(fp)
  80d7fc:	10800104 	addi	r2,r2,4
  80d800:	10800037 	ldwio	r2,0(r2)
      }
    }

    if (control & ALTERA_AVALON_JTAG_UART_CONTROL_WI_MSK)
  80d804:	e0bffc17 	ldw	r2,-16(fp)
  80d808:	1080800c 	andi	r2,r2,512
  80d80c:	10003126 	beq	r2,zero,80d8d4 <altera_avalon_jtag_uart_irq+0x1f4>
    {
      /* process a write irq */
      unsigned int space = (control & ALTERA_AVALON_JTAG_UART_CONTROL_WSPACE_MSK) >> ALTERA_AVALON_JTAG_UART_CONTROL_WSPACE_OFST;
  80d810:	e0bffc17 	ldw	r2,-16(fp)
  80d814:	1004d43a 	srli	r2,r2,16
  80d818:	e0bff915 	stw	r2,-28(fp)

      while (space > 0 && sp->tx_out != sp->tx_in)
  80d81c:	00001406 	br	80d870 <altera_avalon_jtag_uart_irq+0x190>
      {
        IOWR_ALTERA_AVALON_JTAG_UART_DATA(base, sp->tx_buf[sp->tx_out]);
  80d820:	e0bffb17 	ldw	r2,-20(fp)
  80d824:	e0fffa17 	ldw	r3,-24(fp)
  80d828:	18c00d17 	ldw	r3,52(r3)
  80d82c:	e13ffa17 	ldw	r4,-24(fp)
  80d830:	20c7883a 	add	r3,r4,r3
  80d834:	18c20e04 	addi	r3,r3,2104
  80d838:	18c00003 	ldbu	r3,0(r3)
  80d83c:	18c03fcc 	andi	r3,r3,255
  80d840:	18c0201c 	xori	r3,r3,128
  80d844:	18ffe004 	addi	r3,r3,-128
  80d848:	10c00035 	stwio	r3,0(r2)

        sp->tx_out = (sp->tx_out + 1) % ALTERA_AVALON_JTAG_UART_BUF_LEN;
  80d84c:	e0bffa17 	ldw	r2,-24(fp)
  80d850:	10800d17 	ldw	r2,52(r2)
  80d854:	10800044 	addi	r2,r2,1
  80d858:	10c1ffcc 	andi	r3,r2,2047
  80d85c:	e0bffa17 	ldw	r2,-24(fp)
  80d860:	10c00d15 	stw	r3,52(r2)

        /* Post an event to notify jtag_uart_write that a character has been written */
        ALT_FLAG_POST (sp->events, ALT_JTAG_UART_WRITE_RDY, OS_FLAG_SET);

        space--;
  80d864:	e0bff917 	ldw	r2,-28(fp)
  80d868:	10bfffc4 	addi	r2,r2,-1
  80d86c:	e0bff915 	stw	r2,-28(fp)
    if (control & ALTERA_AVALON_JTAG_UART_CONTROL_WI_MSK)
    {
      /* process a write irq */
      unsigned int space = (control & ALTERA_AVALON_JTAG_UART_CONTROL_WSPACE_MSK) >> ALTERA_AVALON_JTAG_UART_CONTROL_WSPACE_OFST;

      while (space > 0 && sp->tx_out != sp->tx_in)
  80d870:	e0bff917 	ldw	r2,-28(fp)
  80d874:	10000526 	beq	r2,zero,80d88c <altera_avalon_jtag_uart_irq+0x1ac>
  80d878:	e0bffa17 	ldw	r2,-24(fp)
  80d87c:	10c00d17 	ldw	r3,52(r2)
  80d880:	e0bffa17 	ldw	r2,-24(fp)
  80d884:	10800c17 	ldw	r2,48(r2)
  80d888:	18bfe51e 	bne	r3,r2,80d820 <__alt_data_end+0xff80d820>
        ALT_FLAG_POST (sp->events, ALT_JTAG_UART_WRITE_RDY, OS_FLAG_SET);

        space--;
      }

      if (space > 0)
  80d88c:	e0bff917 	ldw	r2,-28(fp)
  80d890:	10001026 	beq	r2,zero,80d8d4 <altera_avalon_jtag_uart_irq+0x1f4>
      {
        /* If we don't have any more data available then turn off the TX interrupt */
        sp->irq_enable &= ~ALTERA_AVALON_JTAG_UART_CONTROL_WE_MSK;
  80d894:	e0bffa17 	ldw	r2,-24(fp)
  80d898:	10c00817 	ldw	r3,32(r2)
  80d89c:	00bfff44 	movi	r2,-3
  80d8a0:	1886703a 	and	r3,r3,r2
  80d8a4:	e0bffa17 	ldw	r2,-24(fp)
  80d8a8:	10c00815 	stw	r3,32(r2)
        IOWR_ALTERA_AVALON_JTAG_UART_CONTROL(sp->base, sp->irq_enable);
  80d8ac:	e0bffa17 	ldw	r2,-24(fp)
  80d8b0:	10800017 	ldw	r2,0(r2)
  80d8b4:	10800104 	addi	r2,r2,4
  80d8b8:	1007883a 	mov	r3,r2
  80d8bc:	e0bffa17 	ldw	r2,-24(fp)
  80d8c0:	10800817 	ldw	r2,32(r2)
  80d8c4:	18800035 	stwio	r2,0(r3)
        
        /* Dummy read to ensure IRQ is cleared prior to ISR completion */
        IORD_ALTERA_AVALON_JTAG_UART_CONTROL(base);
  80d8c8:	e0bffb17 	ldw	r2,-20(fp)
  80d8cc:	10800104 	addi	r2,r2,4
  80d8d0:	10800037 	ldwio	r2,0(r2)
      }
    }
  }
  80d8d4:	003f8c06 	br	80d708 <__alt_data_end+0xff80d708>
}
  80d8d8:	e037883a 	mov	sp,fp
  80d8dc:	df000017 	ldw	fp,0(sp)
  80d8e0:	dec00104 	addi	sp,sp,4
  80d8e4:	f800283a 	ret

0080d8e8 <altera_avalon_jtag_uart_timeout>:
 * Timeout routine is called every second
 */

static alt_u32 
altera_avalon_jtag_uart_timeout(void* context) 
{
  80d8e8:	defff804 	addi	sp,sp,-32
  80d8ec:	df000715 	stw	fp,28(sp)
  80d8f0:	df000704 	addi	fp,sp,28
  80d8f4:	e13ffb15 	stw	r4,-20(fp)
  altera_avalon_jtag_uart_state* sp = (altera_avalon_jtag_uart_state *) context;
  80d8f8:	e0bffb17 	ldw	r2,-20(fp)
  80d8fc:	e0bff915 	stw	r2,-28(fp)

  unsigned int control = IORD_ALTERA_AVALON_JTAG_UART_CONTROL(sp->base);
  80d900:	e0bff917 	ldw	r2,-28(fp)
  80d904:	10800017 	ldw	r2,0(r2)
  80d908:	10800104 	addi	r2,r2,4
  80d90c:	10800037 	ldwio	r2,0(r2)
  80d910:	e0bffa15 	stw	r2,-24(fp)

  if (control & ALTERA_AVALON_JTAG_UART_CONTROL_AC_MSK)
  80d914:	e0bffa17 	ldw	r2,-24(fp)
  80d918:	1081000c 	andi	r2,r2,1024
  80d91c:	10000b26 	beq	r2,zero,80d94c <altera_avalon_jtag_uart_timeout+0x64>
  {
    IOWR_ALTERA_AVALON_JTAG_UART_CONTROL(sp->base, sp->irq_enable | ALTERA_AVALON_JTAG_UART_CONTROL_AC_MSK);
  80d920:	e0bff917 	ldw	r2,-28(fp)
  80d924:	10800017 	ldw	r2,0(r2)
  80d928:	10800104 	addi	r2,r2,4
  80d92c:	1007883a 	mov	r3,r2
  80d930:	e0bff917 	ldw	r2,-28(fp)
  80d934:	10800817 	ldw	r2,32(r2)
  80d938:	10810014 	ori	r2,r2,1024
  80d93c:	18800035 	stwio	r2,0(r3)
    sp->host_inactive = 0;
  80d940:	e0bff917 	ldw	r2,-28(fp)
  80d944:	10000915 	stw	zero,36(r2)
  80d948:	00000a06 	br	80d974 <altera_avalon_jtag_uart_timeout+0x8c>
  }
  else if (sp->host_inactive < INT_MAX - 2) {
  80d94c:	e0bff917 	ldw	r2,-28(fp)
  80d950:	10c00917 	ldw	r3,36(r2)
  80d954:	00a00034 	movhi	r2,32768
  80d958:	10bfff04 	addi	r2,r2,-4
  80d95c:	10c00536 	bltu	r2,r3,80d974 <altera_avalon_jtag_uart_timeout+0x8c>
    sp->host_inactive++;
  80d960:	e0bff917 	ldw	r2,-28(fp)
  80d964:	10800917 	ldw	r2,36(r2)
  80d968:	10c00044 	addi	r3,r2,1
  80d96c:	e0bff917 	ldw	r2,-28(fp)
  80d970:	10c00915 	stw	r3,36(r2)
  80d974:	00802074 	movhi	r2,129
  80d978:	10953c04 	addi	r2,r2,21744
  80d97c:	10800017 	ldw	r2,0(r2)
      ALT_FLAG_POST (sp->events, ALT_JTAG_UART_TIMEOUT, OS_FLAG_SET);
    }
  }

  return alt_ticks_per_second();
}
  80d980:	e037883a 	mov	sp,fp
  80d984:	df000017 	ldw	fp,0(sp)
  80d988:	dec00104 	addi	sp,sp,4
  80d98c:	f800283a 	ret

0080d990 <altera_avalon_jtag_uart_close>:
 * The close routine is not implemented for the small driver; instead it will
 * map to null. This is because the small driver simply waits while characters
 * are transmitted; there is no interrupt-serviced buffer to empty 
 */
int altera_avalon_jtag_uart_close(altera_avalon_jtag_uart_state* sp, int flags)
{
  80d990:	defffd04 	addi	sp,sp,-12
  80d994:	df000215 	stw	fp,8(sp)
  80d998:	df000204 	addi	fp,sp,8
  80d99c:	e13ffe15 	stw	r4,-8(fp)
  80d9a0:	e17fff15 	stw	r5,-4(fp)
  /* 
   * Wait for all transmit data to be emptied by the JTAG UART ISR, or
   * for a host-inactivity timeout, in which case transmit data will be lost
   */
  while ( (sp->tx_out != sp->tx_in) && (sp->host_inactive < sp->timeout) ) {
  80d9a4:	00000506 	br	80d9bc <altera_avalon_jtag_uart_close+0x2c>
    if (flags & O_NONBLOCK) {
  80d9a8:	e0bfff17 	ldw	r2,-4(fp)
  80d9ac:	1090000c 	andi	r2,r2,16384
  80d9b0:	10000226 	beq	r2,zero,80d9bc <altera_avalon_jtag_uart_close+0x2c>
      return -EWOULDBLOCK; 
  80d9b4:	00bffd44 	movi	r2,-11
  80d9b8:	00000b06 	br	80d9e8 <altera_avalon_jtag_uart_close+0x58>
{
  /* 
   * Wait for all transmit data to be emptied by the JTAG UART ISR, or
   * for a host-inactivity timeout, in which case transmit data will be lost
   */
  while ( (sp->tx_out != sp->tx_in) && (sp->host_inactive < sp->timeout) ) {
  80d9bc:	e0bffe17 	ldw	r2,-8(fp)
  80d9c0:	10c00d17 	ldw	r3,52(r2)
  80d9c4:	e0bffe17 	ldw	r2,-8(fp)
  80d9c8:	10800c17 	ldw	r2,48(r2)
  80d9cc:	18800526 	beq	r3,r2,80d9e4 <altera_avalon_jtag_uart_close+0x54>
  80d9d0:	e0bffe17 	ldw	r2,-8(fp)
  80d9d4:	10c00917 	ldw	r3,36(r2)
  80d9d8:	e0bffe17 	ldw	r2,-8(fp)
  80d9dc:	10800117 	ldw	r2,4(r2)
  80d9e0:	18bff136 	bltu	r3,r2,80d9a8 <__alt_data_end+0xff80d9a8>
    if (flags & O_NONBLOCK) {
      return -EWOULDBLOCK; 
    }
  }

  return 0;
  80d9e4:	0005883a 	mov	r2,zero
}
  80d9e8:	e037883a 	mov	sp,fp
  80d9ec:	df000017 	ldw	fp,0(sp)
  80d9f0:	dec00104 	addi	sp,sp,4
  80d9f4:	f800283a 	ret

0080d9f8 <altera_avalon_jtag_uart_ioctl>:
/* ----------------------------------------------------------- */

int 
altera_avalon_jtag_uart_ioctl(altera_avalon_jtag_uart_state* sp, int req,
  void* arg)
{
  80d9f8:	defffa04 	addi	sp,sp,-24
  80d9fc:	df000515 	stw	fp,20(sp)
  80da00:	df000504 	addi	fp,sp,20
  80da04:	e13ffd15 	stw	r4,-12(fp)
  80da08:	e17ffe15 	stw	r5,-8(fp)
  80da0c:	e1bfff15 	stw	r6,-4(fp)
  int rc = -ENOTTY;
  80da10:	00bff9c4 	movi	r2,-25
  80da14:	e0bffb15 	stw	r2,-20(fp)

  switch (req)
  80da18:	e0bffe17 	ldw	r2,-8(fp)
  80da1c:	10da8060 	cmpeqi	r3,r2,27137
  80da20:	1800031e 	bne	r3,zero,80da30 <altera_avalon_jtag_uart_ioctl+0x38>
  80da24:	109a80a0 	cmpeqi	r2,r2,27138
  80da28:	1000191e 	bne	r2,zero,80da90 <altera_avalon_jtag_uart_ioctl+0x98>
      rc = 0;
    }
    break;

  default:
    break;
  80da2c:	00002806 	br	80dad0 <altera_avalon_jtag_uart_ioctl+0xd8>

  switch (req)
  {
  case TIOCSTIMEOUT:
    /* Set the time to wait until assuming host is not connected */
    if (sp->timeout != INT_MAX)
  80da30:	e0bffd17 	ldw	r2,-12(fp)
  80da34:	10c00117 	ldw	r3,4(r2)
  80da38:	00a00034 	movhi	r2,32768
  80da3c:	10bfffc4 	addi	r2,r2,-1
  80da40:	18801226 	beq	r3,r2,80da8c <altera_avalon_jtag_uart_ioctl+0x94>
    {
      int timeout = *((int *)arg);
  80da44:	e0bfff17 	ldw	r2,-4(fp)
  80da48:	10800017 	ldw	r2,0(r2)
  80da4c:	e0bffc15 	stw	r2,-16(fp)
      sp->timeout = (timeout >= 2 && timeout < INT_MAX) ? timeout : INT_MAX - 1;
  80da50:	e0bffc17 	ldw	r2,-16(fp)
  80da54:	10800090 	cmplti	r2,r2,2
  80da58:	1000061e 	bne	r2,zero,80da74 <altera_avalon_jtag_uart_ioctl+0x7c>
  80da5c:	e0fffc17 	ldw	r3,-16(fp)
  80da60:	00a00034 	movhi	r2,32768
  80da64:	10bfffc4 	addi	r2,r2,-1
  80da68:	18800226 	beq	r3,r2,80da74 <altera_avalon_jtag_uart_ioctl+0x7c>
  80da6c:	e0bffc17 	ldw	r2,-16(fp)
  80da70:	00000206 	br	80da7c <altera_avalon_jtag_uart_ioctl+0x84>
  80da74:	00a00034 	movhi	r2,32768
  80da78:	10bfff84 	addi	r2,r2,-2
  80da7c:	e0fffd17 	ldw	r3,-12(fp)
  80da80:	18800115 	stw	r2,4(r3)
      rc = 0;
  80da84:	e03ffb15 	stw	zero,-20(fp)
    }
    break;
  80da88:	00001106 	br	80dad0 <altera_avalon_jtag_uart_ioctl+0xd8>
  80da8c:	00001006 	br	80dad0 <altera_avalon_jtag_uart_ioctl+0xd8>

  case TIOCGCONNECTED:
    /* Find out whether host is connected */
    if (sp->timeout != INT_MAX)
  80da90:	e0bffd17 	ldw	r2,-12(fp)
  80da94:	10c00117 	ldw	r3,4(r2)
  80da98:	00a00034 	movhi	r2,32768
  80da9c:	10bfffc4 	addi	r2,r2,-1
  80daa0:	18800a26 	beq	r3,r2,80dacc <altera_avalon_jtag_uart_ioctl+0xd4>
    {
      *((int *)arg) = (sp->host_inactive < sp->timeout) ? 1 : 0;
  80daa4:	e0bffd17 	ldw	r2,-12(fp)
  80daa8:	10c00917 	ldw	r3,36(r2)
  80daac:	e0bffd17 	ldw	r2,-12(fp)
  80dab0:	10800117 	ldw	r2,4(r2)
  80dab4:	1885803a 	cmpltu	r2,r3,r2
  80dab8:	10c03fcc 	andi	r3,r2,255
  80dabc:	e0bfff17 	ldw	r2,-4(fp)
  80dac0:	10c00015 	stw	r3,0(r2)
      rc = 0;
  80dac4:	e03ffb15 	stw	zero,-20(fp)
    }
    break;
  80dac8:	00000006 	br	80dacc <altera_avalon_jtag_uart_ioctl+0xd4>
  80dacc:	0001883a 	nop

  default:
    break;
  }

  return rc;
  80dad0:	e0bffb17 	ldw	r2,-20(fp)
}
  80dad4:	e037883a 	mov	sp,fp
  80dad8:	df000017 	ldw	fp,0(sp)
  80dadc:	dec00104 	addi	sp,sp,4
  80dae0:	f800283a 	ret

0080dae4 <altera_avalon_jtag_uart_read>:
/* ----------------------------------------------------------- */

int 
altera_avalon_jtag_uart_read(altera_avalon_jtag_uart_state* sp, 
  char * buffer, int space, int flags)
{
  80dae4:	defff304 	addi	sp,sp,-52
  80dae8:	dfc00c15 	stw	ra,48(sp)
  80daec:	df000b15 	stw	fp,44(sp)
  80daf0:	df000b04 	addi	fp,sp,44
  80daf4:	e13ffc15 	stw	r4,-16(fp)
  80daf8:	e17ffd15 	stw	r5,-12(fp)
  80dafc:	e1bffe15 	stw	r6,-8(fp)
  80db00:	e1ffff15 	stw	r7,-4(fp)
  char * ptr = buffer;
  80db04:	e0bffd17 	ldw	r2,-12(fp)
  80db08:	e0bff515 	stw	r2,-44(fp)
   * When running in a multi threaded environment, obtain the "read_lock"
   * semaphore. This ensures that reading from the device is thread-safe.
   */
  ALT_SEM_PEND (sp->read_lock, 0);

  while (space > 0)
  80db0c:	00004906 	br	80dc34 <altera_avalon_jtag_uart_read+0x150>
    unsigned int in, out;

    /* Read as much data as possible */
    do
    {
      in  = sp->rx_in;
  80db10:	e0bffc17 	ldw	r2,-16(fp)
  80db14:	10800a17 	ldw	r2,40(r2)
  80db18:	e0bff715 	stw	r2,-36(fp)
      out = sp->rx_out;
  80db1c:	e0bffc17 	ldw	r2,-16(fp)
  80db20:	10800b17 	ldw	r2,44(r2)
  80db24:	e0bff815 	stw	r2,-32(fp)

      if (in >= out)
  80db28:	e0fff717 	ldw	r3,-36(fp)
  80db2c:	e0bff817 	ldw	r2,-32(fp)
  80db30:	18800536 	bltu	r3,r2,80db48 <altera_avalon_jtag_uart_read+0x64>
        n = in - out;
  80db34:	e0fff717 	ldw	r3,-36(fp)
  80db38:	e0bff817 	ldw	r2,-32(fp)
  80db3c:	1885c83a 	sub	r2,r3,r2
  80db40:	e0bff615 	stw	r2,-40(fp)
  80db44:	00000406 	br	80db58 <altera_avalon_jtag_uart_read+0x74>
      else
        n = ALTERA_AVALON_JTAG_UART_BUF_LEN - out;
  80db48:	00c20004 	movi	r3,2048
  80db4c:	e0bff817 	ldw	r2,-32(fp)
  80db50:	1885c83a 	sub	r2,r3,r2
  80db54:	e0bff615 	stw	r2,-40(fp)

      if (n == 0)
  80db58:	e0bff617 	ldw	r2,-40(fp)
  80db5c:	1000011e 	bne	r2,zero,80db64 <altera_avalon_jtag_uart_read+0x80>
        break; /* No more data available */
  80db60:	00001d06 	br	80dbd8 <altera_avalon_jtag_uart_read+0xf4>

      if (n > space)
  80db64:	e0fffe17 	ldw	r3,-8(fp)
  80db68:	e0bff617 	ldw	r2,-40(fp)
  80db6c:	1880022e 	bgeu	r3,r2,80db78 <altera_avalon_jtag_uart_read+0x94>
        n = space;
  80db70:	e0bffe17 	ldw	r2,-8(fp)
  80db74:	e0bff615 	stw	r2,-40(fp)

      memcpy(ptr, sp->rx_buf + out, n);
  80db78:	e0bff817 	ldw	r2,-32(fp)
  80db7c:	10800e04 	addi	r2,r2,56
  80db80:	e0fffc17 	ldw	r3,-16(fp)
  80db84:	1885883a 	add	r2,r3,r2
  80db88:	e13ff517 	ldw	r4,-44(fp)
  80db8c:	100b883a 	mov	r5,r2
  80db90:	e1bff617 	ldw	r6,-40(fp)
  80db94:	0810cbc0 	call	810cbc <memcpy>
      ptr   += n;
  80db98:	e0fff517 	ldw	r3,-44(fp)
  80db9c:	e0bff617 	ldw	r2,-40(fp)
  80dba0:	1885883a 	add	r2,r3,r2
  80dba4:	e0bff515 	stw	r2,-44(fp)
      space -= n;
  80dba8:	e0fffe17 	ldw	r3,-8(fp)
  80dbac:	e0bff617 	ldw	r2,-40(fp)
  80dbb0:	1885c83a 	sub	r2,r3,r2
  80dbb4:	e0bffe15 	stw	r2,-8(fp)

      sp->rx_out = (out + n) % ALTERA_AVALON_JTAG_UART_BUF_LEN;
  80dbb8:	e0fff817 	ldw	r3,-32(fp)
  80dbbc:	e0bff617 	ldw	r2,-40(fp)
  80dbc0:	1885883a 	add	r2,r3,r2
  80dbc4:	10c1ffcc 	andi	r3,r2,2047
  80dbc8:	e0bffc17 	ldw	r2,-16(fp)
  80dbcc:	10c00b15 	stw	r3,44(r2)
    }
    while (space > 0);
  80dbd0:	e0bffe17 	ldw	r2,-8(fp)
  80dbd4:	00bfce16 	blt	zero,r2,80db10 <__alt_data_end+0xff80db10>

    /* If we read any data then return it */
    if (ptr != buffer)
  80dbd8:	e0fff517 	ldw	r3,-44(fp)
  80dbdc:	e0bffd17 	ldw	r2,-12(fp)
  80dbe0:	18800126 	beq	r3,r2,80dbe8 <altera_avalon_jtag_uart_read+0x104>
      break;
  80dbe4:	00001506 	br	80dc3c <altera_avalon_jtag_uart_read+0x158>

    /* If in non-blocking mode then return error */
    if (flags & O_NONBLOCK)
  80dbe8:	e0bfff17 	ldw	r2,-4(fp)
  80dbec:	1090000c 	andi	r2,r2,16384
  80dbf0:	10000126 	beq	r2,zero,80dbf8 <altera_avalon_jtag_uart_read+0x114>
      break;
  80dbf4:	00001106 	br	80dc3c <altera_avalon_jtag_uart_read+0x158>
      while (in == sp->rx_in && sp->host_inactive < sp->timeout)
        ;
    }
#else
    /* No OS: Always spin */
    while (in == sp->rx_in && sp->host_inactive < sp->timeout)
  80dbf8:	0001883a 	nop
  80dbfc:	e0bffc17 	ldw	r2,-16(fp)
  80dc00:	10c00a17 	ldw	r3,40(r2)
  80dc04:	e0bff717 	ldw	r2,-36(fp)
  80dc08:	1880051e 	bne	r3,r2,80dc20 <altera_avalon_jtag_uart_read+0x13c>
  80dc0c:	e0bffc17 	ldw	r2,-16(fp)
  80dc10:	10c00917 	ldw	r3,36(r2)
  80dc14:	e0bffc17 	ldw	r2,-16(fp)
  80dc18:	10800117 	ldw	r2,4(r2)
  80dc1c:	18bff736 	bltu	r3,r2,80dbfc <__alt_data_end+0xff80dbfc>
      ;
#endif /* __ucosii__ */

    if (in == sp->rx_in)
  80dc20:	e0bffc17 	ldw	r2,-16(fp)
  80dc24:	10c00a17 	ldw	r3,40(r2)
  80dc28:	e0bff717 	ldw	r2,-36(fp)
  80dc2c:	1880011e 	bne	r3,r2,80dc34 <altera_avalon_jtag_uart_read+0x150>
      break;
  80dc30:	00000206 	br	80dc3c <altera_avalon_jtag_uart_read+0x158>
   * When running in a multi threaded environment, obtain the "read_lock"
   * semaphore. This ensures that reading from the device is thread-safe.
   */
  ALT_SEM_PEND (sp->read_lock, 0);

  while (space > 0)
  80dc34:	e0bffe17 	ldw	r2,-8(fp)
  80dc38:	00bfb516 	blt	zero,r2,80db10 <__alt_data_end+0xff80db10>
   * semaphore so that other threads can access the buffer.
   */

  ALT_SEM_POST (sp->read_lock);

  if (ptr != buffer)
  80dc3c:	e0fff517 	ldw	r3,-44(fp)
  80dc40:	e0bffd17 	ldw	r2,-12(fp)
  80dc44:	18801826 	beq	r3,r2,80dca8 <altera_avalon_jtag_uart_read+0x1c4>
static ALT_INLINE alt_irq_context ALT_ALWAYS_INLINE 
       alt_irq_disable_all (void)
{
  alt_irq_context context;

  NIOS2_READ_STATUS (context);
  80dc48:	0005303a 	rdctl	r2,status
  80dc4c:	e0bffa15 	stw	r2,-24(fp)

  NIOS2_WRITE_STATUS (context & ~NIOS2_STATUS_PIE_MSK);
  80dc50:	e0fffa17 	ldw	r3,-24(fp)
  80dc54:	00bfff84 	movi	r2,-2
  80dc58:	1884703a 	and	r2,r3,r2
  80dc5c:	1001703a 	wrctl	status,r2
  
  return context;
  80dc60:	e0bffa17 	ldw	r2,-24(fp)
  {
    /* If we read any data then there is space in the buffer so enable interrupts */
    context = alt_irq_disable_all();
  80dc64:	e0bff915 	stw	r2,-28(fp)
    sp->irq_enable |= ALTERA_AVALON_JTAG_UART_CONTROL_RE_MSK;
  80dc68:	e0bffc17 	ldw	r2,-16(fp)
  80dc6c:	10800817 	ldw	r2,32(r2)
  80dc70:	10c00054 	ori	r3,r2,1
  80dc74:	e0bffc17 	ldw	r2,-16(fp)
  80dc78:	10c00815 	stw	r3,32(r2)
    IOWR_ALTERA_AVALON_JTAG_UART_CONTROL(sp->base, sp->irq_enable);
  80dc7c:	e0bffc17 	ldw	r2,-16(fp)
  80dc80:	10800017 	ldw	r2,0(r2)
  80dc84:	10800104 	addi	r2,r2,4
  80dc88:	1007883a 	mov	r3,r2
  80dc8c:	e0bffc17 	ldw	r2,-16(fp)
  80dc90:	10800817 	ldw	r2,32(r2)
  80dc94:	18800035 	stwio	r2,0(r3)
  80dc98:	e0bff917 	ldw	r2,-28(fp)
  80dc9c:	e0bffb15 	stw	r2,-20(fp)
  status &= ~NIOS2_STATUS_PIE_MSK;
  status |= (context & NIOS2_STATUS_PIE_MSK);
  
  NIOS2_WRITE_STATUS (status);
#else
  NIOS2_WRITE_STATUS (context);
  80dca0:	e0bffb17 	ldw	r2,-20(fp)
  80dca4:	1001703a 	wrctl	status,r2
    alt_irq_enable_all(context);
  }

  if (ptr != buffer)
  80dca8:	e0fff517 	ldw	r3,-44(fp)
  80dcac:	e0bffd17 	ldw	r2,-12(fp)
  80dcb0:	18800426 	beq	r3,r2,80dcc4 <altera_avalon_jtag_uart_read+0x1e0>
    return ptr - buffer;
  80dcb4:	e0fff517 	ldw	r3,-44(fp)
  80dcb8:	e0bffd17 	ldw	r2,-12(fp)
  80dcbc:	1885c83a 	sub	r2,r3,r2
  80dcc0:	00000606 	br	80dcdc <altera_avalon_jtag_uart_read+0x1f8>
  else if (flags & O_NONBLOCK)
  80dcc4:	e0bfff17 	ldw	r2,-4(fp)
  80dcc8:	1090000c 	andi	r2,r2,16384
  80dccc:	10000226 	beq	r2,zero,80dcd8 <altera_avalon_jtag_uart_read+0x1f4>
    return -EWOULDBLOCK;
  80dcd0:	00bffd44 	movi	r2,-11
  80dcd4:	00000106 	br	80dcdc <altera_avalon_jtag_uart_read+0x1f8>
  else
    return -EIO;
  80dcd8:	00bffec4 	movi	r2,-5
}
  80dcdc:	e037883a 	mov	sp,fp
  80dce0:	dfc00117 	ldw	ra,4(sp)
  80dce4:	df000017 	ldw	fp,0(sp)
  80dce8:	dec00204 	addi	sp,sp,8
  80dcec:	f800283a 	ret

0080dcf0 <altera_avalon_jtag_uart_write>:
/* ----------------------------------------------------------- */

int 
altera_avalon_jtag_uart_write(altera_avalon_jtag_uart_state* sp, 
  const char * ptr, int count, int flags)
{
  80dcf0:	defff304 	addi	sp,sp,-52
  80dcf4:	dfc00c15 	stw	ra,48(sp)
  80dcf8:	df000b15 	stw	fp,44(sp)
  80dcfc:	df000b04 	addi	fp,sp,44
  80dd00:	e13ffc15 	stw	r4,-16(fp)
  80dd04:	e17ffd15 	stw	r5,-12(fp)
  80dd08:	e1bffe15 	stw	r6,-8(fp)
  80dd0c:	e1ffff15 	stw	r7,-4(fp)
  /* Remove warning at optimisation level 03 by seting out to 0 */
  unsigned int in, out=0;
  80dd10:	e03ff515 	stw	zero,-44(fp)
  unsigned int n;
  alt_irq_context context;

  const char * start = ptr;
  80dd14:	e0bffd17 	ldw	r2,-12(fp)
  80dd18:	e0bff715 	stw	r2,-36(fp)
  ALT_SEM_PEND (sp->write_lock, 0);

  do
  {
    /* Copy as much as we can into the transmit buffer */
    while (count > 0)
  80dd1c:	00003806 	br	80de00 <altera_avalon_jtag_uart_write+0x110>
    {
      /* We need a stable value of the out pointer to calculate the space available */
      in  = sp->tx_in;
  80dd20:	e0bffc17 	ldw	r2,-16(fp)
  80dd24:	10800c17 	ldw	r2,48(r2)
  80dd28:	e0bff815 	stw	r2,-32(fp)
      out = sp->tx_out;
  80dd2c:	e0bffc17 	ldw	r2,-16(fp)
  80dd30:	10800d17 	ldw	r2,52(r2)
  80dd34:	e0bff515 	stw	r2,-44(fp)

      if (in < out)
  80dd38:	e0fff817 	ldw	r3,-32(fp)
  80dd3c:	e0bff517 	ldw	r2,-44(fp)
  80dd40:	1880062e 	bgeu	r3,r2,80dd5c <altera_avalon_jtag_uart_write+0x6c>
        n = out - 1 - in;
  80dd44:	e0fff517 	ldw	r3,-44(fp)
  80dd48:	e0bff817 	ldw	r2,-32(fp)
  80dd4c:	1885c83a 	sub	r2,r3,r2
  80dd50:	10bfffc4 	addi	r2,r2,-1
  80dd54:	e0bff615 	stw	r2,-40(fp)
  80dd58:	00000b06 	br	80dd88 <altera_avalon_jtag_uart_write+0x98>
      else if (out > 0)
  80dd5c:	e0bff517 	ldw	r2,-44(fp)
  80dd60:	10000526 	beq	r2,zero,80dd78 <altera_avalon_jtag_uart_write+0x88>
        n = ALTERA_AVALON_JTAG_UART_BUF_LEN - in;
  80dd64:	00c20004 	movi	r3,2048
  80dd68:	e0bff817 	ldw	r2,-32(fp)
  80dd6c:	1885c83a 	sub	r2,r3,r2
  80dd70:	e0bff615 	stw	r2,-40(fp)
  80dd74:	00000406 	br	80dd88 <altera_avalon_jtag_uart_write+0x98>
      else
        n = ALTERA_AVALON_JTAG_UART_BUF_LEN - 1 - in;
  80dd78:	00c1ffc4 	movi	r3,2047
  80dd7c:	e0bff817 	ldw	r2,-32(fp)
  80dd80:	1885c83a 	sub	r2,r3,r2
  80dd84:	e0bff615 	stw	r2,-40(fp)

      if (n == 0)
  80dd88:	e0bff617 	ldw	r2,-40(fp)
  80dd8c:	1000011e 	bne	r2,zero,80dd94 <altera_avalon_jtag_uart_write+0xa4>
        break;
  80dd90:	00001d06 	br	80de08 <altera_avalon_jtag_uart_write+0x118>

      if (n > count)
  80dd94:	e0fffe17 	ldw	r3,-8(fp)
  80dd98:	e0bff617 	ldw	r2,-40(fp)
  80dd9c:	1880022e 	bgeu	r3,r2,80dda8 <altera_avalon_jtag_uart_write+0xb8>
        n = count;
  80dda0:	e0bffe17 	ldw	r2,-8(fp)
  80dda4:	e0bff615 	stw	r2,-40(fp)

      memcpy(sp->tx_buf + in, ptr, n);
  80dda8:	e0bff817 	ldw	r2,-32(fp)
  80ddac:	10820e04 	addi	r2,r2,2104
  80ddb0:	e0fffc17 	ldw	r3,-16(fp)
  80ddb4:	1885883a 	add	r2,r3,r2
  80ddb8:	1009883a 	mov	r4,r2
  80ddbc:	e17ffd17 	ldw	r5,-12(fp)
  80ddc0:	e1bff617 	ldw	r6,-40(fp)
  80ddc4:	0810cbc0 	call	810cbc <memcpy>
      ptr   += n;
  80ddc8:	e0fffd17 	ldw	r3,-12(fp)
  80ddcc:	e0bff617 	ldw	r2,-40(fp)
  80ddd0:	1885883a 	add	r2,r3,r2
  80ddd4:	e0bffd15 	stw	r2,-12(fp)
      count -= n;
  80ddd8:	e0fffe17 	ldw	r3,-8(fp)
  80dddc:	e0bff617 	ldw	r2,-40(fp)
  80dde0:	1885c83a 	sub	r2,r3,r2
  80dde4:	e0bffe15 	stw	r2,-8(fp)

      sp->tx_in = (in + n) % ALTERA_AVALON_JTAG_UART_BUF_LEN;
  80dde8:	e0fff817 	ldw	r3,-32(fp)
  80ddec:	e0bff617 	ldw	r2,-40(fp)
  80ddf0:	1885883a 	add	r2,r3,r2
  80ddf4:	10c1ffcc 	andi	r3,r2,2047
  80ddf8:	e0bffc17 	ldw	r2,-16(fp)
  80ddfc:	10c00c15 	stw	r3,48(r2)
  ALT_SEM_PEND (sp->write_lock, 0);

  do
  {
    /* Copy as much as we can into the transmit buffer */
    while (count > 0)
  80de00:	e0bffe17 	ldw	r2,-8(fp)
  80de04:	00bfc616 	blt	zero,r2,80dd20 <__alt_data_end+0xff80dd20>
static ALT_INLINE alt_irq_context ALT_ALWAYS_INLINE 
       alt_irq_disable_all (void)
{
  alt_irq_context context;

  NIOS2_READ_STATUS (context);
  80de08:	0005303a 	rdctl	r2,status
  80de0c:	e0bffa15 	stw	r2,-24(fp)

  NIOS2_WRITE_STATUS (context & ~NIOS2_STATUS_PIE_MSK);
  80de10:	e0fffa17 	ldw	r3,-24(fp)
  80de14:	00bfff84 	movi	r2,-2
  80de18:	1884703a 	and	r2,r3,r2
  80de1c:	1001703a 	wrctl	status,r2
  
  return context;
  80de20:	e0bffa17 	ldw	r2,-24(fp)
     * to enable interrupts if there is no space left in the FIFO
     *
     * For now kick the interrupt routine every time to make it transmit 
     * the data 
     */
    context = alt_irq_disable_all();
  80de24:	e0bff915 	stw	r2,-28(fp)
    sp->irq_enable |= ALTERA_AVALON_JTAG_UART_CONTROL_WE_MSK;
  80de28:	e0bffc17 	ldw	r2,-16(fp)
  80de2c:	10800817 	ldw	r2,32(r2)
  80de30:	10c00094 	ori	r3,r2,2
  80de34:	e0bffc17 	ldw	r2,-16(fp)
  80de38:	10c00815 	stw	r3,32(r2)
    IOWR_ALTERA_AVALON_JTAG_UART_CONTROL(sp->base, sp->irq_enable);
  80de3c:	e0bffc17 	ldw	r2,-16(fp)
  80de40:	10800017 	ldw	r2,0(r2)
  80de44:	10800104 	addi	r2,r2,4
  80de48:	1007883a 	mov	r3,r2
  80de4c:	e0bffc17 	ldw	r2,-16(fp)
  80de50:	10800817 	ldw	r2,32(r2)
  80de54:	18800035 	stwio	r2,0(r3)
  80de58:	e0bff917 	ldw	r2,-28(fp)
  80de5c:	e0bffb15 	stw	r2,-20(fp)
  status &= ~NIOS2_STATUS_PIE_MSK;
  status |= (context & NIOS2_STATUS_PIE_MSK);
  
  NIOS2_WRITE_STATUS (status);
#else
  NIOS2_WRITE_STATUS (context);
  80de60:	e0bffb17 	ldw	r2,-20(fp)
  80de64:	1001703a 	wrctl	status,r2
    /* 
     * If there is any data left then either return now or block until 
     * some has been sent 
     */
    /* consider: test whether there is anything there while doing this and delay for at most 2s. */
    if (count > 0)
  80de68:	e0bffe17 	ldw	r2,-8(fp)
  80de6c:	0080120e 	bge	zero,r2,80deb8 <altera_avalon_jtag_uart_write+0x1c8>
    {
      if (flags & O_NONBLOCK)
  80de70:	e0bfff17 	ldw	r2,-4(fp)
  80de74:	1090000c 	andi	r2,r2,16384
  80de78:	10000126 	beq	r2,zero,80de80 <altera_avalon_jtag_uart_write+0x190>
        break;
  80de7c:	00001006 	br	80dec0 <altera_avalon_jtag_uart_write+0x1d0>
      /*
       * No OS present: Always wait for data to be removed from buffer.  Once
       * the interrupt routine has removed some data then we will be able to
       * insert some more.
       */
      while (out == sp->tx_out && sp->host_inactive < sp->timeout)
  80de80:	0001883a 	nop
  80de84:	e0bffc17 	ldw	r2,-16(fp)
  80de88:	10c00d17 	ldw	r3,52(r2)
  80de8c:	e0bff517 	ldw	r2,-44(fp)
  80de90:	1880051e 	bne	r3,r2,80dea8 <altera_avalon_jtag_uart_write+0x1b8>
  80de94:	e0bffc17 	ldw	r2,-16(fp)
  80de98:	10c00917 	ldw	r3,36(r2)
  80de9c:	e0bffc17 	ldw	r2,-16(fp)
  80dea0:	10800117 	ldw	r2,4(r2)
  80dea4:	18bff736 	bltu	r3,r2,80de84 <__alt_data_end+0xff80de84>
        ;
#endif /* __ucosii__ */

      if  (sp->host_inactive)
  80dea8:	e0bffc17 	ldw	r2,-16(fp)
  80deac:	10800917 	ldw	r2,36(r2)
  80deb0:	10000126 	beq	r2,zero,80deb8 <altera_avalon_jtag_uart_write+0x1c8>
         break;
  80deb4:	00000206 	br	80dec0 <altera_avalon_jtag_uart_write+0x1d0>
    }
  }
  while (count > 0);
  80deb8:	e0bffe17 	ldw	r2,-8(fp)
  80debc:	00bf9716 	blt	zero,r2,80dd1c <__alt_data_end+0xff80dd1c>
   * Now that access to the circular buffer is complete, release the write
   * semaphore so that other threads can access the buffer.
   */
  ALT_SEM_POST (sp->write_lock);

  if (ptr != start)
  80dec0:	e0fffd17 	ldw	r3,-12(fp)
  80dec4:	e0bff717 	ldw	r2,-36(fp)
  80dec8:	18800426 	beq	r3,r2,80dedc <altera_avalon_jtag_uart_write+0x1ec>
    return ptr - start;
  80decc:	e0fffd17 	ldw	r3,-12(fp)
  80ded0:	e0bff717 	ldw	r2,-36(fp)
  80ded4:	1885c83a 	sub	r2,r3,r2
  80ded8:	00000606 	br	80def4 <altera_avalon_jtag_uart_write+0x204>
  else if (flags & O_NONBLOCK)
  80dedc:	e0bfff17 	ldw	r2,-4(fp)
  80dee0:	1090000c 	andi	r2,r2,16384
  80dee4:	10000226 	beq	r2,zero,80def0 <altera_avalon_jtag_uart_write+0x200>
    return -EWOULDBLOCK;
  80dee8:	00bffd44 	movi	r2,-11
  80deec:	00000106 	br	80def4 <altera_avalon_jtag_uart_write+0x204>
    sp->tx_out = sp->tx_in = 0;
    return ptr - start + count;
  }
#endif
  else
    return -EIO; /* Host not connected */
  80def0:	00bffec4 	movi	r2,-5
}
  80def4:	e037883a 	mov	sp,fp
  80def8:	dfc00117 	ldw	ra,4(sp)
  80defc:	df000017 	ldw	fp,0(sp)
  80df00:	dec00204 	addi	sp,sp,8
  80df04:	f800283a 	ret

0080df08 <lcd_write_command>:

/* --------------------------------------------------------------------- */

static void lcd_write_command(altera_avalon_lcd_16207_state* sp, 
  unsigned char command)
{
  80df08:	defffa04 	addi	sp,sp,-24
  80df0c:	dfc00515 	stw	ra,20(sp)
  80df10:	df000415 	stw	fp,16(sp)
  80df14:	df000404 	addi	fp,sp,16
  80df18:	e13ffe15 	stw	r4,-8(fp)
  80df1c:	2805883a 	mov	r2,r5
  80df20:	e0bfff05 	stb	r2,-4(fp)
  unsigned int base = sp->base;
  80df24:	e0bffe17 	ldw	r2,-8(fp)
  80df28:	10800017 	ldw	r2,0(r2)
  80df2c:	e0bffd15 	stw	r2,-12(fp)
  /* We impose a timeout on the driver in case the LCD panel isn't connected.
   * The first time we call this function the timeout is approx 25ms 
   * (assuming 5 cycles per loop and a 200MHz clock).  Obviously systems
   * with slower clocks, or debug builds, or slower memory will take longer.
   */
  int i = 1000000;
  80df30:	008003f4 	movhi	r2,15
  80df34:	10909004 	addi	r2,r2,16960
  80df38:	e0bffc15 	stw	r2,-16(fp)

  /* Don't bother if the LCD panel didn't work before */
  if (sp->broken)
  80df3c:	e0bffe17 	ldw	r2,-8(fp)
  80df40:	10800803 	ldbu	r2,32(r2)
  80df44:	10803fcc 	andi	r2,r2,255
  80df48:	1080201c 	xori	r2,r2,128
  80df4c:	10bfe004 	addi	r2,r2,-128
  80df50:	10000126 	beq	r2,zero,80df58 <lcd_write_command+0x50>
    return;
  80df54:	00001406 	br	80dfa8 <lcd_write_command+0xa0>

  /* Wait until LCD isn't busy. */
  while (IORD_ALTERA_AVALON_LCD_16207_STATUS(base) & ALTERA_AVALON_LCD_16207_STATUS_BUSY_MSK)
  80df58:	00000906 	br	80df80 <lcd_write_command+0x78>
    if (--i == 0)
  80df5c:	e0bffc17 	ldw	r2,-16(fp)
  80df60:	10bfffc4 	addi	r2,r2,-1
  80df64:	e0bffc15 	stw	r2,-16(fp)
  80df68:	e0bffc17 	ldw	r2,-16(fp)
  80df6c:	1000041e 	bne	r2,zero,80df80 <lcd_write_command+0x78>
    {
      sp->broken = 1;
  80df70:	e0bffe17 	ldw	r2,-8(fp)
  80df74:	00c00044 	movi	r3,1
  80df78:	10c00805 	stb	r3,32(r2)
      return;
  80df7c:	00000a06 	br	80dfa8 <lcd_write_command+0xa0>
  /* Don't bother if the LCD panel didn't work before */
  if (sp->broken)
    return;

  /* Wait until LCD isn't busy. */
  while (IORD_ALTERA_AVALON_LCD_16207_STATUS(base) & ALTERA_AVALON_LCD_16207_STATUS_BUSY_MSK)
  80df80:	e0bffd17 	ldw	r2,-12(fp)
  80df84:	10800104 	addi	r2,r2,4
  80df88:	10800037 	ldwio	r2,0(r2)
  80df8c:	1080200c 	andi	r2,r2,128
  80df90:	103ff21e 	bne	r2,zero,80df5c <__alt_data_end+0xff80df5c>
    }

  /* Despite what it says in the datasheet, the LCD isn't ready to accept
   * a write immediately after it returns BUSY=0.  Wait for 100us more.
   */
  usleep(100);
  80df94:	01001904 	movi	r4,100
  80df98:	081075c0 	call	81075c <usleep>

  IOWR_ALTERA_AVALON_LCD_16207_COMMAND(base, command);
  80df9c:	e0bffd17 	ldw	r2,-12(fp)
  80dfa0:	e0ffff03 	ldbu	r3,-4(fp)
  80dfa4:	10c00035 	stwio	r3,0(r2)
}
  80dfa8:	e037883a 	mov	sp,fp
  80dfac:	dfc00117 	ldw	ra,4(sp)
  80dfb0:	df000017 	ldw	fp,0(sp)
  80dfb4:	dec00204 	addi	sp,sp,8
  80dfb8:	f800283a 	ret

0080dfbc <lcd_write_data>:

/* --------------------------------------------------------------------- */

static void lcd_write_data(altera_avalon_lcd_16207_state* sp, 
  unsigned char data)
{
  80dfbc:	defffa04 	addi	sp,sp,-24
  80dfc0:	dfc00515 	stw	ra,20(sp)
  80dfc4:	df000415 	stw	fp,16(sp)
  80dfc8:	df000404 	addi	fp,sp,16
  80dfcc:	e13ffe15 	stw	r4,-8(fp)
  80dfd0:	2805883a 	mov	r2,r5
  80dfd4:	e0bfff05 	stb	r2,-4(fp)
  unsigned int base = sp->base;
  80dfd8:	e0bffe17 	ldw	r2,-8(fp)
  80dfdc:	10800017 	ldw	r2,0(r2)
  80dfe0:	e0bffd15 	stw	r2,-12(fp)
  /* We impose a timeout on the driver in case the LCD panel isn't connected.
   * The first time we call this function the timeout is approx 25ms 
   * (assuming 5 cycles per loop and a 200MHz clock).  Obviously systems
   * with slower clocks, or debug builds, or slower memory will take longer.
   */
  int i = 1000000;
  80dfe4:	008003f4 	movhi	r2,15
  80dfe8:	10909004 	addi	r2,r2,16960
  80dfec:	e0bffc15 	stw	r2,-16(fp)

  /* Don't bother if the LCD panel didn't work before */
  if (sp->broken)
  80dff0:	e0bffe17 	ldw	r2,-8(fp)
  80dff4:	10800803 	ldbu	r2,32(r2)
  80dff8:	10803fcc 	andi	r2,r2,255
  80dffc:	1080201c 	xori	r2,r2,128
  80e000:	10bfe004 	addi	r2,r2,-128
  80e004:	10000126 	beq	r2,zero,80e00c <lcd_write_data+0x50>
    return;
  80e008:	00001c06 	br	80e07c <lcd_write_data+0xc0>

  /* Wait until LCD isn't busy. */
  while (IORD_ALTERA_AVALON_LCD_16207_STATUS(base) & ALTERA_AVALON_LCD_16207_STATUS_BUSY_MSK)
  80e00c:	00000906 	br	80e034 <lcd_write_data+0x78>
    if (--i == 0)
  80e010:	e0bffc17 	ldw	r2,-16(fp)
  80e014:	10bfffc4 	addi	r2,r2,-1
  80e018:	e0bffc15 	stw	r2,-16(fp)
  80e01c:	e0bffc17 	ldw	r2,-16(fp)
  80e020:	1000041e 	bne	r2,zero,80e034 <lcd_write_data+0x78>
    {
      sp->broken = 1;
  80e024:	e0bffe17 	ldw	r2,-8(fp)
  80e028:	00c00044 	movi	r3,1
  80e02c:	10c00805 	stb	r3,32(r2)
      return;
  80e030:	00001206 	br	80e07c <lcd_write_data+0xc0>
  /* Don't bother if the LCD panel didn't work before */
  if (sp->broken)
    return;

  /* Wait until LCD isn't busy. */
  while (IORD_ALTERA_AVALON_LCD_16207_STATUS(base) & ALTERA_AVALON_LCD_16207_STATUS_BUSY_MSK)
  80e034:	e0bffd17 	ldw	r2,-12(fp)
  80e038:	10800104 	addi	r2,r2,4
  80e03c:	10800037 	ldwio	r2,0(r2)
  80e040:	1080200c 	andi	r2,r2,128
  80e044:	103ff21e 	bne	r2,zero,80e010 <__alt_data_end+0xff80e010>
    }

  /* Despite what it says in the datasheet, the LCD isn't ready to accept
   * a write immediately after it returns BUSY=0.  Wait for 100us more.
   */
  usleep(100);
  80e048:	01001904 	movi	r4,100
  80e04c:	081075c0 	call	81075c <usleep>

  IOWR_ALTERA_AVALON_LCD_16207_DATA(base, data);
  80e050:	e0bffd17 	ldw	r2,-12(fp)
  80e054:	10800204 	addi	r2,r2,8
  80e058:	1007883a 	mov	r3,r2
  80e05c:	e0bfff03 	ldbu	r2,-4(fp)
  80e060:	18800035 	stwio	r2,0(r3)

  sp->address++;
  80e064:	e0bffe17 	ldw	r2,-8(fp)
  80e068:	108008c3 	ldbu	r2,35(r2)
  80e06c:	10800044 	addi	r2,r2,1
  80e070:	1007883a 	mov	r3,r2
  80e074:	e0bffe17 	ldw	r2,-8(fp)
  80e078:	10c008c5 	stb	r3,35(r2)
}
  80e07c:	e037883a 	mov	sp,fp
  80e080:	dfc00117 	ldw	ra,4(sp)
  80e084:	df000017 	ldw	fp,0(sp)
  80e088:	dec00204 	addi	sp,sp,8
  80e08c:	f800283a 	ret

0080e090 <lcd_clear_screen>:

/* --------------------------------------------------------------------- */

static void lcd_clear_screen(altera_avalon_lcd_16207_state* sp)
{
  80e090:	defffc04 	addi	sp,sp,-16
  80e094:	dfc00315 	stw	ra,12(sp)
  80e098:	df000215 	stw	fp,8(sp)
  80e09c:	df000204 	addi	fp,sp,8
  80e0a0:	e13fff15 	stw	r4,-4(fp)
  int y;

  lcd_write_command(sp, LCD_CMD_CLEAR);
  80e0a4:	e13fff17 	ldw	r4,-4(fp)
  80e0a8:	01400044 	movi	r5,1
  80e0ac:	080df080 	call	80df08 <lcd_write_command>

  sp->x = 0;
  80e0b0:	e0bfff17 	ldw	r2,-4(fp)
  80e0b4:	10000845 	stb	zero,33(r2)
  sp->y = 0;
  80e0b8:	e0bfff17 	ldw	r2,-4(fp)
  80e0bc:	10000885 	stb	zero,34(r2)
  sp->address = 0;
  80e0c0:	e0bfff17 	ldw	r2,-4(fp)
  80e0c4:	100008c5 	stb	zero,35(r2)

  for (y = 0 ; y < ALT_LCD_HEIGHT ; y++)
  80e0c8:	e03ffe15 	stw	zero,-8(fp)
  80e0cc:	00001b06 	br	80e13c <lcd_clear_screen+0xac>
  {
    memset(sp->line[y].data, ' ', sizeof(sp->line[0].data));
  80e0d0:	e0bffe17 	ldw	r2,-8(fp)
  80e0d4:	108018e4 	muli	r2,r2,99
  80e0d8:	10801004 	addi	r2,r2,64
  80e0dc:	e0ffff17 	ldw	r3,-4(fp)
  80e0e0:	1885883a 	add	r2,r3,r2
  80e0e4:	1009883a 	mov	r4,r2
  80e0e8:	01400804 	movi	r5,32
  80e0ec:	01801444 	movi	r6,81
  80e0f0:	080a1ec0 	call	80a1ec <memset>
    memset(sp->line[y].visible, ' ', sizeof(sp->line[0].visible));
  80e0f4:	e0bffe17 	ldw	r2,-8(fp)
  80e0f8:	108018e4 	muli	r2,r2,99
  80e0fc:	10800c04 	addi	r2,r2,48
  80e100:	e0ffff17 	ldw	r3,-4(fp)
  80e104:	1885883a 	add	r2,r3,r2
  80e108:	1009883a 	mov	r4,r2
  80e10c:	01400804 	movi	r5,32
  80e110:	01800404 	movi	r6,16
  80e114:	080a1ec0 	call	80a1ec <memset>
    sp->line[y].width = 0;
  80e118:	e0ffff17 	ldw	r3,-4(fp)
  80e11c:	e0bffe17 	ldw	r2,-8(fp)
  80e120:	108018e4 	muli	r2,r2,99
  80e124:	10802404 	addi	r2,r2,144
  80e128:	1885883a 	add	r2,r3,r2
  80e12c:	10000045 	stb	zero,1(r2)

  sp->x = 0;
  sp->y = 0;
  sp->address = 0;

  for (y = 0 ; y < ALT_LCD_HEIGHT ; y++)
  80e130:	e0bffe17 	ldw	r2,-8(fp)
  80e134:	10800044 	addi	r2,r2,1
  80e138:	e0bffe15 	stw	r2,-8(fp)
  80e13c:	e0bffe17 	ldw	r2,-8(fp)
  80e140:	10800090 	cmplti	r2,r2,2
  80e144:	103fe21e 	bne	r2,zero,80e0d0 <__alt_data_end+0xff80e0d0>
  {
    memset(sp->line[y].data, ' ', sizeof(sp->line[0].data));
    memset(sp->line[y].visible, ' ', sizeof(sp->line[0].visible));
    sp->line[y].width = 0;
  }
}
  80e148:	e037883a 	mov	sp,fp
  80e14c:	dfc00117 	ldw	ra,4(sp)
  80e150:	df000017 	ldw	fp,0(sp)
  80e154:	dec00204 	addi	sp,sp,8
  80e158:	f800283a 	ret

0080e15c <lcd_repaint_screen>:

/* --------------------------------------------------------------------- */

static void lcd_repaint_screen(altera_avalon_lcd_16207_state* sp)
{
  80e15c:	defff704 	addi	sp,sp,-36
  80e160:	dfc00815 	stw	ra,32(sp)
  80e164:	df000715 	stw	fp,28(sp)
  80e168:	df000704 	addi	fp,sp,28
  80e16c:	e13fff15 	stw	r4,-4(fp)
  /* scrollpos controls how much the lines have scrolled round.  The speed
   * each line scrolls at is controlled by its speed variable - while
   * scrolline lines will wrap at the position set by width
   */

  int scrollpos = sp->scrollpos;
  80e170:	e0bfff17 	ldw	r2,-4(fp)
  80e174:	10800943 	ldbu	r2,37(r2)
  80e178:	10803fcc 	andi	r2,r2,255
  80e17c:	e0bffc15 	stw	r2,-16(fp)

  for (y = 0 ; y < ALT_LCD_HEIGHT ; y++)
  80e180:	e03ff915 	stw	zero,-28(fp)
  80e184:	00006706 	br	80e324 <lcd_repaint_screen+0x1c8>
  {
    int width  = sp->line[y].width;
  80e188:	e0ffff17 	ldw	r3,-4(fp)
  80e18c:	e0bff917 	ldw	r2,-28(fp)
  80e190:	108018e4 	muli	r2,r2,99
  80e194:	10802404 	addi	r2,r2,144
  80e198:	1885883a 	add	r2,r3,r2
  80e19c:	10800043 	ldbu	r2,1(r2)
  80e1a0:	10803fcc 	andi	r2,r2,255
  80e1a4:	1080201c 	xori	r2,r2,128
  80e1a8:	10bfe004 	addi	r2,r2,-128
  80e1ac:	e0bffd15 	stw	r2,-12(fp)
    int offset = (scrollpos * sp->line[y].speed) >> 8;
  80e1b0:	e0ffff17 	ldw	r3,-4(fp)
  80e1b4:	e0bff917 	ldw	r2,-28(fp)
  80e1b8:	108018e4 	muli	r2,r2,99
  80e1bc:	10802404 	addi	r2,r2,144
  80e1c0:	1885883a 	add	r2,r3,r2
  80e1c4:	10800083 	ldbu	r2,2(r2)
  80e1c8:	10c03fcc 	andi	r3,r2,255
  80e1cc:	e0bffc17 	ldw	r2,-16(fp)
  80e1d0:	1885383a 	mul	r2,r3,r2
  80e1d4:	1005d23a 	srai	r2,r2,8
  80e1d8:	e0bffb15 	stw	r2,-20(fp)
    if (offset >= width)
  80e1dc:	e0fffb17 	ldw	r3,-20(fp)
  80e1e0:	e0bffd17 	ldw	r2,-12(fp)
  80e1e4:	18800116 	blt	r3,r2,80e1ec <lcd_repaint_screen+0x90>
      offset = 0;
  80e1e8:	e03ffb15 	stw	zero,-20(fp)

    for (x = 0 ; x < ALT_LCD_WIDTH ; x++)
  80e1ec:	e03ffa15 	stw	zero,-24(fp)
  80e1f0:	00004606 	br	80e30c <lcd_repaint_screen+0x1b0>
    {
      char c = sp->line[y].data[(x + offset) % width];
  80e1f4:	e0fffa17 	ldw	r3,-24(fp)
  80e1f8:	e0bffb17 	ldw	r2,-20(fp)
  80e1fc:	1885883a 	add	r2,r3,r2
  80e200:	1009883a 	mov	r4,r2
  80e204:	e17ffd17 	ldw	r5,-12(fp)
  80e208:	080a0880 	call	80a088 <__modsi3>
  80e20c:	1009883a 	mov	r4,r2
  80e210:	e0ffff17 	ldw	r3,-4(fp)
  80e214:	e0bff917 	ldw	r2,-28(fp)
  80e218:	108018e4 	muli	r2,r2,99
  80e21c:	1885883a 	add	r2,r3,r2
  80e220:	1105883a 	add	r2,r2,r4
  80e224:	10801004 	addi	r2,r2,64
  80e228:	10800003 	ldbu	r2,0(r2)
  80e22c:	e0bffe05 	stb	r2,-8(fp)

      /* Writing data takes 40us, so don't do it unless required */
      if (sp->line[y].visible[x] != c)
  80e230:	e0ffff17 	ldw	r3,-4(fp)
  80e234:	e0bff917 	ldw	r2,-28(fp)
  80e238:	108018e4 	muli	r2,r2,99
  80e23c:	1887883a 	add	r3,r3,r2
  80e240:	e0bffa17 	ldw	r2,-24(fp)
  80e244:	1885883a 	add	r2,r3,r2
  80e248:	10800c04 	addi	r2,r2,48
  80e24c:	10800003 	ldbu	r2,0(r2)
  80e250:	10c03fcc 	andi	r3,r2,255
  80e254:	18c0201c 	xori	r3,r3,128
  80e258:	18ffe004 	addi	r3,r3,-128
  80e25c:	e0bffe07 	ldb	r2,-8(fp)
  80e260:	18802726 	beq	r3,r2,80e300 <lcd_repaint_screen+0x1a4>
      {
        unsigned char address = x + colstart[y];
  80e264:	e0fff917 	ldw	r3,-28(fp)
  80e268:	d0a00f04 	addi	r2,gp,-32708
  80e26c:	1885883a 	add	r2,r3,r2
  80e270:	10800003 	ldbu	r2,0(r2)
  80e274:	1007883a 	mov	r3,r2
  80e278:	e0bffa17 	ldw	r2,-24(fp)
  80e27c:	1885883a 	add	r2,r3,r2
  80e280:	e0bffe45 	stb	r2,-7(fp)

        if (address != sp->address)
  80e284:	e0fffe43 	ldbu	r3,-7(fp)
  80e288:	e0bfff17 	ldw	r2,-4(fp)
  80e28c:	108008c3 	ldbu	r2,35(r2)
  80e290:	10803fcc 	andi	r2,r2,255
  80e294:	1080201c 	xori	r2,r2,128
  80e298:	10bfe004 	addi	r2,r2,-128
  80e29c:	18800a26 	beq	r3,r2,80e2c8 <lcd_repaint_screen+0x16c>
        {
          lcd_write_command(sp, LCD_CMD_WRITE_DATA | address);
  80e2a0:	e0fffe43 	ldbu	r3,-7(fp)
  80e2a4:	00bfe004 	movi	r2,-128
  80e2a8:	1884b03a 	or	r2,r3,r2
  80e2ac:	10803fcc 	andi	r2,r2,255
  80e2b0:	e13fff17 	ldw	r4,-4(fp)
  80e2b4:	100b883a 	mov	r5,r2
  80e2b8:	080df080 	call	80df08 <lcd_write_command>
          sp->address = address;
  80e2bc:	e0fffe43 	ldbu	r3,-7(fp)
  80e2c0:	e0bfff17 	ldw	r2,-4(fp)
  80e2c4:	10c008c5 	stb	r3,35(r2)
        }

        lcd_write_data(sp, c);
  80e2c8:	e0bffe03 	ldbu	r2,-8(fp)
  80e2cc:	10803fcc 	andi	r2,r2,255
  80e2d0:	e13fff17 	ldw	r4,-4(fp)
  80e2d4:	100b883a 	mov	r5,r2
  80e2d8:	080dfbc0 	call	80dfbc <lcd_write_data>
        sp->line[y].visible[x] = c;
  80e2dc:	e0ffff17 	ldw	r3,-4(fp)
  80e2e0:	e0bff917 	ldw	r2,-28(fp)
  80e2e4:	108018e4 	muli	r2,r2,99
  80e2e8:	1887883a 	add	r3,r3,r2
  80e2ec:	e0bffa17 	ldw	r2,-24(fp)
  80e2f0:	1885883a 	add	r2,r3,r2
  80e2f4:	10800c04 	addi	r2,r2,48
  80e2f8:	e0fffe03 	ldbu	r3,-8(fp)
  80e2fc:	10c00005 	stb	r3,0(r2)
    int width  = sp->line[y].width;
    int offset = (scrollpos * sp->line[y].speed) >> 8;
    if (offset >= width)
      offset = 0;

    for (x = 0 ; x < ALT_LCD_WIDTH ; x++)
  80e300:	e0bffa17 	ldw	r2,-24(fp)
  80e304:	10800044 	addi	r2,r2,1
  80e308:	e0bffa15 	stw	r2,-24(fp)
  80e30c:	e0bffa17 	ldw	r2,-24(fp)
  80e310:	10800410 	cmplti	r2,r2,16
  80e314:	103fb71e 	bne	r2,zero,80e1f4 <__alt_data_end+0xff80e1f4>
   * scrolline lines will wrap at the position set by width
   */

  int scrollpos = sp->scrollpos;

  for (y = 0 ; y < ALT_LCD_HEIGHT ; y++)
  80e318:	e0bff917 	ldw	r2,-28(fp)
  80e31c:	10800044 	addi	r2,r2,1
  80e320:	e0bff915 	stw	r2,-28(fp)
  80e324:	e0bff917 	ldw	r2,-28(fp)
  80e328:	10800090 	cmplti	r2,r2,2
  80e32c:	103f961e 	bne	r2,zero,80e188 <__alt_data_end+0xff80e188>
        lcd_write_data(sp, c);
        sp->line[y].visible[x] = c;
      }
    }
  }
}
  80e330:	e037883a 	mov	sp,fp
  80e334:	dfc00117 	ldw	ra,4(sp)
  80e338:	df000017 	ldw	fp,0(sp)
  80e33c:	dec00204 	addi	sp,sp,8
  80e340:	f800283a 	ret

0080e344 <lcd_scroll_up>:

/* --------------------------------------------------------------------- */

static void lcd_scroll_up(altera_avalon_lcd_16207_state* sp)
{
  80e344:	defffc04 	addi	sp,sp,-16
  80e348:	dfc00315 	stw	ra,12(sp)
  80e34c:	df000215 	stw	fp,8(sp)
  80e350:	df000204 	addi	fp,sp,8
  80e354:	e13fff15 	stw	r4,-4(fp)
  int y;

  for (y = 0 ; y < ALT_LCD_HEIGHT ; y++)
  80e358:	e03ffe15 	stw	zero,-8(fp)
  80e35c:	00001d06 	br	80e3d4 <lcd_scroll_up+0x90>
  {
    if (y < ALT_LCD_HEIGHT-1)
  80e360:	e0bffe17 	ldw	r2,-8(fp)
  80e364:	00800f16 	blt	zero,r2,80e3a4 <lcd_scroll_up+0x60>
      memcpy(sp->line[y].data, sp->line[y+1].data, ALT_LCD_VIRTUAL_WIDTH);
  80e368:	e0bffe17 	ldw	r2,-8(fp)
  80e36c:	108018e4 	muli	r2,r2,99
  80e370:	10801004 	addi	r2,r2,64
  80e374:	e0ffff17 	ldw	r3,-4(fp)
  80e378:	1889883a 	add	r4,r3,r2
  80e37c:	e0bffe17 	ldw	r2,-8(fp)
  80e380:	10800044 	addi	r2,r2,1
  80e384:	108018e4 	muli	r2,r2,99
  80e388:	10801004 	addi	r2,r2,64
  80e38c:	e0ffff17 	ldw	r3,-4(fp)
  80e390:	1885883a 	add	r2,r3,r2
  80e394:	100b883a 	mov	r5,r2
  80e398:	01801404 	movi	r6,80
  80e39c:	0810cbc0 	call	810cbc <memcpy>
  80e3a0:	00000906 	br	80e3c8 <lcd_scroll_up+0x84>
    else
      memset(sp->line[y].data, ' ', ALT_LCD_VIRTUAL_WIDTH);
  80e3a4:	e0bffe17 	ldw	r2,-8(fp)
  80e3a8:	108018e4 	muli	r2,r2,99
  80e3ac:	10801004 	addi	r2,r2,64
  80e3b0:	e0ffff17 	ldw	r3,-4(fp)
  80e3b4:	1885883a 	add	r2,r3,r2
  80e3b8:	1009883a 	mov	r4,r2
  80e3bc:	01400804 	movi	r5,32
  80e3c0:	01801404 	movi	r6,80
  80e3c4:	080a1ec0 	call	80a1ec <memset>

static void lcd_scroll_up(altera_avalon_lcd_16207_state* sp)
{
  int y;

  for (y = 0 ; y < ALT_LCD_HEIGHT ; y++)
  80e3c8:	e0bffe17 	ldw	r2,-8(fp)
  80e3cc:	10800044 	addi	r2,r2,1
  80e3d0:	e0bffe15 	stw	r2,-8(fp)
  80e3d4:	e0bffe17 	ldw	r2,-8(fp)
  80e3d8:	10800090 	cmplti	r2,r2,2
  80e3dc:	103fe01e 	bne	r2,zero,80e360 <__alt_data_end+0xff80e360>
      memcpy(sp->line[y].data, sp->line[y+1].data, ALT_LCD_VIRTUAL_WIDTH);
    else
      memset(sp->line[y].data, ' ', ALT_LCD_VIRTUAL_WIDTH);
  }

  sp->y--;
  80e3e0:	e0bfff17 	ldw	r2,-4(fp)
  80e3e4:	10800883 	ldbu	r2,34(r2)
  80e3e8:	10bfffc4 	addi	r2,r2,-1
  80e3ec:	1007883a 	mov	r3,r2
  80e3f0:	e0bfff17 	ldw	r2,-4(fp)
  80e3f4:	10c00885 	stb	r3,34(r2)
}
  80e3f8:	e037883a 	mov	sp,fp
  80e3fc:	dfc00117 	ldw	ra,4(sp)
  80e400:	df000017 	ldw	fp,0(sp)
  80e404:	dec00204 	addi	sp,sp,8
  80e408:	f800283a 	ret

0080e40c <lcd_handle_escape>:

/* --------------------------------------------------------------------- */

static void lcd_handle_escape(altera_avalon_lcd_16207_state* sp, char c)
{
  80e40c:	defff904 	addi	sp,sp,-28
  80e410:	dfc00615 	stw	ra,24(sp)
  80e414:	df000515 	stw	fp,20(sp)
  80e418:	df000504 	addi	fp,sp,20
  80e41c:	e13ffe15 	stw	r4,-8(fp)
  80e420:	2805883a 	mov	r2,r5
  80e424:	e0bfff05 	stb	r2,-4(fp)
  int parm1 = 0, parm2 = 0;
  80e428:	e03ffb15 	stw	zero,-20(fp)
  80e42c:	e03ffc15 	stw	zero,-16(fp)

  if (sp->escape[0] == '[')
  80e430:	e0bffe17 	ldw	r2,-8(fp)
  80e434:	10800a03 	ldbu	r2,40(r2)
  80e438:	10803fcc 	andi	r2,r2,255
  80e43c:	1080201c 	xori	r2,r2,128
  80e440:	10bfe004 	addi	r2,r2,-128
  80e444:	108016d8 	cmpnei	r2,r2,91
  80e448:	1000441e 	bne	r2,zero,80e55c <lcd_handle_escape+0x150>
  {
    char * ptr = sp->escape+1;
  80e44c:	e0bffe17 	ldw	r2,-8(fp)
  80e450:	10800a44 	addi	r2,r2,41
  80e454:	e0bffd15 	stw	r2,-12(fp)
    while (isdigit(*ptr))
  80e458:	00000c06 	br	80e48c <lcd_handle_escape+0x80>
      parm1 = (parm1 * 10) + (*ptr++ - '0');
  80e45c:	e0bffb17 	ldw	r2,-20(fp)
  80e460:	10c002a4 	muli	r3,r2,10
  80e464:	e0bffd17 	ldw	r2,-12(fp)
  80e468:	11000044 	addi	r4,r2,1
  80e46c:	e13ffd15 	stw	r4,-12(fp)
  80e470:	10800003 	ldbu	r2,0(r2)
  80e474:	10803fcc 	andi	r2,r2,255
  80e478:	1080201c 	xori	r2,r2,128
  80e47c:	10bfe004 	addi	r2,r2,-128
  80e480:	10bff404 	addi	r2,r2,-48
  80e484:	1885883a 	add	r2,r3,r2
  80e488:	e0bffb15 	stw	r2,-20(fp)
  int parm1 = 0, parm2 = 0;

  if (sp->escape[0] == '[')
  {
    char * ptr = sp->escape+1;
    while (isdigit(*ptr))
  80e48c:	00802074 	movhi	r2,129
  80e490:	108dfa04 	addi	r2,r2,14312
  80e494:	10c00017 	ldw	r3,0(r2)
  80e498:	e0bffd17 	ldw	r2,-12(fp)
  80e49c:	10800003 	ldbu	r2,0(r2)
  80e4a0:	10803fcc 	andi	r2,r2,255
  80e4a4:	1080201c 	xori	r2,r2,128
  80e4a8:	10bfe004 	addi	r2,r2,-128
  80e4ac:	10800044 	addi	r2,r2,1
  80e4b0:	1885883a 	add	r2,r3,r2
  80e4b4:	10800003 	ldbu	r2,0(r2)
  80e4b8:	10803fcc 	andi	r2,r2,255
  80e4bc:	1080010c 	andi	r2,r2,4
  80e4c0:	103fe61e 	bne	r2,zero,80e45c <__alt_data_end+0xff80e45c>
      parm1 = (parm1 * 10) + (*ptr++ - '0');

    if (*ptr == ';')
  80e4c4:	e0bffd17 	ldw	r2,-12(fp)
  80e4c8:	10800003 	ldbu	r2,0(r2)
  80e4cc:	10803fcc 	andi	r2,r2,255
  80e4d0:	1080201c 	xori	r2,r2,128
  80e4d4:	10bfe004 	addi	r2,r2,-128
  80e4d8:	10800ed8 	cmpnei	r2,r2,59
  80e4dc:	10001e1e 	bne	r2,zero,80e558 <lcd_handle_escape+0x14c>
    {
      ptr++;
  80e4e0:	e0bffd17 	ldw	r2,-12(fp)
  80e4e4:	10800044 	addi	r2,r2,1
  80e4e8:	e0bffd15 	stw	r2,-12(fp)
      while (isdigit(*ptr))
  80e4ec:	00000c06 	br	80e520 <lcd_handle_escape+0x114>
        parm2 = (parm2 * 10) + (*ptr++ - '0');
  80e4f0:	e0bffc17 	ldw	r2,-16(fp)
  80e4f4:	10c002a4 	muli	r3,r2,10
  80e4f8:	e0bffd17 	ldw	r2,-12(fp)
  80e4fc:	11000044 	addi	r4,r2,1
  80e500:	e13ffd15 	stw	r4,-12(fp)
  80e504:	10800003 	ldbu	r2,0(r2)
  80e508:	10803fcc 	andi	r2,r2,255
  80e50c:	1080201c 	xori	r2,r2,128
  80e510:	10bfe004 	addi	r2,r2,-128
  80e514:	10bff404 	addi	r2,r2,-48
  80e518:	1885883a 	add	r2,r3,r2
  80e51c:	e0bffc15 	stw	r2,-16(fp)
      parm1 = (parm1 * 10) + (*ptr++ - '0');

    if (*ptr == ';')
    {
      ptr++;
      while (isdigit(*ptr))
  80e520:	00802074 	movhi	r2,129
  80e524:	108dfa04 	addi	r2,r2,14312
  80e528:	10c00017 	ldw	r3,0(r2)
  80e52c:	e0bffd17 	ldw	r2,-12(fp)
  80e530:	10800003 	ldbu	r2,0(r2)
  80e534:	10803fcc 	andi	r2,r2,255
  80e538:	1080201c 	xori	r2,r2,128
  80e53c:	10bfe004 	addi	r2,r2,-128
  80e540:	10800044 	addi	r2,r2,1
  80e544:	1885883a 	add	r2,r3,r2
  80e548:	10800003 	ldbu	r2,0(r2)
  80e54c:	10803fcc 	andi	r2,r2,255
  80e550:	1080010c 	andi	r2,r2,4
  80e554:	103fe61e 	bne	r2,zero,80e4f0 <__alt_data_end+0xff80e4f0>
  80e558:	00000206 	br	80e564 <lcd_handle_escape+0x158>
        parm2 = (parm2 * 10) + (*ptr++ - '0');
    }
  }
  else
    parm1 = -1;
  80e55c:	00bfffc4 	movi	r2,-1
  80e560:	e0bffb15 	stw	r2,-20(fp)

  switch (c)
  80e564:	e0bfff07 	ldb	r2,-4(fp)
  80e568:	10c012a0 	cmpeqi	r3,r2,74
  80e56c:	1800281e 	bne	r3,zero,80e610 <lcd_handle_escape+0x204>
  80e570:	10c012c8 	cmpgei	r3,r2,75
  80e574:	1800031e 	bne	r3,zero,80e584 <lcd_handle_escape+0x178>
  80e578:	10801220 	cmpeqi	r2,r2,72
  80e57c:	1000051e 	bne	r2,zero,80e594 <lcd_handle_escape+0x188>
  80e580:	00004506 	br	80e698 <lcd_handle_escape+0x28c>
  80e584:	10c012e0 	cmpeqi	r3,r2,75
  80e588:	1800281e 	bne	r3,zero,80e62c <lcd_handle_escape+0x220>
  80e58c:	108019a0 	cmpeqi	r2,r2,102
  80e590:	10004126 	beq	r2,zero,80e698 <lcd_handle_escape+0x28c>
  {
  case 'H': /* ESC '[' <y> ';' <x> 'H'  : Move cursor to location */
  case 'f': /* Same as above */
    if (parm2 > 0)
  80e594:	e0bffc17 	ldw	r2,-16(fp)
  80e598:	0080050e 	bge	zero,r2,80e5b0 <lcd_handle_escape+0x1a4>
      sp->x = parm2 - 1;
  80e59c:	e0bffc17 	ldw	r2,-16(fp)
  80e5a0:	10bfffc4 	addi	r2,r2,-1
  80e5a4:	1007883a 	mov	r3,r2
  80e5a8:	e0bffe17 	ldw	r2,-8(fp)
  80e5ac:	10c00845 	stb	r3,33(r2)
    if (parm1 > 0)
  80e5b0:	e0bffb17 	ldw	r2,-20(fp)
  80e5b4:	0080150e 	bge	zero,r2,80e60c <lcd_handle_escape+0x200>
    {
      sp->y = parm1 - 1;
  80e5b8:	e0bffb17 	ldw	r2,-20(fp)
  80e5bc:	10bfffc4 	addi	r2,r2,-1
  80e5c0:	1007883a 	mov	r3,r2
  80e5c4:	e0bffe17 	ldw	r2,-8(fp)
  80e5c8:	10c00885 	stb	r3,34(r2)
      if (sp->y > ALT_LCD_HEIGHT * 2)
  80e5cc:	e0bffe17 	ldw	r2,-8(fp)
  80e5d0:	10800883 	ldbu	r2,34(r2)
  80e5d4:	10803fcc 	andi	r2,r2,255
  80e5d8:	10800170 	cmpltui	r2,r2,5
  80e5dc:	1000031e 	bne	r2,zero,80e5ec <lcd_handle_escape+0x1e0>
        sp->y = ALT_LCD_HEIGHT * 2;
  80e5e0:	e0bffe17 	ldw	r2,-8(fp)
  80e5e4:	00c00104 	movi	r3,4
  80e5e8:	10c00885 	stb	r3,34(r2)
      while (sp->y > ALT_LCD_HEIGHT)
  80e5ec:	00000206 	br	80e5f8 <lcd_handle_escape+0x1ec>
        lcd_scroll_up(sp);
  80e5f0:	e13ffe17 	ldw	r4,-8(fp)
  80e5f4:	080e3440 	call	80e344 <lcd_scroll_up>
    if (parm1 > 0)
    {
      sp->y = parm1 - 1;
      if (sp->y > ALT_LCD_HEIGHT * 2)
        sp->y = ALT_LCD_HEIGHT * 2;
      while (sp->y > ALT_LCD_HEIGHT)
  80e5f8:	e0bffe17 	ldw	r2,-8(fp)
  80e5fc:	10800883 	ldbu	r2,34(r2)
  80e600:	10803fcc 	andi	r2,r2,255
  80e604:	108000e8 	cmpgeui	r2,r2,3
  80e608:	103ff91e 	bne	r2,zero,80e5f0 <__alt_data_end+0xff80e5f0>
        lcd_scroll_up(sp);
    }
    break;
  80e60c:	00002206 	br	80e698 <lcd_handle_escape+0x28c>
    /*   ESC J      is clear to beginning of line    [unimplemented]
     *   ESC [ 0 J  is clear to bottom of screen     [unimplemented]
     *   ESC [ 1 J  is clear to beginning of screen  [unimplemented]
     *   ESC [ 2 J  is clear screen
     */
    if (parm1 == 2)
  80e610:	e0bffb17 	ldw	r2,-20(fp)
  80e614:	10800098 	cmpnei	r2,r2,2
  80e618:	1000031e 	bne	r2,zero,80e628 <lcd_handle_escape+0x21c>
      lcd_clear_screen(sp);
  80e61c:	e13ffe17 	ldw	r4,-8(fp)
  80e620:	080e0900 	call	80e090 <lcd_clear_screen>
    break;
  80e624:	00001c06 	br	80e698 <lcd_handle_escape+0x28c>
  80e628:	00001b06 	br	80e698 <lcd_handle_escape+0x28c>
    /*   ESC K      is clear to end of line
     *   ESC [ 0 K  is clear to end of line
     *   ESC [ 1 K  is clear to beginning of line    [unimplemented]
     *   ESC [ 2 K  is clear line                    [unimplemented]
     */
    if (parm1 < 1)
  80e62c:	e0bffb17 	ldw	r2,-20(fp)
  80e630:	00801816 	blt	zero,r2,80e694 <lcd_handle_escape+0x288>
    {
      if (sp->x < ALT_LCD_VIRTUAL_WIDTH)
  80e634:	e0bffe17 	ldw	r2,-8(fp)
  80e638:	10800843 	ldbu	r2,33(r2)
  80e63c:	10803fcc 	andi	r2,r2,255
  80e640:	10801428 	cmpgeui	r2,r2,80
  80e644:	1000131e 	bne	r2,zero,80e694 <lcd_handle_escape+0x288>
        memset(sp->line[sp->y].data + sp->x, ' ', ALT_LCD_VIRTUAL_WIDTH - sp->x);
  80e648:	e0bffe17 	ldw	r2,-8(fp)
  80e64c:	10800883 	ldbu	r2,34(r2)
  80e650:	10803fcc 	andi	r2,r2,255
  80e654:	108018e4 	muli	r2,r2,99
  80e658:	10801004 	addi	r2,r2,64
  80e65c:	e0fffe17 	ldw	r3,-8(fp)
  80e660:	1887883a 	add	r3,r3,r2
  80e664:	e0bffe17 	ldw	r2,-8(fp)
  80e668:	10800843 	ldbu	r2,33(r2)
  80e66c:	10803fcc 	andi	r2,r2,255
  80e670:	1889883a 	add	r4,r3,r2
  80e674:	e0bffe17 	ldw	r2,-8(fp)
  80e678:	10800843 	ldbu	r2,33(r2)
  80e67c:	10803fcc 	andi	r2,r2,255
  80e680:	00c01404 	movi	r3,80
  80e684:	1885c83a 	sub	r2,r3,r2
  80e688:	01400804 	movi	r5,32
  80e68c:	100d883a 	mov	r6,r2
  80e690:	080a1ec0 	call	80a1ec <memset>
    }
    break;
  80e694:	0001883a 	nop
  }
}
  80e698:	e037883a 	mov	sp,fp
  80e69c:	dfc00117 	ldw	ra,4(sp)
  80e6a0:	df000017 	ldw	fp,0(sp)
  80e6a4:	dec00204 	addi	sp,sp,8
  80e6a8:	f800283a 	ret

0080e6ac <altera_avalon_lcd_16207_write>:

/* --------------------------------------------------------------------- */

int altera_avalon_lcd_16207_write(altera_avalon_lcd_16207_state* sp, 
  const char* ptr, int len, int flags)
{
  80e6ac:	defff304 	addi	sp,sp,-52
  80e6b0:	dfc00c15 	stw	ra,48(sp)
  80e6b4:	df000b15 	stw	fp,44(sp)
  80e6b8:	df000b04 	addi	fp,sp,44
  80e6bc:	e13ffc15 	stw	r4,-16(fp)
  80e6c0:	e17ffd15 	stw	r5,-12(fp)
  80e6c4:	e1bffe15 	stw	r6,-8(fp)
  80e6c8:	e1ffff15 	stw	r7,-4(fp)
  const char* end = ptr + len;
  80e6cc:	e0bffe17 	ldw	r2,-8(fp)
  80e6d0:	e0fffd17 	ldw	r3,-12(fp)
  80e6d4:	1885883a 	add	r2,r3,r2
  80e6d8:	e0bff815 	stw	r2,-32(fp)

  ALT_SEM_PEND (sp->write_lock, 0);

  /* Tell the routine which is called off the timer interrupt that the
   * foreground routines are active so it must not repaint the display. */
  sp->active = 1;
  80e6dc:	e0bffc17 	ldw	r2,-16(fp)
  80e6e0:	00c00044 	movi	r3,1
  80e6e4:	10c009c5 	stb	r3,39(r2)

  for ( ; ptr < end ; ptr++)
  80e6e8:	00009e06 	br	80e964 <altera_avalon_lcd_16207_write+0x2b8>
  {
    char c = *ptr;
  80e6ec:	e0bffd17 	ldw	r2,-12(fp)
  80e6f0:	10800003 	ldbu	r2,0(r2)
  80e6f4:	e0bff905 	stb	r2,-28(fp)

    if (sp->esccount >= 0)
  80e6f8:	e0bffc17 	ldw	r2,-16(fp)
  80e6fc:	10800903 	ldbu	r2,36(r2)
  80e700:	10803fcc 	andi	r2,r2,255
  80e704:	1080201c 	xori	r2,r2,128
  80e708:	10bfe004 	addi	r2,r2,-128
  80e70c:	10003a16 	blt	r2,zero,80e7f8 <altera_avalon_lcd_16207_write+0x14c>
    {
      unsigned int esccount = sp->esccount;
  80e710:	e0bffc17 	ldw	r2,-16(fp)
  80e714:	10800903 	ldbu	r2,36(r2)
  80e718:	10803fcc 	andi	r2,r2,255
  80e71c:	1080201c 	xori	r2,r2,128
  80e720:	10bfe004 	addi	r2,r2,-128
  80e724:	e0bffa15 	stw	r2,-24(fp)

      /* Single character escape sequences can end with any character
       * Multi character escape sequences start with '[' and contain
       * digits and semicolons before terminating
       */
      if ((esccount == 0 && c != '[') ||
  80e728:	e0bffa17 	ldw	r2,-24(fp)
  80e72c:	1000031e 	bne	r2,zero,80e73c <altera_avalon_lcd_16207_write+0x90>
  80e730:	e0bff907 	ldb	r2,-28(fp)
  80e734:	108016d8 	cmpnei	r2,r2,91
  80e738:	10000f1e 	bne	r2,zero,80e778 <altera_avalon_lcd_16207_write+0xcc>
  80e73c:	e0bffa17 	ldw	r2,-24(fp)
  80e740:	10001a26 	beq	r2,zero,80e7ac <altera_avalon_lcd_16207_write+0x100>
          (esccount > 0 && !isdigit(c) && c != ';'))
  80e744:	00802074 	movhi	r2,129
  80e748:	108dfa04 	addi	r2,r2,14312
  80e74c:	10c00017 	ldw	r3,0(r2)
  80e750:	e0bff907 	ldb	r2,-28(fp)
  80e754:	10800044 	addi	r2,r2,1
  80e758:	1885883a 	add	r2,r3,r2
  80e75c:	10800003 	ldbu	r2,0(r2)
  80e760:	10803fcc 	andi	r2,r2,255
  80e764:	1080010c 	andi	r2,r2,4
  80e768:	1000101e 	bne	r2,zero,80e7ac <altera_avalon_lcd_16207_write+0x100>
  80e76c:	e0bff907 	ldb	r2,-28(fp)
  80e770:	10800ee0 	cmpeqi	r2,r2,59
  80e774:	10000d1e 	bne	r2,zero,80e7ac <altera_avalon_lcd_16207_write+0x100>
      {
        sp->escape[esccount] = 0;
  80e778:	e0fffc17 	ldw	r3,-16(fp)
  80e77c:	e0bffa17 	ldw	r2,-24(fp)
  80e780:	1885883a 	add	r2,r3,r2
  80e784:	10800a04 	addi	r2,r2,40
  80e788:	10000005 	stb	zero,0(r2)

        lcd_handle_escape(sp, c);
  80e78c:	e0bff907 	ldb	r2,-28(fp)
  80e790:	e13ffc17 	ldw	r4,-16(fp)
  80e794:	100b883a 	mov	r5,r2
  80e798:	080e40c0 	call	80e40c <lcd_handle_escape>

        sp->esccount = -1;
  80e79c:	e0bffc17 	ldw	r2,-16(fp)
  80e7a0:	00ffffc4 	movi	r3,-1
  80e7a4:	10c00905 	stb	r3,36(r2)
  80e7a8:	00001206 	br	80e7f4 <altera_avalon_lcd_16207_write+0x148>
      }
      else if (sp->esccount < sizeof(sp->escape)-1)
  80e7ac:	e0bffc17 	ldw	r2,-16(fp)
  80e7b0:	10800903 	ldbu	r2,36(r2)
  80e7b4:	10803fcc 	andi	r2,r2,255
  80e7b8:	108001e8 	cmpgeui	r2,r2,7
  80e7bc:	10000d1e 	bne	r2,zero,80e7f4 <altera_avalon_lcd_16207_write+0x148>
      {
        sp->escape[esccount] = c;
  80e7c0:	e0fffc17 	ldw	r3,-16(fp)
  80e7c4:	e0bffa17 	ldw	r2,-24(fp)
  80e7c8:	1885883a 	add	r2,r3,r2
  80e7cc:	10800a04 	addi	r2,r2,40
  80e7d0:	e0fff903 	ldbu	r3,-28(fp)
  80e7d4:	10c00005 	stb	r3,0(r2)
        sp->esccount++;
  80e7d8:	e0bffc17 	ldw	r2,-16(fp)
  80e7dc:	10800903 	ldbu	r2,36(r2)
  80e7e0:	10800044 	addi	r2,r2,1
  80e7e4:	1007883a 	mov	r3,r2
  80e7e8:	e0bffc17 	ldw	r2,-16(fp)
  80e7ec:	10c00905 	stb	r3,36(r2)
  80e7f0:	00005906 	br	80e958 <altera_avalon_lcd_16207_write+0x2ac>
  80e7f4:	00005806 	br	80e958 <altera_avalon_lcd_16207_write+0x2ac>
      }
    }
    else if (c == 27) /* ESC */
  80e7f8:	e0bff907 	ldb	r2,-28(fp)
  80e7fc:	108006d8 	cmpnei	r2,r2,27
  80e800:	1000031e 	bne	r2,zero,80e810 <altera_avalon_lcd_16207_write+0x164>
    {
      sp->esccount = 0;
  80e804:	e0bffc17 	ldw	r2,-16(fp)
  80e808:	10000905 	stb	zero,36(r2)
  80e80c:	00005206 	br	80e958 <altera_avalon_lcd_16207_write+0x2ac>
    }
    else if (c == '\r')
  80e810:	e0bff907 	ldb	r2,-28(fp)
  80e814:	10800358 	cmpnei	r2,r2,13
  80e818:	1000031e 	bne	r2,zero,80e828 <altera_avalon_lcd_16207_write+0x17c>
    {
      sp->x = 0;
  80e81c:	e0bffc17 	ldw	r2,-16(fp)
  80e820:	10000845 	stb	zero,33(r2)
  80e824:	00004c06 	br	80e958 <altera_avalon_lcd_16207_write+0x2ac>
    }
    else if (c == '\n')
  80e828:	e0bff907 	ldb	r2,-28(fp)
  80e82c:	10800298 	cmpnei	r2,r2,10
  80e830:	1000101e 	bne	r2,zero,80e874 <altera_avalon_lcd_16207_write+0x1c8>
    {
      sp->x = 0;
  80e834:	e0bffc17 	ldw	r2,-16(fp)
  80e838:	10000845 	stb	zero,33(r2)
      sp->y++;
  80e83c:	e0bffc17 	ldw	r2,-16(fp)
  80e840:	10800883 	ldbu	r2,34(r2)
  80e844:	10800044 	addi	r2,r2,1
  80e848:	1007883a 	mov	r3,r2
  80e84c:	e0bffc17 	ldw	r2,-16(fp)
  80e850:	10c00885 	stb	r3,34(r2)

      /* Let the cursor sit at X=0, Y=HEIGHT without scrolling so the user
       * can print two lines of data without losing one.
       */
      if (sp->y > ALT_LCD_HEIGHT)
  80e854:	e0bffc17 	ldw	r2,-16(fp)
  80e858:	10800883 	ldbu	r2,34(r2)
  80e85c:	10803fcc 	andi	r2,r2,255
  80e860:	108000f0 	cmpltui	r2,r2,3
  80e864:	10003c1e 	bne	r2,zero,80e958 <altera_avalon_lcd_16207_write+0x2ac>
        lcd_scroll_up(sp);
  80e868:	e13ffc17 	ldw	r4,-16(fp)
  80e86c:	080e3440 	call	80e344 <lcd_scroll_up>
  80e870:	00003906 	br	80e958 <altera_avalon_lcd_16207_write+0x2ac>
    }
    else if (c == '\b')
  80e874:	e0bff907 	ldb	r2,-28(fp)
  80e878:	10800218 	cmpnei	r2,r2,8
  80e87c:	10000b1e 	bne	r2,zero,80e8ac <altera_avalon_lcd_16207_write+0x200>
    {
      if (sp->x > 0)
  80e880:	e0bffc17 	ldw	r2,-16(fp)
  80e884:	10800843 	ldbu	r2,33(r2)
  80e888:	10803fcc 	andi	r2,r2,255
  80e88c:	10003226 	beq	r2,zero,80e958 <altera_avalon_lcd_16207_write+0x2ac>
        sp->x--;
  80e890:	e0bffc17 	ldw	r2,-16(fp)
  80e894:	10800843 	ldbu	r2,33(r2)
  80e898:	10bfffc4 	addi	r2,r2,-1
  80e89c:	1007883a 	mov	r3,r2
  80e8a0:	e0bffc17 	ldw	r2,-16(fp)
  80e8a4:	10c00845 	stb	r3,33(r2)
  80e8a8:	00002b06 	br	80e958 <altera_avalon_lcd_16207_write+0x2ac>
    }
    else if (isprint(c))
  80e8ac:	00802074 	movhi	r2,129
  80e8b0:	108dfa04 	addi	r2,r2,14312
  80e8b4:	10c00017 	ldw	r3,0(r2)
  80e8b8:	e0bff907 	ldb	r2,-28(fp)
  80e8bc:	10800044 	addi	r2,r2,1
  80e8c0:	1885883a 	add	r2,r3,r2
  80e8c4:	10800003 	ldbu	r2,0(r2)
  80e8c8:	10803fcc 	andi	r2,r2,255
  80e8cc:	1080201c 	xori	r2,r2,128
  80e8d0:	10bfe004 	addi	r2,r2,-128
  80e8d4:	108025cc 	andi	r2,r2,151
  80e8d8:	10001f26 	beq	r2,zero,80e958 <altera_avalon_lcd_16207_write+0x2ac>
    {
      /* If we didn't scroll on the last linefeed then we might need to do
       * it now. */
      if (sp->y >= ALT_LCD_HEIGHT)
  80e8dc:	e0bffc17 	ldw	r2,-16(fp)
  80e8e0:	10800883 	ldbu	r2,34(r2)
  80e8e4:	10803fcc 	andi	r2,r2,255
  80e8e8:	108000b0 	cmpltui	r2,r2,2
  80e8ec:	1000021e 	bne	r2,zero,80e8f8 <altera_avalon_lcd_16207_write+0x24c>
        lcd_scroll_up(sp);
  80e8f0:	e13ffc17 	ldw	r4,-16(fp)
  80e8f4:	080e3440 	call	80e344 <lcd_scroll_up>

      if (sp->x < ALT_LCD_VIRTUAL_WIDTH)
  80e8f8:	e0bffc17 	ldw	r2,-16(fp)
  80e8fc:	10800843 	ldbu	r2,33(r2)
  80e900:	10803fcc 	andi	r2,r2,255
  80e904:	10801428 	cmpgeui	r2,r2,80
  80e908:	10000d1e 	bne	r2,zero,80e940 <altera_avalon_lcd_16207_write+0x294>
        sp->line[sp->y].data[sp->x] = c;
  80e90c:	e0bffc17 	ldw	r2,-16(fp)
  80e910:	10800883 	ldbu	r2,34(r2)
  80e914:	10c03fcc 	andi	r3,r2,255
  80e918:	e0bffc17 	ldw	r2,-16(fp)
  80e91c:	10800843 	ldbu	r2,33(r2)
  80e920:	10803fcc 	andi	r2,r2,255
  80e924:	e13ffc17 	ldw	r4,-16(fp)
  80e928:	18c018e4 	muli	r3,r3,99
  80e92c:	20c7883a 	add	r3,r4,r3
  80e930:	1885883a 	add	r2,r3,r2
  80e934:	10801004 	addi	r2,r2,64
  80e938:	e0fff903 	ldbu	r3,-28(fp)
  80e93c:	10c00005 	stb	r3,0(r2)

      sp->x++;
  80e940:	e0bffc17 	ldw	r2,-16(fp)
  80e944:	10800843 	ldbu	r2,33(r2)
  80e948:	10800044 	addi	r2,r2,1
  80e94c:	1007883a 	mov	r3,r2
  80e950:	e0bffc17 	ldw	r2,-16(fp)
  80e954:	10c00845 	stb	r3,33(r2)

  /* Tell the routine which is called off the timer interrupt that the
   * foreground routines are active so it must not repaint the display. */
  sp->active = 1;

  for ( ; ptr < end ; ptr++)
  80e958:	e0bffd17 	ldw	r2,-12(fp)
  80e95c:	10800044 	addi	r2,r2,1
  80e960:	e0bffd15 	stw	r2,-12(fp)
  80e964:	e0fffd17 	ldw	r3,-12(fp)
  80e968:	e0bff817 	ldw	r2,-32(fp)
  80e96c:	18bf5f36 	bltu	r3,r2,80e6ec <__alt_data_end+0xff80e6ec>
      sp->x++;
    }
  }

  /* Recalculate the scrolling parameters */
  widthmax = ALT_LCD_WIDTH;
  80e970:	00800404 	movi	r2,16
  80e974:	e0bff615 	stw	r2,-40(fp)
  for (y = 0 ; y < ALT_LCD_HEIGHT ; y++)
  80e978:	e03ff515 	stw	zero,-44(fp)
  80e97c:	00003606 	br	80ea58 <altera_avalon_lcd_16207_write+0x3ac>
  {
    int width;
    for (width = ALT_LCD_VIRTUAL_WIDTH ; width > 0 ; width--)
  80e980:	00801404 	movi	r2,80
  80e984:	e0bff715 	stw	r2,-36(fp)
  80e988:	00001206 	br	80e9d4 <altera_avalon_lcd_16207_write+0x328>
      if (sp->line[y].data[width-1] != ' ')
  80e98c:	e0bff717 	ldw	r2,-36(fp)
  80e990:	10bfffc4 	addi	r2,r2,-1
  80e994:	e13ffc17 	ldw	r4,-16(fp)
  80e998:	e0fff517 	ldw	r3,-44(fp)
  80e99c:	18c018e4 	muli	r3,r3,99
  80e9a0:	20c7883a 	add	r3,r4,r3
  80e9a4:	1885883a 	add	r2,r3,r2
  80e9a8:	10801004 	addi	r2,r2,64
  80e9ac:	10800003 	ldbu	r2,0(r2)
  80e9b0:	10803fcc 	andi	r2,r2,255
  80e9b4:	1080201c 	xori	r2,r2,128
  80e9b8:	10bfe004 	addi	r2,r2,-128
  80e9bc:	10800820 	cmpeqi	r2,r2,32
  80e9c0:	1000011e 	bne	r2,zero,80e9c8 <altera_avalon_lcd_16207_write+0x31c>
        break;
  80e9c4:	00000506 	br	80e9dc <altera_avalon_lcd_16207_write+0x330>
  /* Recalculate the scrolling parameters */
  widthmax = ALT_LCD_WIDTH;
  for (y = 0 ; y < ALT_LCD_HEIGHT ; y++)
  {
    int width;
    for (width = ALT_LCD_VIRTUAL_WIDTH ; width > 0 ; width--)
  80e9c8:	e0bff717 	ldw	r2,-36(fp)
  80e9cc:	10bfffc4 	addi	r2,r2,-1
  80e9d0:	e0bff715 	stw	r2,-36(fp)
  80e9d4:	e0bff717 	ldw	r2,-36(fp)
  80e9d8:	00bfec16 	blt	zero,r2,80e98c <__alt_data_end+0xff80e98c>

    /* The minimum width is the size of the LCD panel.  If the real width
     * is long enough to require scrolling then add an extra space so the
     * end of the message doesn't run into the beginning of it.
     */
    if (width <= ALT_LCD_WIDTH)
  80e9dc:	e0bff717 	ldw	r2,-36(fp)
  80e9e0:	10800448 	cmpgei	r2,r2,17
  80e9e4:	1000031e 	bne	r2,zero,80e9f4 <altera_avalon_lcd_16207_write+0x348>
      width = ALT_LCD_WIDTH;
  80e9e8:	00800404 	movi	r2,16
  80e9ec:	e0bff715 	stw	r2,-36(fp)
  80e9f0:	00000306 	br	80ea00 <altera_avalon_lcd_16207_write+0x354>
    else
      width++;
  80e9f4:	e0bff717 	ldw	r2,-36(fp)
  80e9f8:	10800044 	addi	r2,r2,1
  80e9fc:	e0bff715 	stw	r2,-36(fp)

    sp->line[y].width = width;
  80ea00:	e0bff717 	ldw	r2,-36(fp)
  80ea04:	1009883a 	mov	r4,r2
  80ea08:	e0fffc17 	ldw	r3,-16(fp)
  80ea0c:	e0bff517 	ldw	r2,-44(fp)
  80ea10:	108018e4 	muli	r2,r2,99
  80ea14:	10802404 	addi	r2,r2,144
  80ea18:	1885883a 	add	r2,r3,r2
  80ea1c:	11000045 	stb	r4,1(r2)
    if (widthmax < width)
  80ea20:	e0fff617 	ldw	r3,-40(fp)
  80ea24:	e0bff717 	ldw	r2,-36(fp)
  80ea28:	1880020e 	bge	r3,r2,80ea34 <altera_avalon_lcd_16207_write+0x388>
      widthmax = width;
  80ea2c:	e0bff717 	ldw	r2,-36(fp)
  80ea30:	e0bff615 	stw	r2,-40(fp)
    sp->line[y].speed = 0; /* By default lines don't scroll */
  80ea34:	e0fffc17 	ldw	r3,-16(fp)
  80ea38:	e0bff517 	ldw	r2,-44(fp)
  80ea3c:	108018e4 	muli	r2,r2,99
  80ea40:	10802404 	addi	r2,r2,144
  80ea44:	1885883a 	add	r2,r3,r2
  80ea48:	10000085 	stb	zero,2(r2)
    }
  }

  /* Recalculate the scrolling parameters */
  widthmax = ALT_LCD_WIDTH;
  for (y = 0 ; y < ALT_LCD_HEIGHT ; y++)
  80ea4c:	e0bff517 	ldw	r2,-44(fp)
  80ea50:	10800044 	addi	r2,r2,1
  80ea54:	e0bff515 	stw	r2,-44(fp)
  80ea58:	e0bff517 	ldw	r2,-44(fp)
  80ea5c:	10800090 	cmplti	r2,r2,2
  80ea60:	103fc71e 	bne	r2,zero,80e980 <__alt_data_end+0xff80e980>
    if (widthmax < width)
      widthmax = width;
    sp->line[y].speed = 0; /* By default lines don't scroll */
  }

  if (widthmax <= ALT_LCD_WIDTH)
  80ea64:	e0bff617 	ldw	r2,-40(fp)
  80ea68:	10800448 	cmpgei	r2,r2,17
  80ea6c:	1000031e 	bne	r2,zero,80ea7c <altera_avalon_lcd_16207_write+0x3d0>
    sp->scrollmax = 0;
  80ea70:	e0bffc17 	ldw	r2,-16(fp)
  80ea74:	10000985 	stb	zero,38(r2)
  80ea78:	00002e06 	br	80eb34 <altera_avalon_lcd_16207_write+0x488>
  else
  {
    widthmax *= 2;
  80ea7c:	e0bff617 	ldw	r2,-40(fp)
  80ea80:	1085883a 	add	r2,r2,r2
  80ea84:	e0bff615 	stw	r2,-40(fp)
    sp->scrollmax = widthmax;
  80ea88:	e0bff617 	ldw	r2,-40(fp)
  80ea8c:	1007883a 	mov	r3,r2
  80ea90:	e0bffc17 	ldw	r2,-16(fp)
  80ea94:	10c00985 	stb	r3,38(r2)

    /* Now calculate how fast each of the other lines should go */
    for (y = 0 ; y < ALT_LCD_HEIGHT ; y++)
  80ea98:	e03ff515 	stw	zero,-44(fp)
  80ea9c:	00002206 	br	80eb28 <altera_avalon_lcd_16207_write+0x47c>
      if (sp->line[y].width > ALT_LCD_WIDTH)
  80eaa0:	e0fffc17 	ldw	r3,-16(fp)
  80eaa4:	e0bff517 	ldw	r2,-44(fp)
  80eaa8:	108018e4 	muli	r2,r2,99
  80eaac:	10802404 	addi	r2,r2,144
  80eab0:	1885883a 	add	r2,r3,r2
  80eab4:	10800043 	ldbu	r2,1(r2)
  80eab8:	10803fcc 	andi	r2,r2,255
  80eabc:	1080201c 	xori	r2,r2,128
  80eac0:	10bfe004 	addi	r2,r2,-128
  80eac4:	10800450 	cmplti	r2,r2,17
  80eac8:	1000141e 	bne	r2,zero,80eb1c <altera_avalon_lcd_16207_write+0x470>
         */
#if 1
        /* This option makes all the lines scroll round at different speeds
         * which are chosen so that all the scrolls finish at the same time.
         */
        sp->line[y].speed = 256 * sp->line[y].width / widthmax;
  80eacc:	e0fffc17 	ldw	r3,-16(fp)
  80ead0:	e0bff517 	ldw	r2,-44(fp)
  80ead4:	108018e4 	muli	r2,r2,99
  80ead8:	10802404 	addi	r2,r2,144
  80eadc:	1885883a 	add	r2,r3,r2
  80eae0:	10800043 	ldbu	r2,1(r2)
  80eae4:	10803fcc 	andi	r2,r2,255
  80eae8:	1080201c 	xori	r2,r2,128
  80eaec:	10bfe004 	addi	r2,r2,-128
  80eaf0:	1004923a 	slli	r2,r2,8
  80eaf4:	1009883a 	mov	r4,r2
  80eaf8:	e17ff617 	ldw	r5,-40(fp)
  80eafc:	080a0340 	call	80a034 <__divsi3>
  80eb00:	1009883a 	mov	r4,r2
  80eb04:	e0fffc17 	ldw	r3,-16(fp)
  80eb08:	e0bff517 	ldw	r2,-44(fp)
  80eb0c:	108018e4 	muli	r2,r2,99
  80eb10:	10802404 	addi	r2,r2,144
  80eb14:	1885883a 	add	r2,r3,r2
  80eb18:	11000085 	stb	r4,2(r2)
  {
    widthmax *= 2;
    sp->scrollmax = widthmax;

    /* Now calculate how fast each of the other lines should go */
    for (y = 0 ; y < ALT_LCD_HEIGHT ; y++)
  80eb1c:	e0bff517 	ldw	r2,-44(fp)
  80eb20:	10800044 	addi	r2,r2,1
  80eb24:	e0bff515 	stw	r2,-44(fp)
  80eb28:	e0bff517 	ldw	r2,-44(fp)
  80eb2c:	10800090 	cmplti	r2,r2,2
  80eb30:	103fdb1e 	bne	r2,zero,80eaa0 <__alt_data_end+0xff80eaa0>
   * (because active was set when the timer interrupt occurred).  If there
   * has been a missed repaint then paint again.  And again.  etc.
   */
  for ( ; ; )
  {
    int old_scrollpos = sp->scrollpos;
  80eb34:	e0bffc17 	ldw	r2,-16(fp)
  80eb38:	10800943 	ldbu	r2,37(r2)
  80eb3c:	10803fcc 	andi	r2,r2,255
  80eb40:	e0bffb15 	stw	r2,-20(fp)

    lcd_repaint_screen(sp);
  80eb44:	e13ffc17 	ldw	r4,-16(fp)
  80eb48:	080e15c0 	call	80e15c <lcd_repaint_screen>

    /* Let the timer routines repaint the display again */
    sp->active = 0;
  80eb4c:	e0bffc17 	ldw	r2,-16(fp)
  80eb50:	100009c5 	stb	zero,39(r2)

    /* Have the timer routines tried to scroll while we were painting?
     * If not then we can exit */
    if (sp->scrollpos == old_scrollpos)
  80eb54:	e0bffc17 	ldw	r2,-16(fp)
  80eb58:	10800943 	ldbu	r2,37(r2)
  80eb5c:	10c03fcc 	andi	r3,r2,255
  80eb60:	e0bffb17 	ldw	r2,-20(fp)
  80eb64:	1880011e 	bne	r3,r2,80eb6c <altera_avalon_lcd_16207_write+0x4c0>
      break;
  80eb68:	00000406 	br	80eb7c <altera_avalon_lcd_16207_write+0x4d0>

    /* We need to repaint again since the display scrolled while we were
     * painting last time */
    sp->active = 1;
  80eb6c:	e0bffc17 	ldw	r2,-16(fp)
  80eb70:	00c00044 	movi	r3,1
  80eb74:	10c009c5 	stb	r3,39(r2)
  }
  80eb78:	003fee06 	br	80eb34 <__alt_data_end+0xff80eb34>
   * semaphore so that other threads can access the buffer.
   */

  ALT_SEM_POST (sp->write_lock);

  return len;
  80eb7c:	e0bffe17 	ldw	r2,-8(fp)
}
  80eb80:	e037883a 	mov	sp,fp
  80eb84:	dfc00117 	ldw	ra,4(sp)
  80eb88:	df000017 	ldw	fp,0(sp)
  80eb8c:	dec00204 	addi	sp,sp,8
  80eb90:	f800283a 	ret

0080eb94 <alt_lcd_16207_timeout>:
/*
 * Timeout routine is called every second
 */

static alt_u32 alt_lcd_16207_timeout(void* context) 
{
  80eb94:	defffc04 	addi	sp,sp,-16
  80eb98:	dfc00315 	stw	ra,12(sp)
  80eb9c:	df000215 	stw	fp,8(sp)
  80eba0:	df000204 	addi	fp,sp,8
  80eba4:	e13fff15 	stw	r4,-4(fp)
  altera_avalon_lcd_16207_state* sp = (altera_avalon_lcd_16207_state*)context;
  80eba8:	e0bfff17 	ldw	r2,-4(fp)
  80ebac:	e0bffe15 	stw	r2,-8(fp)

  /* Update the scrolling position */
  if (sp->scrollpos + 1 >= sp->scrollmax)
  80ebb0:	e0bffe17 	ldw	r2,-8(fp)
  80ebb4:	10800943 	ldbu	r2,37(r2)
  80ebb8:	10803fcc 	andi	r2,r2,255
  80ebbc:	10c00044 	addi	r3,r2,1
  80ebc0:	e0bffe17 	ldw	r2,-8(fp)
  80ebc4:	10800983 	ldbu	r2,38(r2)
  80ebc8:	10803fcc 	andi	r2,r2,255
  80ebcc:	18800316 	blt	r3,r2,80ebdc <alt_lcd_16207_timeout+0x48>
    sp->scrollpos = 0;
  80ebd0:	e0bffe17 	ldw	r2,-8(fp)
  80ebd4:	10000945 	stb	zero,37(r2)
  80ebd8:	00000606 	br	80ebf4 <alt_lcd_16207_timeout+0x60>
  else
    sp->scrollpos = sp->scrollpos + 1;
  80ebdc:	e0bffe17 	ldw	r2,-8(fp)
  80ebe0:	10800943 	ldbu	r2,37(r2)
  80ebe4:	10800044 	addi	r2,r2,1
  80ebe8:	1007883a 	mov	r3,r2
  80ebec:	e0bffe17 	ldw	r2,-8(fp)
  80ebf0:	10c00945 	stb	r3,37(r2)

  /* Repaint the panel unless the foreground will do it again soon */
  if (sp->scrollmax > 0 && !sp->active)
  80ebf4:	e0bffe17 	ldw	r2,-8(fp)
  80ebf8:	10800983 	ldbu	r2,38(r2)
  80ebfc:	10803fcc 	andi	r2,r2,255
  80ec00:	10000826 	beq	r2,zero,80ec24 <alt_lcd_16207_timeout+0x90>
  80ec04:	e0bffe17 	ldw	r2,-8(fp)
  80ec08:	108009c3 	ldbu	r2,39(r2)
  80ec0c:	10803fcc 	andi	r2,r2,255
  80ec10:	1080201c 	xori	r2,r2,128
  80ec14:	10bfe004 	addi	r2,r2,-128
  80ec18:	1000021e 	bne	r2,zero,80ec24 <alt_lcd_16207_timeout+0x90>
    lcd_repaint_screen(sp);
  80ec1c:	e13ffe17 	ldw	r4,-8(fp)
  80ec20:	080e15c0 	call	80e15c <lcd_repaint_screen>

  return sp->period;
  80ec24:	e0bffe17 	ldw	r2,-8(fp)
  80ec28:	10800717 	ldw	r2,28(r2)
}
  80ec2c:	e037883a 	mov	sp,fp
  80ec30:	dfc00117 	ldw	ra,4(sp)
  80ec34:	df000017 	ldw	fp,0(sp)
  80ec38:	dec00204 	addi	sp,sp,8
  80ec3c:	f800283a 	ret

0080ec40 <altera_avalon_lcd_16207_init>:

/*
 * Called at boot time to initialise the LCD driver
 */
void altera_avalon_lcd_16207_init(altera_avalon_lcd_16207_state* sp)
{
  80ec40:	defffc04 	addi	sp,sp,-16
  80ec44:	dfc00315 	stw	ra,12(sp)
  80ec48:	df000215 	stw	fp,8(sp)
  80ec4c:	df000204 	addi	fp,sp,8
  80ec50:	e13fff15 	stw	r4,-4(fp)
  unsigned int base = sp->base;
  80ec54:	e0bfff17 	ldw	r2,-4(fp)
  80ec58:	10800017 	ldw	r2,0(r2)
  80ec5c:	e0bffe15 	stw	r2,-8(fp)

  /* Mark the device as functional */
  sp->broken = 0;
  80ec60:	e0bfff17 	ldw	r2,-4(fp)
  80ec64:	10000805 	stb	zero,32(r2)
   * the BUSY bit in the status register doesn't work until the display
   * has been reset three times.
   */

  /* Wait for 15 ms then reset */
  usleep(15000);
  80ec68:	010ea604 	movi	r4,15000
  80ec6c:	081075c0 	call	81075c <usleep>
  IOWR_ALTERA_AVALON_LCD_16207_COMMAND(base, LCD_CMD_FUNCTION_SET | LCD_CMD_8BIT);
  80ec70:	e0bffe17 	ldw	r2,-8(fp)
  80ec74:	00c00c04 	movi	r3,48
  80ec78:	10c00035 	stwio	r3,0(r2)

  /* Wait for another 4.1ms and reset again */
  usleep(4100);  
  80ec7c:	01040104 	movi	r4,4100
  80ec80:	081075c0 	call	81075c <usleep>
  IOWR_ALTERA_AVALON_LCD_16207_COMMAND(base, LCD_CMD_FUNCTION_SET | LCD_CMD_8BIT);
  80ec84:	e0bffe17 	ldw	r2,-8(fp)
  80ec88:	00c00c04 	movi	r3,48
  80ec8c:	10c00035 	stwio	r3,0(r2)

  /* Wait a further 1 ms and reset a third time */
  usleep(1000);
  80ec90:	0100fa04 	movi	r4,1000
  80ec94:	081075c0 	call	81075c <usleep>
  IOWR_ALTERA_AVALON_LCD_16207_COMMAND(base, LCD_CMD_FUNCTION_SET | LCD_CMD_8BIT);
  80ec98:	e0bffe17 	ldw	r2,-8(fp)
  80ec9c:	00c00c04 	movi	r3,48
  80eca0:	10c00035 	stwio	r3,0(r2)

  /* Setup interface parameters: 8 bit bus, 2 rows, 5x7 font */
  lcd_write_command(sp, LCD_CMD_FUNCTION_SET | LCD_CMD_8BIT | LCD_CMD_TWO_LINE);
  80eca4:	e13fff17 	ldw	r4,-4(fp)
  80eca8:	01400e04 	movi	r5,56
  80ecac:	080df080 	call	80df08 <lcd_write_command>
  
  /* Turn display off */
  lcd_write_command(sp, LCD_CMD_ONOFF);
  80ecb0:	e13fff17 	ldw	r4,-4(fp)
  80ecb4:	01400204 	movi	r5,8
  80ecb8:	080df080 	call	80df08 <lcd_write_command>

  /* Clear display */
  lcd_clear_screen(sp);
  80ecbc:	e13fff17 	ldw	r4,-4(fp)
  80ecc0:	080e0900 	call	80e090 <lcd_clear_screen>
  
  /* Set mode: increment after writing, don't shift display */
  lcd_write_command(sp, LCD_CMD_MODES | LCD_CMD_MODE_INC);
  80ecc4:	e13fff17 	ldw	r4,-4(fp)
  80ecc8:	01400184 	movi	r5,6
  80eccc:	080df080 	call	80df08 <lcd_write_command>

  /* Turn display on */
  lcd_write_command(sp, LCD_CMD_ONOFF | LCD_CMD_ENABLE_DISP);
  80ecd0:	e13fff17 	ldw	r4,-4(fp)
  80ecd4:	01400304 	movi	r5,12
  80ecd8:	080df080 	call	80df08 <lcd_write_command>

  sp->esccount = -1;
  80ecdc:	e0bfff17 	ldw	r2,-4(fp)
  80ece0:	00ffffc4 	movi	r3,-1
  80ece4:	10c00905 	stb	r3,36(r2)
  memset(sp->escape, 0, sizeof(sp->escape));
  80ece8:	e0bfff17 	ldw	r2,-4(fp)
  80ecec:	10800a04 	addi	r2,r2,40
  80ecf0:	1009883a 	mov	r4,r2
  80ecf4:	000b883a 	mov	r5,zero
  80ecf8:	01800204 	movi	r6,8
  80ecfc:	080a1ec0 	call	80a1ec <memset>

  sp->scrollpos = 0;
  80ed00:	e0bfff17 	ldw	r2,-4(fp)
  80ed04:	10000945 	stb	zero,37(r2)
  sp->scrollmax = 0;
  80ed08:	e0bfff17 	ldw	r2,-4(fp)
  80ed0c:	10000985 	stb	zero,38(r2)
  sp->active = 0;
  80ed10:	e0bfff17 	ldw	r2,-4(fp)
  80ed14:	100009c5 	stb	zero,39(r2)
  80ed18:	00802074 	movhi	r2,129
  80ed1c:	10953c04 	addi	r2,r2,21744
  80ed20:	10800017 	ldw	r2,0(r2)

  sp->period = alt_ticks_per_second() / 10; /* Call every 100ms */
  80ed24:	1009883a 	mov	r4,r2
  80ed28:	01400284 	movi	r5,10
  80ed2c:	080a0e40 	call	80a0e4 <__udivsi3>
  80ed30:	1007883a 	mov	r3,r2
  80ed34:	e0bfff17 	ldw	r2,-4(fp)
  80ed38:	10c00715 	stw	r3,28(r2)

  alt_alarm_start(&sp->alarm, sp->period, &alt_lcd_16207_timeout, sp);
  80ed3c:	e0bfff17 	ldw	r2,-4(fp)
  80ed40:	10c00104 	addi	r3,r2,4
  80ed44:	e0bfff17 	ldw	r2,-4(fp)
  80ed48:	10800717 	ldw	r2,28(r2)
  80ed4c:	1809883a 	mov	r4,r3
  80ed50:	100b883a 	mov	r5,r2
  80ed54:	01802074 	movhi	r6,129
  80ed58:	31bae504 	addi	r6,r6,-5228
  80ed5c:	e1ffff17 	ldw	r7,-4(fp)
  80ed60:	080c4bc0 	call	80c4bc <alt_alarm_start>
}
  80ed64:	e037883a 	mov	sp,fp
  80ed68:	dfc00117 	ldw	ra,4(sp)
  80ed6c:	df000017 	ldw	fp,0(sp)
  80ed70:	dec00204 	addi	sp,sp,8
  80ed74:	f800283a 	ret

0080ed78 <altera_avalon_lcd_16207_write_fd>:
extern int altera_avalon_lcd_16207_write(altera_avalon_lcd_16207_state* sp,
  const char* ptr, int count, int flags);

int 
altera_avalon_lcd_16207_write_fd(alt_fd* fd, const char* buffer, int space)
{
  80ed78:	defffa04 	addi	sp,sp,-24
  80ed7c:	dfc00515 	stw	ra,20(sp)
  80ed80:	df000415 	stw	fp,16(sp)
  80ed84:	df000404 	addi	fp,sp,16
  80ed88:	e13ffd15 	stw	r4,-12(fp)
  80ed8c:	e17ffe15 	stw	r5,-8(fp)
  80ed90:	e1bfff15 	stw	r6,-4(fp)
    altera_avalon_lcd_16207_dev* dev = (altera_avalon_lcd_16207_dev*) fd->dev; 
  80ed94:	e0bffd17 	ldw	r2,-12(fp)
  80ed98:	10800017 	ldw	r2,0(r2)
  80ed9c:	e0bffc15 	stw	r2,-16(fp)

    return altera_avalon_lcd_16207_write(&dev->state, buffer, space,
  80eda0:	e0bffc17 	ldw	r2,-16(fp)
  80eda4:	10c00a04 	addi	r3,r2,40
  80eda8:	e0bffd17 	ldw	r2,-12(fp)
  80edac:	10800217 	ldw	r2,8(r2)
  80edb0:	1809883a 	mov	r4,r3
  80edb4:	e17ffe17 	ldw	r5,-8(fp)
  80edb8:	e1bfff17 	ldw	r6,-4(fp)
  80edbc:	100f883a 	mov	r7,r2
  80edc0:	080e6ac0 	call	80e6ac <altera_avalon_lcd_16207_write>
      fd->fd_flags);
}
  80edc4:	e037883a 	mov	sp,fp
  80edc8:	dfc00117 	ldw	ra,4(sp)
  80edcc:	df000017 	ldw	fp,0(sp)
  80edd0:	dec00204 	addi	sp,sp,8
  80edd4:	f800283a 	ret

0080edd8 <alt_avalon_timer_sc_irq>:
#ifdef ALT_ENHANCED_INTERRUPT_API_PRESENT
static void alt_avalon_timer_sc_irq (void* base)
#else
static void alt_avalon_timer_sc_irq (void* base, alt_u32 id)
#endif
{
  80edd8:	defff904 	addi	sp,sp,-28
  80eddc:	dfc00615 	stw	ra,24(sp)
  80ede0:	df000515 	stw	fp,20(sp)
  80ede4:	df000504 	addi	fp,sp,20
  80ede8:	e13ffe15 	stw	r4,-8(fp)
  80edec:	e17fff15 	stw	r5,-4(fp)
  alt_irq_context cpu_sr;
  
  /* clear the interrupt */
  IOWR_ALTERA_AVALON_TIMER_STATUS (base, 0);
  80edf0:	0007883a 	mov	r3,zero
  80edf4:	e0bffe17 	ldw	r2,-8(fp)
  80edf8:	10c00035 	stwio	r3,0(r2)
  /* 
   * Dummy read to ensure IRQ is negated before the ISR returns.
   * The control register is read because reading the status
   * register has side-effects per the register map documentation.
   */
  IORD_ALTERA_AVALON_TIMER_CONTROL (base);
  80edfc:	e0bffe17 	ldw	r2,-8(fp)
  80ee00:	10800104 	addi	r2,r2,4
  80ee04:	10800037 	ldwio	r2,0(r2)
static ALT_INLINE alt_irq_context ALT_ALWAYS_INLINE 
       alt_irq_disable_all (void)
{
  alt_irq_context context;

  NIOS2_READ_STATUS (context);
  80ee08:	0005303a 	rdctl	r2,status
  80ee0c:	e0bffc15 	stw	r2,-16(fp)

  NIOS2_WRITE_STATUS (context & ~NIOS2_STATUS_PIE_MSK);
  80ee10:	e0fffc17 	ldw	r3,-16(fp)
  80ee14:	00bfff84 	movi	r2,-2
  80ee18:	1884703a 	and	r2,r3,r2
  80ee1c:	1001703a 	wrctl	status,r2
  
  return context;
  80ee20:	e0bffc17 	ldw	r2,-16(fp)

  /* 
   * Notify the system of a clock tick. disable interrupts 
   * during this time to safely support ISR preemption
   */
  cpu_sr = alt_irq_disable_all();
  80ee24:	e0bffb15 	stw	r2,-20(fp)
  alt_tick ();
  80ee28:	080d15c0 	call	80d15c <alt_tick>
  80ee2c:	e0bffb17 	ldw	r2,-20(fp)
  80ee30:	e0bffd15 	stw	r2,-12(fp)
  status &= ~NIOS2_STATUS_PIE_MSK;
  status |= (context & NIOS2_STATUS_PIE_MSK);
  
  NIOS2_WRITE_STATUS (status);
#else
  NIOS2_WRITE_STATUS (context);
  80ee34:	e0bffd17 	ldw	r2,-12(fp)
  80ee38:	1001703a 	wrctl	status,r2
  alt_irq_enable_all(cpu_sr);
}
  80ee3c:	e037883a 	mov	sp,fp
  80ee40:	dfc00117 	ldw	ra,4(sp)
  80ee44:	df000017 	ldw	fp,0(sp)
  80ee48:	dec00204 	addi	sp,sp,8
  80ee4c:	f800283a 	ret

0080ee50 <alt_avalon_timer_sc_init>:
 * auto-generated alt_sys_init() function.
 */

void alt_avalon_timer_sc_init (void* base, alt_u32 irq_controller_id, 
                                alt_u32 irq, alt_u32 freq)
{
  80ee50:	defff904 	addi	sp,sp,-28
  80ee54:	dfc00615 	stw	ra,24(sp)
  80ee58:	df000515 	stw	fp,20(sp)
  80ee5c:	df000504 	addi	fp,sp,20
  80ee60:	e13ffc15 	stw	r4,-16(fp)
  80ee64:	e17ffd15 	stw	r5,-12(fp)
  80ee68:	e1bffe15 	stw	r6,-8(fp)
  80ee6c:	e1ffff15 	stw	r7,-4(fp)
  80ee70:	e0bfff17 	ldw	r2,-4(fp)
  80ee74:	e0bffb15 	stw	r2,-20(fp)
 * in order to initialise the value of the clock frequency.
 */

static ALT_INLINE int ALT_ALWAYS_INLINE alt_sysclk_init (alt_u32 nticks)
{
  if (! _alt_tick_rate)
  80ee78:	00802074 	movhi	r2,129
  80ee7c:	10953c04 	addi	r2,r2,21744
  80ee80:	10800017 	ldw	r2,0(r2)
  80ee84:	1000041e 	bne	r2,zero,80ee98 <alt_avalon_timer_sc_init+0x48>
  {
    _alt_tick_rate = nticks;
  80ee88:	00802074 	movhi	r2,129
  80ee8c:	10953c04 	addi	r2,r2,21744
  80ee90:	e0fffb17 	ldw	r3,-20(fp)
  80ee94:	10c00015 	stw	r3,0(r2)
  
  alt_sysclk_init (freq);
  
  /* set to free running mode */
  
  IOWR_ALTERA_AVALON_TIMER_CONTROL (base, 
  80ee98:	e0bffc17 	ldw	r2,-16(fp)
  80ee9c:	10800104 	addi	r2,r2,4
  80eea0:	00c001c4 	movi	r3,7
  80eea4:	10c00035 	stwio	r3,0(r2)
  /* register the interrupt handler, and enable the interrupt */
#ifdef ALT_ENHANCED_INTERRUPT_API_PRESENT
  alt_ic_isr_register(irq_controller_id, irq, alt_avalon_timer_sc_irq, 
                      base, NULL);
#else
  alt_irq_register (irq, base, alt_avalon_timer_sc_irq);
  80eea8:	e13ffe17 	ldw	r4,-8(fp)
  80eeac:	e17ffc17 	ldw	r5,-16(fp)
  80eeb0:	01802074 	movhi	r6,129
  80eeb4:	31bb7604 	addi	r6,r6,-4648
  80eeb8:	08103380 	call	810338 <alt_irq_register>
#endif  
}
  80eebc:	e037883a 	mov	sp,fp
  80eec0:	dfc00117 	ldw	ra,4(sp)
  80eec4:	df000017 	ldw	fp,0(sp)
  80eec8:	dec00204 	addi	sp,sp,8
  80eecc:	f800283a 	ret

0080eed0 <altera_avalon_uart_read_fd>:
 *
 */

int 
altera_avalon_uart_read_fd(alt_fd* fd, char* buffer, int space)
{
  80eed0:	defffa04 	addi	sp,sp,-24
  80eed4:	dfc00515 	stw	ra,20(sp)
  80eed8:	df000415 	stw	fp,16(sp)
  80eedc:	df000404 	addi	fp,sp,16
  80eee0:	e13ffd15 	stw	r4,-12(fp)
  80eee4:	e17ffe15 	stw	r5,-8(fp)
  80eee8:	e1bfff15 	stw	r6,-4(fp)
    altera_avalon_uart_dev* dev = (altera_avalon_uart_dev*) fd->dev; 
  80eeec:	e0bffd17 	ldw	r2,-12(fp)
  80eef0:	10800017 	ldw	r2,0(r2)
  80eef4:	e0bffc15 	stw	r2,-16(fp)

    return altera_avalon_uart_read(&dev->state, buffer, space,
  80eef8:	e0bffc17 	ldw	r2,-16(fp)
  80eefc:	10c00a04 	addi	r3,r2,40
  80ef00:	e0bffd17 	ldw	r2,-12(fp)
  80ef04:	10800217 	ldw	r2,8(r2)
  80ef08:	1809883a 	mov	r4,r3
  80ef0c:	e17ffe17 	ldw	r5,-8(fp)
  80ef10:	e1bfff17 	ldw	r6,-4(fp)
  80ef14:	100f883a 	mov	r7,r2
  80ef18:	080f3e40 	call	80f3e4 <altera_avalon_uart_read>
      fd->fd_flags);
}
  80ef1c:	e037883a 	mov	sp,fp
  80ef20:	dfc00117 	ldw	ra,4(sp)
  80ef24:	df000017 	ldw	fp,0(sp)
  80ef28:	dec00204 	addi	sp,sp,8
  80ef2c:	f800283a 	ret

0080ef30 <altera_avalon_uart_write_fd>:

int 
altera_avalon_uart_write_fd(alt_fd* fd, const char* buffer, int space)
{
  80ef30:	defffa04 	addi	sp,sp,-24
  80ef34:	dfc00515 	stw	ra,20(sp)
  80ef38:	df000415 	stw	fp,16(sp)
  80ef3c:	df000404 	addi	fp,sp,16
  80ef40:	e13ffd15 	stw	r4,-12(fp)
  80ef44:	e17ffe15 	stw	r5,-8(fp)
  80ef48:	e1bfff15 	stw	r6,-4(fp)
    altera_avalon_uart_dev* dev = (altera_avalon_uart_dev*) fd->dev; 
  80ef4c:	e0bffd17 	ldw	r2,-12(fp)
  80ef50:	10800017 	ldw	r2,0(r2)
  80ef54:	e0bffc15 	stw	r2,-16(fp)

    return altera_avalon_uart_write(&dev->state, buffer, space,
  80ef58:	e0bffc17 	ldw	r2,-16(fp)
  80ef5c:	10c00a04 	addi	r3,r2,40
  80ef60:	e0bffd17 	ldw	r2,-12(fp)
  80ef64:	10800217 	ldw	r2,8(r2)
  80ef68:	1809883a 	mov	r4,r3
  80ef6c:	e17ffe17 	ldw	r5,-8(fp)
  80ef70:	e1bfff17 	ldw	r6,-4(fp)
  80ef74:	100f883a 	mov	r7,r2
  80ef78:	080f6100 	call	80f610 <altera_avalon_uart_write>
      fd->fd_flags);
}
  80ef7c:	e037883a 	mov	sp,fp
  80ef80:	dfc00117 	ldw	ra,4(sp)
  80ef84:	df000017 	ldw	fp,0(sp)
  80ef88:	dec00204 	addi	sp,sp,8
  80ef8c:	f800283a 	ret

0080ef90 <altera_avalon_uart_close_fd>:

#endif /* ALTERA_AVALON_UART_USE_IOCTL */

int 
altera_avalon_uart_close_fd(alt_fd* fd)
{
  80ef90:	defffc04 	addi	sp,sp,-16
  80ef94:	dfc00315 	stw	ra,12(sp)
  80ef98:	df000215 	stw	fp,8(sp)
  80ef9c:	df000204 	addi	fp,sp,8
  80efa0:	e13fff15 	stw	r4,-4(fp)
    altera_avalon_uart_dev* dev = (altera_avalon_uart_dev*) fd->dev; 
  80efa4:	e0bfff17 	ldw	r2,-4(fp)
  80efa8:	10800017 	ldw	r2,0(r2)
  80efac:	e0bffe15 	stw	r2,-8(fp)

    return altera_avalon_uart_close(&dev->state, fd->fd_flags);
  80efb0:	e0bffe17 	ldw	r2,-8(fp)
  80efb4:	10c00a04 	addi	r3,r2,40
  80efb8:	e0bfff17 	ldw	r2,-4(fp)
  80efbc:	10800217 	ldw	r2,8(r2)
  80efc0:	1809883a 	mov	r4,r3
  80efc4:	100b883a 	mov	r5,r2
  80efc8:	080f3400 	call	80f340 <altera_avalon_uart_close>
}
  80efcc:	e037883a 	mov	sp,fp
  80efd0:	dfc00117 	ldw	ra,4(sp)
  80efd4:	df000017 	ldw	fp,0(sp)
  80efd8:	dec00204 	addi	sp,sp,8
  80efdc:	f800283a 	ret

0080efe0 <altera_avalon_uart_init>:
  alt_u32 status);

void 
altera_avalon_uart_init(altera_avalon_uart_state* sp, 
  alt_u32 irq_controller_id,  alt_u32 irq)
{
  80efe0:	defff904 	addi	sp,sp,-28
  80efe4:	dfc00615 	stw	ra,24(sp)
  80efe8:	df000515 	stw	fp,20(sp)
  80efec:	df000504 	addi	fp,sp,20
  80eff0:	e13ffd15 	stw	r4,-12(fp)
  80eff4:	e17ffe15 	stw	r5,-8(fp)
  80eff8:	e1bfff15 	stw	r6,-4(fp)
  void* base = sp->base;
  80effc:	e0bffd17 	ldw	r2,-12(fp)
  80f000:	10800017 	ldw	r2,0(r2)
  80f004:	e0bffb15 	stw	r2,-20(fp)
 * HAL.
 */

static ALT_INLINE int ALT_ALWAYS_INLINE alt_no_error (void)
{
  return 0;
  80f008:	0005883a 	mov	r2,zero
   * Initialise the read and write flags and the semaphores used to 
   * protect access to the circular buffers when running in a multi-threaded
   * environment.
   */
  error = ALT_FLAG_CREATE (&sp->events, 0)    || 
          ALT_SEM_CREATE (&sp->read_lock, 1)  ||
  80f00c:	1000041e 	bne	r2,zero,80f020 <altera_avalon_uart_init+0x40>
  80f010:	0005883a 	mov	r2,zero
  /* 
   * Initialise the read and write flags and the semaphores used to 
   * protect access to the circular buffers when running in a multi-threaded
   * environment.
   */
  error = ALT_FLAG_CREATE (&sp->events, 0)    || 
  80f014:	1000021e 	bne	r2,zero,80f020 <altera_avalon_uart_init+0x40>
  80f018:	0005883a 	mov	r2,zero
          ALT_SEM_CREATE (&sp->read_lock, 1)  ||
  80f01c:	10000226 	beq	r2,zero,80f028 <altera_avalon_uart_init+0x48>
  80f020:	00800044 	movi	r2,1
  80f024:	00000106 	br	80f02c <altera_avalon_uart_init+0x4c>
  80f028:	0005883a 	mov	r2,zero
  /* 
   * Initialise the read and write flags and the semaphores used to 
   * protect access to the circular buffers when running in a multi-threaded
   * environment.
   */
  error = ALT_FLAG_CREATE (&sp->events, 0)    || 
  80f02c:	e0bffc15 	stw	r2,-16(fp)
          ALT_SEM_CREATE (&sp->read_lock, 1)  ||
          ALT_SEM_CREATE (&sp->write_lock, 1);

  if (!error)
  80f030:	e0bffc17 	ldw	r2,-16(fp)
  80f034:	10000d1e 	bne	r2,zero,80f06c <altera_avalon_uart_init+0x8c>
  {
    /* enable interrupts at the device */
    sp->ctrl = ALTERA_AVALON_UART_CONTROL_RTS_MSK  |
  80f038:	e0bffd17 	ldw	r2,-12(fp)
  80f03c:	00c32004 	movi	r3,3200
  80f040:	10c00115 	stw	r3,4(r2)
                ALTERA_AVALON_UART_CONTROL_RRDY_MSK |
                ALTERA_AVALON_UART_CONTROL_DCTS_MSK;

    IOWR_ALTERA_AVALON_UART_CONTROL(base, sp->ctrl); 
  80f044:	e0bffb17 	ldw	r2,-20(fp)
  80f048:	10800304 	addi	r2,r2,12
  80f04c:	e0fffd17 	ldw	r3,-12(fp)
  80f050:	18c00117 	ldw	r3,4(r3)
  80f054:	10c00035 	stwio	r3,0(r2)
    /* register the interrupt handler */
#ifdef ALT_ENHANCED_INTERRUPT_API_PRESENT
    alt_ic_isr_register(irq_controller_id, irq, altera_avalon_uart_irq, sp, 
      0x0);
#else
    alt_irq_register (irq, sp, altera_avalon_uart_irq);
  80f058:	e13fff17 	ldw	r4,-4(fp)
  80f05c:	e17ffd17 	ldw	r5,-12(fp)
  80f060:	01802074 	movhi	r6,129
  80f064:	31bc2004 	addi	r6,r6,-3968
  80f068:	08103380 	call	810338 <alt_irq_register>
#endif  
  }
}
  80f06c:	e037883a 	mov	sp,fp
  80f070:	dfc00117 	ldw	ra,4(sp)
  80f074:	df000017 	ldw	fp,0(sp)
  80f078:	dec00204 	addi	sp,sp,8
  80f07c:	f800283a 	ret

0080f080 <altera_avalon_uart_irq>:
#ifdef ALT_ENHANCED_INTERRUPT_API_PRESENT
static void altera_avalon_uart_irq(void* context)
#else
static void altera_avalon_uart_irq(void* context, alt_u32 id)
#endif
{
  80f080:	defff904 	addi	sp,sp,-28
  80f084:	dfc00615 	stw	ra,24(sp)
  80f088:	df000515 	stw	fp,20(sp)
  80f08c:	df000504 	addi	fp,sp,20
  80f090:	e13ffe15 	stw	r4,-8(fp)
  80f094:	e17fff15 	stw	r5,-4(fp)
  alt_u32 status;

  altera_avalon_uart_state* sp = (altera_avalon_uart_state*) context;
  80f098:	e0bffe17 	ldw	r2,-8(fp)
  80f09c:	e0bffb15 	stw	r2,-20(fp)
  void* base               = sp->base;
  80f0a0:	e0bffb17 	ldw	r2,-20(fp)
  80f0a4:	10800017 	ldw	r2,0(r2)
  80f0a8:	e0bffc15 	stw	r2,-16(fp)
  /*
   * Read the status register in order to determine the cause of the
   * interrupt.
   */

  status = IORD_ALTERA_AVALON_UART_STATUS(base);
  80f0ac:	e0bffc17 	ldw	r2,-16(fp)
  80f0b0:	10800204 	addi	r2,r2,8
  80f0b4:	10800037 	ldwio	r2,0(r2)
  80f0b8:	e0bffd15 	stw	r2,-12(fp)

  /* Clear any error flags set at the device */
  IOWR_ALTERA_AVALON_UART_STATUS(base, 0);
  80f0bc:	e0bffc17 	ldw	r2,-16(fp)
  80f0c0:	10800204 	addi	r2,r2,8
  80f0c4:	0007883a 	mov	r3,zero
  80f0c8:	10c00035 	stwio	r3,0(r2)

  /* Dummy read to ensure IRQ is negated before ISR returns */
  IORD_ALTERA_AVALON_UART_STATUS(base);
  80f0cc:	e0bffc17 	ldw	r2,-16(fp)
  80f0d0:	10800204 	addi	r2,r2,8
  80f0d4:	10800037 	ldwio	r2,0(r2)
  
  /* process a read irq */
  if (status & ALTERA_AVALON_UART_STATUS_RRDY_MSK)
  80f0d8:	e0bffd17 	ldw	r2,-12(fp)
  80f0dc:	1080200c 	andi	r2,r2,128
  80f0e0:	10000326 	beq	r2,zero,80f0f0 <altera_avalon_uart_irq+0x70>
  {
    altera_avalon_uart_rxirq(sp, status);
  80f0e4:	e13ffb17 	ldw	r4,-20(fp)
  80f0e8:	e17ffd17 	ldw	r5,-12(fp)
  80f0ec:	080f11c0 	call	80f11c <altera_avalon_uart_rxirq>
  }

  /* process a write irq */
  if (status & (ALTERA_AVALON_UART_STATUS_TRDY_MSK | 
  80f0f0:	e0bffd17 	ldw	r2,-12(fp)
  80f0f4:	1081100c 	andi	r2,r2,1088
  80f0f8:	10000326 	beq	r2,zero,80f108 <altera_avalon_uart_irq+0x88>
                  ALTERA_AVALON_UART_STATUS_DCTS_MSK))
  {
    altera_avalon_uart_txirq(sp, status);
  80f0fc:	e13ffb17 	ldw	r4,-20(fp)
  80f100:	e17ffd17 	ldw	r5,-12(fp)
  80f104:	080f1fc0 	call	80f1fc <altera_avalon_uart_txirq>
  }
  

}
  80f108:	e037883a 	mov	sp,fp
  80f10c:	dfc00117 	ldw	ra,4(sp)
  80f110:	df000017 	ldw	fp,0(sp)
  80f114:	dec00204 	addi	sp,sp,8
  80f118:	f800283a 	ret

0080f11c <altera_avalon_uart_rxirq>:
 * the receive circular buffer, and sets the apropriate flags to indicate 
 * that there is data ready to be processed.
 */
static void 
altera_avalon_uart_rxirq(altera_avalon_uart_state* sp, alt_u32 status)
{
  80f11c:	defffc04 	addi	sp,sp,-16
  80f120:	df000315 	stw	fp,12(sp)
  80f124:	df000304 	addi	fp,sp,12
  80f128:	e13ffe15 	stw	r4,-8(fp)
  80f12c:	e17fff15 	stw	r5,-4(fp)
  alt_u32 next;
  
  /* If there was an error, discard the data */

  if (status & (ALTERA_AVALON_UART_STATUS_PE_MSK | 
  80f130:	e0bfff17 	ldw	r2,-4(fp)
  80f134:	108000cc 	andi	r2,r2,3
  80f138:	10000126 	beq	r2,zero,80f140 <altera_avalon_uart_rxirq+0x24>
                  ALTERA_AVALON_UART_STATUS_FE_MSK))
  {
    return;
  80f13c:	00002b06 	br	80f1ec <altera_avalon_uart_rxirq+0xd0>
   * In a multi-threaded environment, set the read event flag to indicate
   * that there is data ready. This is only done if the circular buffer was
   * previously empty.
   */

  if (sp->rx_end == sp->rx_start)
  80f140:	e0bffe17 	ldw	r2,-8(fp)
  80f144:	10800317 	ldw	r2,12(r2)
  80f148:	e0bffe17 	ldw	r2,-8(fp)
  80f14c:	10800217 	ldw	r2,8(r2)
    ALT_FLAG_POST (sp->events, ALT_UART_READ_RDY, OS_FLAG_SET);
  }

  /* Determine which slot to use next in the circular buffer */

  next = (sp->rx_end + 1) & ALT_AVALON_UART_BUF_MSK;
  80f150:	e0bffe17 	ldw	r2,-8(fp)
  80f154:	10800317 	ldw	r2,12(r2)
  80f158:	10800044 	addi	r2,r2,1
  80f15c:	10800fcc 	andi	r2,r2,63
  80f160:	e0bffd15 	stw	r2,-12(fp)

  /* Transfer data from the device to the circular buffer */

  sp->rx_buf[sp->rx_end] = IORD_ALTERA_AVALON_UART_RXDATA(sp->base);
  80f164:	e0bffe17 	ldw	r2,-8(fp)
  80f168:	10800317 	ldw	r2,12(r2)
  80f16c:	e0fffe17 	ldw	r3,-8(fp)
  80f170:	18c00017 	ldw	r3,0(r3)
  80f174:	18c00037 	ldwio	r3,0(r3)
  80f178:	1809883a 	mov	r4,r3
  80f17c:	e0fffe17 	ldw	r3,-8(fp)
  80f180:	1885883a 	add	r2,r3,r2
  80f184:	10800704 	addi	r2,r2,28
  80f188:	11000005 	stb	r4,0(r2)

  sp->rx_end = next;
  80f18c:	e0bffe17 	ldw	r2,-8(fp)
  80f190:	e0fffd17 	ldw	r3,-12(fp)
  80f194:	10c00315 	stw	r3,12(r2)

  next = (sp->rx_end + 1) & ALT_AVALON_UART_BUF_MSK;
  80f198:	e0bffe17 	ldw	r2,-8(fp)
  80f19c:	10800317 	ldw	r2,12(r2)
  80f1a0:	10800044 	addi	r2,r2,1
  80f1a4:	10800fcc 	andi	r2,r2,63
  80f1a8:	e0bffd15 	stw	r2,-12(fp)
  /*
   * If the cicular buffer was full, disable interrupts. Interrupts will be
   * re-enabled when data is removed from the buffer.
   */

  if (next == sp->rx_start)
  80f1ac:	e0bffe17 	ldw	r2,-8(fp)
  80f1b0:	10c00217 	ldw	r3,8(r2)
  80f1b4:	e0bffd17 	ldw	r2,-12(fp)
  80f1b8:	18800c1e 	bne	r3,r2,80f1ec <altera_avalon_uart_rxirq+0xd0>
  {
    sp->ctrl &= ~ALTERA_AVALON_UART_CONTROL_RRDY_MSK;
  80f1bc:	e0bffe17 	ldw	r2,-8(fp)
  80f1c0:	10c00117 	ldw	r3,4(r2)
  80f1c4:	00bfdfc4 	movi	r2,-129
  80f1c8:	1886703a 	and	r3,r3,r2
  80f1cc:	e0bffe17 	ldw	r2,-8(fp)
  80f1d0:	10c00115 	stw	r3,4(r2)
    IOWR_ALTERA_AVALON_UART_CONTROL(sp->base, sp->ctrl); 
  80f1d4:	e0bffe17 	ldw	r2,-8(fp)
  80f1d8:	10800017 	ldw	r2,0(r2)
  80f1dc:	10800304 	addi	r2,r2,12
  80f1e0:	e0fffe17 	ldw	r3,-8(fp)
  80f1e4:	18c00117 	ldw	r3,4(r3)
  80f1e8:	10c00035 	stwio	r3,0(r2)
  }   
}
  80f1ec:	e037883a 	mov	sp,fp
  80f1f0:	df000017 	ldw	fp,0(sp)
  80f1f4:	dec00104 	addi	sp,sp,4
  80f1f8:	f800283a 	ret

0080f1fc <altera_avalon_uart_txirq>:
 * buffer to the device, and sets the apropriate flags to indicate that 
 * there is data ready to be processed.
 */
static void 
altera_avalon_uart_txirq(altera_avalon_uart_state* sp, alt_u32 status)
{
  80f1fc:	defffb04 	addi	sp,sp,-20
  80f200:	df000415 	stw	fp,16(sp)
  80f204:	df000404 	addi	fp,sp,16
  80f208:	e13ffc15 	stw	r4,-16(fp)
  80f20c:	e17ffd15 	stw	r5,-12(fp)
  /* Transfer data if there is some ready to be transfered */

  if (sp->tx_start != sp->tx_end)
  80f210:	e0bffc17 	ldw	r2,-16(fp)
  80f214:	10c00417 	ldw	r3,16(r2)
  80f218:	e0bffc17 	ldw	r2,-16(fp)
  80f21c:	10800517 	ldw	r2,20(r2)
  80f220:	18803226 	beq	r3,r2,80f2ec <altera_avalon_uart_txirq+0xf0>
    /* 
     * If the device is using flow control (i.e. RTS/CTS), then the
     * transmitter is required to throttle if CTS is high.
     */

    if (!(sp->flags & ALT_AVALON_UART_FC) ||
  80f224:	e0bffc17 	ldw	r2,-16(fp)
  80f228:	10800617 	ldw	r2,24(r2)
  80f22c:	1080008c 	andi	r2,r2,2
  80f230:	10000326 	beq	r2,zero,80f240 <altera_avalon_uart_txirq+0x44>
      (status & ALTERA_AVALON_UART_STATUS_CTS_MSK))
  80f234:	e0bffd17 	ldw	r2,-12(fp)
  80f238:	1082000c 	andi	r2,r2,2048
    /* 
     * If the device is using flow control (i.e. RTS/CTS), then the
     * transmitter is required to throttle if CTS is high.
     */

    if (!(sp->flags & ALT_AVALON_UART_FC) ||
  80f23c:	10001d26 	beq	r2,zero,80f2b4 <altera_avalon_uart_txirq+0xb8>
       * In a multi-threaded environment, set the write event flag to indicate
       * that there is space in the circular buffer. This is only done if the
       * buffer was previously empty.
       */

      if (sp->tx_start == ((sp->tx_end + 1) & ALT_AVALON_UART_BUF_MSK))
  80f240:	e0bffc17 	ldw	r2,-16(fp)
  80f244:	10800417 	ldw	r2,16(r2)
  80f248:	e0bffc17 	ldw	r2,-16(fp)
  80f24c:	10800517 	ldw	r2,20(r2)
                       OS_FLAG_SET);
      }

      /* Write the data to the device */

      IOWR_ALTERA_AVALON_UART_TXDATA(sp->base, sp->tx_buf[sp->tx_start]);
  80f250:	e0bffc17 	ldw	r2,-16(fp)
  80f254:	10800017 	ldw	r2,0(r2)
  80f258:	10800104 	addi	r2,r2,4
  80f25c:	e0fffc17 	ldw	r3,-16(fp)
  80f260:	18c00417 	ldw	r3,16(r3)
  80f264:	e13ffc17 	ldw	r4,-16(fp)
  80f268:	20c7883a 	add	r3,r4,r3
  80f26c:	18c01704 	addi	r3,r3,92
  80f270:	18c00003 	ldbu	r3,0(r3)
  80f274:	18c03fcc 	andi	r3,r3,255
  80f278:	10c00035 	stwio	r3,0(r2)

      sp->tx_start = (++sp->tx_start) & ALT_AVALON_UART_BUF_MSK;
  80f27c:	e0bffc17 	ldw	r2,-16(fp)
  80f280:	10800417 	ldw	r2,16(r2)
  80f284:	10800044 	addi	r2,r2,1
  80f288:	e0fffc17 	ldw	r3,-16(fp)
  80f28c:	18800415 	stw	r2,16(r3)
  80f290:	10c00fcc 	andi	r3,r2,63
  80f294:	e0bffc17 	ldw	r2,-16(fp)
  80f298:	10c00415 	stw	r3,16(r2)
      /*
       * In case the tranmit interrupt had previously been disabled by 
       * detecting a low value on CTS, it is reenabled here.
       */ 

      sp->ctrl |= ALTERA_AVALON_UART_CONTROL_TRDY_MSK;
  80f29c:	e0bffc17 	ldw	r2,-16(fp)
  80f2a0:	10800117 	ldw	r2,4(r2)
  80f2a4:	10c01014 	ori	r3,r2,64
  80f2a8:	e0bffc17 	ldw	r2,-16(fp)
  80f2ac:	10c00115 	stw	r3,4(r2)
  80f2b0:	00000e06 	br	80f2ec <altera_avalon_uart_txirq+0xf0>
       * the last write to the status register. To avoid this resulting in
       * deadlock, it's necessary to re-check the status register here
       * before throttling.
       */
 
      status = IORD_ALTERA_AVALON_UART_STATUS(sp->base); 
  80f2b4:	e0bffc17 	ldw	r2,-16(fp)
  80f2b8:	10800017 	ldw	r2,0(r2)
  80f2bc:	10800204 	addi	r2,r2,8
  80f2c0:	10800037 	ldwio	r2,0(r2)
  80f2c4:	e0bffd15 	stw	r2,-12(fp)

      if (!(status & ALTERA_AVALON_UART_STATUS_CTS_MSK))
  80f2c8:	e0bffd17 	ldw	r2,-12(fp)
  80f2cc:	1082000c 	andi	r2,r2,2048
  80f2d0:	1000061e 	bne	r2,zero,80f2ec <altera_avalon_uart_txirq+0xf0>
      {
        sp->ctrl &= ~ALTERA_AVALON_UART_CONTROL_TRDY_MSK;
  80f2d4:	e0bffc17 	ldw	r2,-16(fp)
  80f2d8:	10c00117 	ldw	r3,4(r2)
  80f2dc:	00bfefc4 	movi	r2,-65
  80f2e0:	1886703a 	and	r3,r3,r2
  80f2e4:	e0bffc17 	ldw	r2,-16(fp)
  80f2e8:	10c00115 	stw	r3,4(r2)
  /*
   * If the circular buffer is empty, disable the interrupt. This will be
   * re-enabled when new data is placed in the buffer.
   */

  if (sp->tx_start == sp->tx_end)
  80f2ec:	e0bffc17 	ldw	r2,-16(fp)
  80f2f0:	10c00417 	ldw	r3,16(r2)
  80f2f4:	e0bffc17 	ldw	r2,-16(fp)
  80f2f8:	10800517 	ldw	r2,20(r2)
  80f2fc:	1880061e 	bne	r3,r2,80f318 <altera_avalon_uart_txirq+0x11c>
  {
    sp->ctrl &= ~(ALTERA_AVALON_UART_CONTROL_TRDY_MSK |
  80f300:	e0bffc17 	ldw	r2,-16(fp)
  80f304:	10c00117 	ldw	r3,4(r2)
  80f308:	00beefc4 	movi	r2,-1089
  80f30c:	1886703a 	and	r3,r3,r2
  80f310:	e0bffc17 	ldw	r2,-16(fp)
  80f314:	10c00115 	stw	r3,4(r2)
                    ALTERA_AVALON_UART_CONTROL_DCTS_MSK);
  }

  IOWR_ALTERA_AVALON_UART_CONTROL(sp->base, sp->ctrl);
  80f318:	e0bffc17 	ldw	r2,-16(fp)
  80f31c:	10800017 	ldw	r2,0(r2)
  80f320:	10800304 	addi	r2,r2,12
  80f324:	e0fffc17 	ldw	r3,-16(fp)
  80f328:	18c00117 	ldw	r3,4(r3)
  80f32c:	10c00035 	stwio	r3,0(r2)
}
  80f330:	e037883a 	mov	sp,fp
  80f334:	df000017 	ldw	fp,0(sp)
  80f338:	dec00104 	addi	sp,sp,4
  80f33c:	f800283a 	ret

0080f340 <altera_avalon_uart_close>:
 * The close routine is not implemented for the small driver; instead it will
 * map to null. This is because the small driver simply waits while characters
 * are transmitted; there is no interrupt-serviced buffer to empty 
 */
int altera_avalon_uart_close(altera_avalon_uart_state* sp, int flags)
{
  80f340:	defffd04 	addi	sp,sp,-12
  80f344:	df000215 	stw	fp,8(sp)
  80f348:	df000204 	addi	fp,sp,8
  80f34c:	e13ffe15 	stw	r4,-8(fp)
  80f350:	e17fff15 	stw	r5,-4(fp)
  /* 
   * Wait for all transmit data to be emptied by the UART ISR.
   */
  while (sp->tx_start != sp->tx_end) {
  80f354:	00000506 	br	80f36c <altera_avalon_uart_close+0x2c>
    if (flags & O_NONBLOCK) {
  80f358:	e0bfff17 	ldw	r2,-4(fp)
  80f35c:	1090000c 	andi	r2,r2,16384
  80f360:	10000226 	beq	r2,zero,80f36c <altera_avalon_uart_close+0x2c>
      return -EWOULDBLOCK; 
  80f364:	00bffd44 	movi	r2,-11
  80f368:	00000606 	br	80f384 <altera_avalon_uart_close+0x44>
int altera_avalon_uart_close(altera_avalon_uart_state* sp, int flags)
{
  /* 
   * Wait for all transmit data to be emptied by the UART ISR.
   */
  while (sp->tx_start != sp->tx_end) {
  80f36c:	e0bffe17 	ldw	r2,-8(fp)
  80f370:	10c00417 	ldw	r3,16(r2)
  80f374:	e0bffe17 	ldw	r2,-8(fp)
  80f378:	10800517 	ldw	r2,20(r2)
  80f37c:	18bff61e 	bne	r3,r2,80f358 <__alt_data_end+0xff80f358>
    if (flags & O_NONBLOCK) {
      return -EWOULDBLOCK; 
    }
  }

  return 0;
  80f380:	0005883a 	mov	r2,zero
}
  80f384:	e037883a 	mov	sp,fp
  80f388:	df000017 	ldw	fp,0(sp)
  80f38c:	dec00104 	addi	sp,sp,4
  80f390:	f800283a 	ret

0080f394 <alt_get_errno>:
#undef errno

extern int errno;

static ALT_INLINE int* alt_get_errno(void)
{
  80f394:	defffe04 	addi	sp,sp,-8
  80f398:	dfc00115 	stw	ra,4(sp)
  80f39c:	df000015 	stw	fp,0(sp)
  80f3a0:	d839883a 	mov	fp,sp
  return ((alt_errno) ? alt_errno() : &errno);
  80f3a4:	00802074 	movhi	r2,129
  80f3a8:	108df404 	addi	r2,r2,14288
  80f3ac:	10800017 	ldw	r2,0(r2)
  80f3b0:	10000526 	beq	r2,zero,80f3c8 <alt_get_errno+0x34>
  80f3b4:	00802074 	movhi	r2,129
  80f3b8:	108df404 	addi	r2,r2,14288
  80f3bc:	10800017 	ldw	r2,0(r2)
  80f3c0:	103ee83a 	callr	r2
  80f3c4:	00000206 	br	80f3d0 <alt_get_errno+0x3c>
  80f3c8:	00802074 	movhi	r2,129
  80f3cc:	10953804 	addi	r2,r2,21728
}
  80f3d0:	e037883a 	mov	sp,fp
  80f3d4:	dfc00117 	ldw	ra,4(sp)
  80f3d8:	df000017 	ldw	fp,0(sp)
  80f3dc:	dec00204 	addi	sp,sp,8
  80f3e0:	f800283a 	ret

0080f3e4 <altera_avalon_uart_read>:
 */

int 
altera_avalon_uart_read(altera_avalon_uart_state* sp, char* ptr, int len,
  int flags)
{
  80f3e4:	defff204 	addi	sp,sp,-56
  80f3e8:	dfc00d15 	stw	ra,52(sp)
  80f3ec:	df000c15 	stw	fp,48(sp)
  80f3f0:	df000c04 	addi	fp,sp,48
  80f3f4:	e13ffc15 	stw	r4,-16(fp)
  80f3f8:	e17ffd15 	stw	r5,-12(fp)
  80f3fc:	e1bffe15 	stw	r6,-8(fp)
  80f400:	e1ffff15 	stw	r7,-4(fp)
  alt_irq_context context;
  int             block;
  alt_u8          read_would_block = 0;
  80f404:	e03ff405 	stb	zero,-48(fp)
  int             count = 0;
  80f408:	e03ff515 	stw	zero,-44(fp)
  /* 
   * Construct a flag to indicate whether the device is being accessed in
   * blocking or non-blocking mode.
   */

  block = !(flags & O_NONBLOCK);
  80f40c:	e0bfff17 	ldw	r2,-4(fp)
  80f410:	1090000c 	andi	r2,r2,16384
  80f414:	1005003a 	cmpeq	r2,r2,zero
  80f418:	10803fcc 	andi	r2,r2,255
  80f41c:	e0bff615 	stw	r2,-40(fp)
    /*
     * Read the required amount of data, until the circular buffer runs
     * empty
     */

    while ((count < len) && (sp->rx_start != sp->rx_end))
  80f420:	00001306 	br	80f470 <altera_avalon_uart_read+0x8c>
    {
      count++;
  80f424:	e0bff517 	ldw	r2,-44(fp)
  80f428:	10800044 	addi	r2,r2,1
  80f42c:	e0bff515 	stw	r2,-44(fp)
      *ptr++ = sp->rx_buf[sp->rx_start];
  80f430:	e0bffd17 	ldw	r2,-12(fp)
  80f434:	10c00044 	addi	r3,r2,1
  80f438:	e0fffd15 	stw	r3,-12(fp)
  80f43c:	e0fffc17 	ldw	r3,-16(fp)
  80f440:	18c00217 	ldw	r3,8(r3)
  80f444:	e13ffc17 	ldw	r4,-16(fp)
  80f448:	20c7883a 	add	r3,r4,r3
  80f44c:	18c00704 	addi	r3,r3,28
  80f450:	18c00003 	ldbu	r3,0(r3)
  80f454:	10c00005 	stb	r3,0(r2)
      
      sp->rx_start = (sp->rx_start+1) & ALT_AVALON_UART_BUF_MSK;
  80f458:	e0bffc17 	ldw	r2,-16(fp)
  80f45c:	10800217 	ldw	r2,8(r2)
  80f460:	10800044 	addi	r2,r2,1
  80f464:	10c00fcc 	andi	r3,r2,63
  80f468:	e0bffc17 	ldw	r2,-16(fp)
  80f46c:	10c00215 	stw	r3,8(r2)
    /*
     * Read the required amount of data, until the circular buffer runs
     * empty
     */

    while ((count < len) && (sp->rx_start != sp->rx_end))
  80f470:	e0fff517 	ldw	r3,-44(fp)
  80f474:	e0bffe17 	ldw	r2,-8(fp)
  80f478:	1880050e 	bge	r3,r2,80f490 <altera_avalon_uart_read+0xac>
  80f47c:	e0bffc17 	ldw	r2,-16(fp)
  80f480:	10c00217 	ldw	r3,8(r2)
  80f484:	e0bffc17 	ldw	r2,-16(fp)
  80f488:	10800317 	ldw	r2,12(r2)
  80f48c:	18bfe51e 	bne	r3,r2,80f424 <__alt_data_end+0xff80f424>
    /*
     * If no data has been transferred, the circular buffer is empty, and
     * this is not a non-blocking access, block waiting for data to arrive.
     */

    if (!count && (sp->rx_start == sp->rx_end))
  80f490:	e0bff517 	ldw	r2,-44(fp)
  80f494:	1000251e 	bne	r2,zero,80f52c <altera_avalon_uart_read+0x148>
  80f498:	e0bffc17 	ldw	r2,-16(fp)
  80f49c:	10c00217 	ldw	r3,8(r2)
  80f4a0:	e0bffc17 	ldw	r2,-16(fp)
  80f4a4:	10800317 	ldw	r2,12(r2)
  80f4a8:	1880201e 	bne	r3,r2,80f52c <altera_avalon_uart_read+0x148>
    {
      if (!block)
  80f4ac:	e0bff617 	ldw	r2,-40(fp)
  80f4b0:	1000071e 	bne	r2,zero,80f4d0 <altera_avalon_uart_read+0xec>
      {
        /* Set errno to indicate the reason we're not returning any data */

        ALT_ERRNO = EWOULDBLOCK;
  80f4b4:	080f3940 	call	80f394 <alt_get_errno>
  80f4b8:	1007883a 	mov	r3,r2
  80f4bc:	008002c4 	movi	r2,11
  80f4c0:	18800015 	stw	r2,0(r3)
        read_would_block = 1;
  80f4c4:	00800044 	movi	r2,1
  80f4c8:	e0bff405 	stb	r2,-48(fp)
        break;
  80f4cc:	00001b06 	br	80f53c <altera_avalon_uart_read+0x158>
static ALT_INLINE alt_irq_context ALT_ALWAYS_INLINE 
       alt_irq_disable_all (void)
{
  alt_irq_context context;

  NIOS2_READ_STATUS (context);
  80f4d0:	0005303a 	rdctl	r2,status
  80f4d4:	e0bff815 	stw	r2,-32(fp)

  NIOS2_WRITE_STATUS (context & ~NIOS2_STATUS_PIE_MSK);
  80f4d8:	e0fff817 	ldw	r3,-32(fp)
  80f4dc:	00bfff84 	movi	r2,-2
  80f4e0:	1884703a 	and	r2,r3,r2
  80f4e4:	1001703a 	wrctl	status,r2
  
  return context;
  80f4e8:	e0bff817 	ldw	r2,-32(fp)
      {
       /* Block waiting for some data to arrive */

       /* First, ensure read interrupts are enabled to avoid deadlock */

       context = alt_irq_disable_all ();
  80f4ec:	e0bff715 	stw	r2,-36(fp)
       sp->ctrl |= ALTERA_AVALON_UART_CONTROL_RRDY_MSK;
  80f4f0:	e0bffc17 	ldw	r2,-16(fp)
  80f4f4:	10800117 	ldw	r2,4(r2)
  80f4f8:	10c02014 	ori	r3,r2,128
  80f4fc:	e0bffc17 	ldw	r2,-16(fp)
  80f500:	10c00115 	stw	r3,4(r2)
       IOWR_ALTERA_AVALON_UART_CONTROL(sp->base, sp->ctrl);
  80f504:	e0bffc17 	ldw	r2,-16(fp)
  80f508:	10800017 	ldw	r2,0(r2)
  80f50c:	10800304 	addi	r2,r2,12
  80f510:	e0fffc17 	ldw	r3,-16(fp)
  80f514:	18c00117 	ldw	r3,4(r3)
  80f518:	10c00035 	stwio	r3,0(r2)
  80f51c:	e0bff717 	ldw	r2,-36(fp)
  80f520:	e0bff915 	stw	r2,-28(fp)
  status &= ~NIOS2_STATUS_PIE_MSK;
  status |= (context & NIOS2_STATUS_PIE_MSK);
  
  NIOS2_WRITE_STATUS (status);
#else
  NIOS2_WRITE_STATUS (context);
  80f524:	e0bff917 	ldw	r2,-28(fp)
  80f528:	1001703a 	wrctl	status,r2
                      OS_FLAG_WAIT_SET_ANY + OS_FLAG_CONSUME,
                      0);
      }
    }
  }
  while (!count && len);
  80f52c:	e0bff517 	ldw	r2,-44(fp)
  80f530:	1000021e 	bne	r2,zero,80f53c <altera_avalon_uart_read+0x158>
  80f534:	e0bffe17 	ldw	r2,-8(fp)
  80f538:	103fb91e 	bne	r2,zero,80f420 <__alt_data_end+0xff80f420>
static ALT_INLINE alt_irq_context ALT_ALWAYS_INLINE 
       alt_irq_disable_all (void)
{
  alt_irq_context context;

  NIOS2_READ_STATUS (context);
  80f53c:	0005303a 	rdctl	r2,status
  80f540:	e0bffa15 	stw	r2,-24(fp)

  NIOS2_WRITE_STATUS (context & ~NIOS2_STATUS_PIE_MSK);
  80f544:	e0fffa17 	ldw	r3,-24(fp)
  80f548:	00bfff84 	movi	r2,-2
  80f54c:	1884703a 	and	r2,r3,r2
  80f550:	1001703a 	wrctl	status,r2
  
  return context;
  80f554:	e0bffa17 	ldw	r2,-24(fp)
  /*
   * Ensure that interrupts are enabled, so that the circular buffer can
   * re-fill.
   */

  context = alt_irq_disable_all ();
  80f558:	e0bff715 	stw	r2,-36(fp)
  sp->ctrl |= ALTERA_AVALON_UART_CONTROL_RRDY_MSK;
  80f55c:	e0bffc17 	ldw	r2,-16(fp)
  80f560:	10800117 	ldw	r2,4(r2)
  80f564:	10c02014 	ori	r3,r2,128
  80f568:	e0bffc17 	ldw	r2,-16(fp)
  80f56c:	10c00115 	stw	r3,4(r2)
  IOWR_ALTERA_AVALON_UART_CONTROL(sp->base, sp->ctrl);
  80f570:	e0bffc17 	ldw	r2,-16(fp)
  80f574:	10800017 	ldw	r2,0(r2)
  80f578:	10800304 	addi	r2,r2,12
  80f57c:	e0fffc17 	ldw	r3,-16(fp)
  80f580:	18c00117 	ldw	r3,4(r3)
  80f584:	10c00035 	stwio	r3,0(r2)
  80f588:	e0bff717 	ldw	r2,-36(fp)
  80f58c:	e0bffb15 	stw	r2,-20(fp)
  status &= ~NIOS2_STATUS_PIE_MSK;
  status |= (context & NIOS2_STATUS_PIE_MSK);
  
  NIOS2_WRITE_STATUS (status);
#else
  NIOS2_WRITE_STATUS (context);
  80f590:	e0bffb17 	ldw	r2,-20(fp)
  80f594:	1001703a 	wrctl	status,r2
  alt_irq_enable_all (context);

  /* Return the number of bytes read */
  if(read_would_block) {
  80f598:	e0bff403 	ldbu	r2,-48(fp)
  80f59c:	10000226 	beq	r2,zero,80f5a8 <altera_avalon_uart_read+0x1c4>
    return -EWOULDBLOCK;
  80f5a0:	00bffd44 	movi	r2,-11
  80f5a4:	00000106 	br	80f5ac <altera_avalon_uart_read+0x1c8>
  }
  else {
    return count;
  80f5a8:	e0bff517 	ldw	r2,-44(fp)
  }
}
  80f5ac:	e037883a 	mov	sp,fp
  80f5b0:	dfc00117 	ldw	ra,4(sp)
  80f5b4:	df000017 	ldw	fp,0(sp)
  80f5b8:	dec00204 	addi	sp,sp,8
  80f5bc:	f800283a 	ret

0080f5c0 <alt_get_errno>:
#undef errno

extern int errno;

static ALT_INLINE int* alt_get_errno(void)
{
  80f5c0:	defffe04 	addi	sp,sp,-8
  80f5c4:	dfc00115 	stw	ra,4(sp)
  80f5c8:	df000015 	stw	fp,0(sp)
  80f5cc:	d839883a 	mov	fp,sp
  return ((alt_errno) ? alt_errno() : &errno);
  80f5d0:	00802074 	movhi	r2,129
  80f5d4:	108df404 	addi	r2,r2,14288
  80f5d8:	10800017 	ldw	r2,0(r2)
  80f5dc:	10000526 	beq	r2,zero,80f5f4 <alt_get_errno+0x34>
  80f5e0:	00802074 	movhi	r2,129
  80f5e4:	108df404 	addi	r2,r2,14288
  80f5e8:	10800017 	ldw	r2,0(r2)
  80f5ec:	103ee83a 	callr	r2
  80f5f0:	00000206 	br	80f5fc <alt_get_errno+0x3c>
  80f5f4:	00802074 	movhi	r2,129
  80f5f8:	10953804 	addi	r2,r2,21728
}
  80f5fc:	e037883a 	mov	sp,fp
  80f600:	dfc00117 	ldw	ra,4(sp)
  80f604:	df000017 	ldw	fp,0(sp)
  80f608:	dec00204 	addi	sp,sp,8
  80f60c:	f800283a 	ret

0080f610 <altera_avalon_uart_write>:
 */

int
altera_avalon_uart_write(altera_avalon_uart_state* sp, const char* ptr, int len,
  int flags)
{
  80f610:	defff204 	addi	sp,sp,-56
  80f614:	dfc00d15 	stw	ra,52(sp)
  80f618:	df000c15 	stw	fp,48(sp)
  80f61c:	df000c04 	addi	fp,sp,48
  80f620:	e13ffc15 	stw	r4,-16(fp)
  80f624:	e17ffd15 	stw	r5,-12(fp)
  80f628:	e1bffe15 	stw	r6,-8(fp)
  80f62c:	e1ffff15 	stw	r7,-4(fp)
  alt_irq_context context;
  int             no_block;
  alt_u32         next;
  int             count = len;
  80f630:	e0bffe17 	ldw	r2,-8(fp)
  80f634:	e0bff415 	stw	r2,-48(fp)
  /* 
   * Construct a flag to indicate whether the device is being accessed in
   * blocking or non-blocking mode.
   */

  no_block = (flags & O_NONBLOCK);
  80f638:	e0bfff17 	ldw	r2,-4(fp)
  80f63c:	1090000c 	andi	r2,r2,16384
  80f640:	e0bff515 	stw	r2,-44(fp)
   * Loop transferring data from the input buffer to the transmit circular
   * buffer. The loop is terminated once all the data has been transferred,
   * or, (if in non-blocking mode) the buffer becomes full.
   */

  while (count)
  80f644:	00003c06 	br	80f738 <altera_avalon_uart_write+0x128>
  {
    /* Determine the next slot in the buffer to access */

    next = (sp->tx_end + 1) & ALT_AVALON_UART_BUF_MSK;
  80f648:	e0bffc17 	ldw	r2,-16(fp)
  80f64c:	10800517 	ldw	r2,20(r2)
  80f650:	10800044 	addi	r2,r2,1
  80f654:	10800fcc 	andi	r2,r2,63
  80f658:	e0bff615 	stw	r2,-40(fp)

    /* block waiting for space if necessary */

    if (next == sp->tx_start)
  80f65c:	e0bffc17 	ldw	r2,-16(fp)
  80f660:	10c00417 	ldw	r3,16(r2)
  80f664:	e0bff617 	ldw	r2,-40(fp)
  80f668:	1880221e 	bne	r3,r2,80f6f4 <altera_avalon_uart_write+0xe4>
    {
      if (no_block)
  80f66c:	e0bff517 	ldw	r2,-44(fp)
  80f670:	10000526 	beq	r2,zero,80f688 <altera_avalon_uart_write+0x78>
      {
        /* Set errno to indicate why this function returned early */
 
        ALT_ERRNO = EWOULDBLOCK;
  80f674:	080f5c00 	call	80f5c0 <alt_get_errno>
  80f678:	1007883a 	mov	r3,r2
  80f67c:	008002c4 	movi	r2,11
  80f680:	18800015 	stw	r2,0(r3)
        break;
  80f684:	00002e06 	br	80f740 <altera_avalon_uart_write+0x130>
static ALT_INLINE alt_irq_context ALT_ALWAYS_INLINE 
       alt_irq_disable_all (void)
{
  alt_irq_context context;

  NIOS2_READ_STATUS (context);
  80f688:	0005303a 	rdctl	r2,status
  80f68c:	e0bff815 	stw	r2,-32(fp)

  NIOS2_WRITE_STATUS (context & ~NIOS2_STATUS_PIE_MSK);
  80f690:	e0fff817 	ldw	r3,-32(fp)
  80f694:	00bfff84 	movi	r2,-2
  80f698:	1884703a 	and	r2,r3,r2
  80f69c:	1001703a 	wrctl	status,r2
  
  return context;
  80f6a0:	e0bff817 	ldw	r2,-32(fp)
      {
        /* Block waiting for space in the circular buffer */

        /* First, ensure transmit interrupts are enabled to avoid deadlock */

        context = alt_irq_disable_all ();
  80f6a4:	e0bff715 	stw	r2,-36(fp)
        sp->ctrl |= (ALTERA_AVALON_UART_CONTROL_TRDY_MSK |
  80f6a8:	e0bffc17 	ldw	r2,-16(fp)
  80f6ac:	10800117 	ldw	r2,4(r2)
  80f6b0:	10c11014 	ori	r3,r2,1088
  80f6b4:	e0bffc17 	ldw	r2,-16(fp)
  80f6b8:	10c00115 	stw	r3,4(r2)
                        ALTERA_AVALON_UART_CONTROL_DCTS_MSK);
        IOWR_ALTERA_AVALON_UART_CONTROL(sp->base, sp->ctrl);
  80f6bc:	e0bffc17 	ldw	r2,-16(fp)
  80f6c0:	10800017 	ldw	r2,0(r2)
  80f6c4:	10800304 	addi	r2,r2,12
  80f6c8:	e0fffc17 	ldw	r3,-16(fp)
  80f6cc:	18c00117 	ldw	r3,4(r3)
  80f6d0:	10c00035 	stwio	r3,0(r2)
  80f6d4:	e0bff717 	ldw	r2,-36(fp)
  80f6d8:	e0bff915 	stw	r2,-28(fp)
  status &= ~NIOS2_STATUS_PIE_MSK;
  status |= (context & NIOS2_STATUS_PIE_MSK);
  
  NIOS2_WRITE_STATUS (status);
#else
  NIOS2_WRITE_STATUS (context);
  80f6dc:	e0bff917 	ldw	r2,-28(fp)
  80f6e0:	1001703a 	wrctl	status,r2
          ALT_FLAG_PEND (sp->events, 
                         ALT_UART_WRITE_RDY,
                         OS_FLAG_WAIT_SET_ANY + OS_FLAG_CONSUME,
                         0);
        }
        while ((next == sp->tx_start));
  80f6e4:	e0bffc17 	ldw	r2,-16(fp)
  80f6e8:	10c00417 	ldw	r3,16(r2)
  80f6ec:	e0bff617 	ldw	r2,-40(fp)
  80f6f0:	18bffc26 	beq	r3,r2,80f6e4 <__alt_data_end+0xff80f6e4>
      }
    }

    count--;
  80f6f4:	e0bff417 	ldw	r2,-48(fp)
  80f6f8:	10bfffc4 	addi	r2,r2,-1
  80f6fc:	e0bff415 	stw	r2,-48(fp)

    /* Add the next character to the transmit buffer */

    sp->tx_buf[sp->tx_end] = *ptr++;
  80f700:	e0bffc17 	ldw	r2,-16(fp)
  80f704:	10c00517 	ldw	r3,20(r2)
  80f708:	e0bffd17 	ldw	r2,-12(fp)
  80f70c:	11000044 	addi	r4,r2,1
  80f710:	e13ffd15 	stw	r4,-12(fp)
  80f714:	10800003 	ldbu	r2,0(r2)
  80f718:	1009883a 	mov	r4,r2
  80f71c:	e0bffc17 	ldw	r2,-16(fp)
  80f720:	10c5883a 	add	r2,r2,r3
  80f724:	10801704 	addi	r2,r2,92
  80f728:	11000005 	stb	r4,0(r2)
    sp->tx_end = next;
  80f72c:	e0bffc17 	ldw	r2,-16(fp)
  80f730:	e0fff617 	ldw	r3,-40(fp)
  80f734:	10c00515 	stw	r3,20(r2)
   * Loop transferring data from the input buffer to the transmit circular
   * buffer. The loop is terminated once all the data has been transferred,
   * or, (if in non-blocking mode) the buffer becomes full.
   */

  while (count)
  80f738:	e0bff417 	ldw	r2,-48(fp)
  80f73c:	103fc21e 	bne	r2,zero,80f648 <__alt_data_end+0xff80f648>
static ALT_INLINE alt_irq_context ALT_ALWAYS_INLINE 
       alt_irq_disable_all (void)
{
  alt_irq_context context;

  NIOS2_READ_STATUS (context);
  80f740:	0005303a 	rdctl	r2,status
  80f744:	e0bffa15 	stw	r2,-24(fp)

  NIOS2_WRITE_STATUS (context & ~NIOS2_STATUS_PIE_MSK);
  80f748:	e0fffa17 	ldw	r3,-24(fp)
  80f74c:	00bfff84 	movi	r2,-2
  80f750:	1884703a 	and	r2,r3,r2
  80f754:	1001703a 	wrctl	status,r2
  
  return context;
  80f758:	e0bffa17 	ldw	r2,-24(fp)
  /* 
   * Ensure that interrupts are enabled, so that the circular buffer can 
   * drain.
   */

  context = alt_irq_disable_all ();
  80f75c:	e0bff715 	stw	r2,-36(fp)
  sp->ctrl |= ALTERA_AVALON_UART_CONTROL_TRDY_MSK |
  80f760:	e0bffc17 	ldw	r2,-16(fp)
  80f764:	10800117 	ldw	r2,4(r2)
  80f768:	10c11014 	ori	r3,r2,1088
  80f76c:	e0bffc17 	ldw	r2,-16(fp)
  80f770:	10c00115 	stw	r3,4(r2)
                 ALTERA_AVALON_UART_CONTROL_DCTS_MSK;
  IOWR_ALTERA_AVALON_UART_CONTROL(sp->base, sp->ctrl);
  80f774:	e0bffc17 	ldw	r2,-16(fp)
  80f778:	10800017 	ldw	r2,0(r2)
  80f77c:	10800304 	addi	r2,r2,12
  80f780:	e0fffc17 	ldw	r3,-16(fp)
  80f784:	18c00117 	ldw	r3,4(r3)
  80f788:	10c00035 	stwio	r3,0(r2)
  80f78c:	e0bff717 	ldw	r2,-36(fp)
  80f790:	e0bffb15 	stw	r2,-20(fp)
  status &= ~NIOS2_STATUS_PIE_MSK;
  status |= (context & NIOS2_STATUS_PIE_MSK);
  
  NIOS2_WRITE_STATUS (status);
#else
  NIOS2_WRITE_STATUS (context);
  80f794:	e0bffb17 	ldw	r2,-20(fp)
  80f798:	1001703a 	wrctl	status,r2
  alt_irq_enable_all (context);

  /* return the number of bytes written */

  return (len - count);
  80f79c:	e0fffe17 	ldw	r3,-8(fp)
  80f7a0:	e0bff417 	ldw	r2,-48(fp)
  80f7a4:	1885c83a 	sub	r2,r3,r2
}
  80f7a8:	e037883a 	mov	sp,fp
  80f7ac:	dfc00117 	ldw	ra,4(sp)
  80f7b0:	df000017 	ldw	fp,0(sp)
  80f7b4:	dec00204 	addi	sp,sp,8
  80f7b8:	f800283a 	ret

0080f7bc <alt_up_audio_open_dev>:
#include "altera_up_avalon_audio_regs.h"

///////////////////////////////////////////////////////////////////////////
// Direct functions
alt_up_audio_dev* alt_up_audio_open_dev(const char* name)
{
  80f7bc:	defffc04 	addi	sp,sp,-16
  80f7c0:	dfc00315 	stw	ra,12(sp)
  80f7c4:	df000215 	stw	fp,8(sp)
  80f7c8:	df000204 	addi	fp,sp,8
  80f7cc:	e13fff15 	stw	r4,-4(fp)
  // find the device from the device list 
  // (see altera_hal/HAL/inc/priv/alt_file.h 
  // and altera_hal/HAL/src/alt_find_dev.c 
  // for details)
  alt_up_audio_dev *dev = (alt_up_audio_dev*)alt_find_dev(name, &alt_dev_list);
  80f7d0:	e13fff17 	ldw	r4,-4(fp)
  80f7d4:	01402074 	movhi	r5,129
  80f7d8:	294df104 	addi	r5,r5,14276
  80f7dc:	08101400 	call	810140 <alt_find_dev>
  80f7e0:	e0bffe15 	stw	r2,-8(fp)
  return dev;
  80f7e4:	e0bffe17 	ldw	r2,-8(fp)
}
  80f7e8:	e037883a 	mov	sp,fp
  80f7ec:	dfc00117 	ldw	ra,4(sp)
  80f7f0:	df000017 	ldw	fp,0(sp)
  80f7f4:	dec00204 	addi	sp,sp,8
  80f7f8:	f800283a 	ret

0080f7fc <alt_up_audio_enable_read_interrupt>:

void alt_up_audio_enable_read_interrupt(alt_up_audio_dev *audio)
{
  80f7fc:	defffd04 	addi	sp,sp,-12
  80f800:	df000215 	stw	fp,8(sp)
  80f804:	df000204 	addi	fp,sp,8
  80f808:	e13fff15 	stw	r4,-4(fp)
	unsigned int ctrl_reg;
	ctrl_reg = IORD_ALT_UP_AUDIO_CONTROL(audio->base); 
  80f80c:	e0bfff17 	ldw	r2,-4(fp)
  80f810:	10800a17 	ldw	r2,40(r2)
  80f814:	10800037 	ldwio	r2,0(r2)
  80f818:	e0bffe15 	stw	r2,-8(fp)
	// set RE to 1 while maintaining other bits the same
	ctrl_reg |= ALT_UP_AUDIO_CONTROL_RE_MSK;
  80f81c:	e0bffe17 	ldw	r2,-8(fp)
  80f820:	10800054 	ori	r2,r2,1
  80f824:	e0bffe15 	stw	r2,-8(fp)
	IOWR_ALT_UP_AUDIO_CONTROL(audio->base, ctrl_reg);
  80f828:	e0bfff17 	ldw	r2,-4(fp)
  80f82c:	10800a17 	ldw	r2,40(r2)
  80f830:	1007883a 	mov	r3,r2
  80f834:	e0bffe17 	ldw	r2,-8(fp)
  80f838:	18800035 	stwio	r2,0(r3)
}
  80f83c:	e037883a 	mov	sp,fp
  80f840:	df000017 	ldw	fp,0(sp)
  80f844:	dec00104 	addi	sp,sp,4
  80f848:	f800283a 	ret

0080f84c <alt_up_audio_disable_read_interrupt>:

void alt_up_audio_disable_read_interrupt(alt_up_audio_dev *audio)
{
  80f84c:	defffd04 	addi	sp,sp,-12
  80f850:	df000215 	stw	fp,8(sp)
  80f854:	df000204 	addi	fp,sp,8
  80f858:	e13fff15 	stw	r4,-4(fp)
	unsigned int ctrl_reg;
	ctrl_reg = IORD_ALT_UP_AUDIO_CONTROL(audio->base); 
  80f85c:	e0bfff17 	ldw	r2,-4(fp)
  80f860:	10800a17 	ldw	r2,40(r2)
  80f864:	10800037 	ldwio	r2,0(r2)
  80f868:	e0bffe15 	stw	r2,-8(fp)
	// set RE to 0 while maintaining other bits the same
	ctrl_reg &= ~ALT_UP_AUDIO_CONTROL_RE_MSK;
  80f86c:	e0fffe17 	ldw	r3,-8(fp)
  80f870:	00bfff84 	movi	r2,-2
  80f874:	1884703a 	and	r2,r3,r2
  80f878:	e0bffe15 	stw	r2,-8(fp)
	IOWR_ALT_UP_AUDIO_CONTROL(audio->base, ctrl_reg);
  80f87c:	e0bfff17 	ldw	r2,-4(fp)
  80f880:	10800a17 	ldw	r2,40(r2)
  80f884:	1007883a 	mov	r3,r2
  80f888:	e0bffe17 	ldw	r2,-8(fp)
  80f88c:	18800035 	stwio	r2,0(r3)
}
  80f890:	e037883a 	mov	sp,fp
  80f894:	df000017 	ldw	fp,0(sp)
  80f898:	dec00104 	addi	sp,sp,4
  80f89c:	f800283a 	ret

0080f8a0 <alt_up_audio_enable_write_interrupt>:

void alt_up_audio_enable_write_interrupt(alt_up_audio_dev *audio)
{
  80f8a0:	defffd04 	addi	sp,sp,-12
  80f8a4:	df000215 	stw	fp,8(sp)
  80f8a8:	df000204 	addi	fp,sp,8
  80f8ac:	e13fff15 	stw	r4,-4(fp)
	unsigned int ctrl_reg;
	ctrl_reg = IORD_ALT_UP_AUDIO_CONTROL(audio->base); 
  80f8b0:	e0bfff17 	ldw	r2,-4(fp)
  80f8b4:	10800a17 	ldw	r2,40(r2)
  80f8b8:	10800037 	ldwio	r2,0(r2)
  80f8bc:	e0bffe15 	stw	r2,-8(fp)
	// set WE to 1 while maintaining other bits the same
	ctrl_reg |= ALT_UP_AUDIO_CONTROL_WE_MSK;
  80f8c0:	e0bffe17 	ldw	r2,-8(fp)
  80f8c4:	10800094 	ori	r2,r2,2
  80f8c8:	e0bffe15 	stw	r2,-8(fp)
	IOWR_ALT_UP_AUDIO_CONTROL(audio->base, ctrl_reg);
  80f8cc:	e0bfff17 	ldw	r2,-4(fp)
  80f8d0:	10800a17 	ldw	r2,40(r2)
  80f8d4:	1007883a 	mov	r3,r2
  80f8d8:	e0bffe17 	ldw	r2,-8(fp)
  80f8dc:	18800035 	stwio	r2,0(r3)
}
  80f8e0:	e037883a 	mov	sp,fp
  80f8e4:	df000017 	ldw	fp,0(sp)
  80f8e8:	dec00104 	addi	sp,sp,4
  80f8ec:	f800283a 	ret

0080f8f0 <alt_up_audio_disable_write_interrupt>:

void alt_up_audio_disable_write_interrupt(alt_up_audio_dev *audio)
{
  80f8f0:	defffd04 	addi	sp,sp,-12
  80f8f4:	df000215 	stw	fp,8(sp)
  80f8f8:	df000204 	addi	fp,sp,8
  80f8fc:	e13fff15 	stw	r4,-4(fp)
	unsigned int ctrl_reg;
	ctrl_reg = IORD_ALT_UP_AUDIO_CONTROL(audio->base); 
  80f900:	e0bfff17 	ldw	r2,-4(fp)
  80f904:	10800a17 	ldw	r2,40(r2)
  80f908:	10800037 	ldwio	r2,0(r2)
  80f90c:	e0bffe15 	stw	r2,-8(fp)
	// set WE to 0 while maintaining other bits the same
	ctrl_reg &= ~ALT_UP_AUDIO_CONTROL_WE_MSK;
  80f910:	e0fffe17 	ldw	r3,-8(fp)
  80f914:	00bfff44 	movi	r2,-3
  80f918:	1884703a 	and	r2,r3,r2
  80f91c:	e0bffe15 	stw	r2,-8(fp)
	IOWR_ALT_UP_AUDIO_CONTROL(audio->base, ctrl_reg);
  80f920:	e0bfff17 	ldw	r2,-4(fp)
  80f924:	10800a17 	ldw	r2,40(r2)
  80f928:	1007883a 	mov	r3,r2
  80f92c:	e0bffe17 	ldw	r2,-8(fp)
  80f930:	18800035 	stwio	r2,0(r3)
}
  80f934:	e037883a 	mov	sp,fp
  80f938:	df000017 	ldw	fp,0(sp)
  80f93c:	dec00104 	addi	sp,sp,4
  80f940:	f800283a 	ret

0080f944 <alt_up_audio_read_interrupt_pending>:

int alt_up_audio_read_interrupt_pending(alt_up_audio_dev *audio)
{
  80f944:	defffd04 	addi	sp,sp,-12
  80f948:	df000215 	stw	fp,8(sp)
  80f94c:	df000204 	addi	fp,sp,8
  80f950:	e13fff15 	stw	r4,-4(fp)
	unsigned int ctrl_reg;
	ctrl_reg = IORD_ALT_UP_AUDIO_CONTROL(audio->base); 
  80f954:	e0bfff17 	ldw	r2,-4(fp)
  80f958:	10800a17 	ldw	r2,40(r2)
  80f95c:	10800037 	ldwio	r2,0(r2)
  80f960:	e0bffe15 	stw	r2,-8(fp)
	// return 1 if RI is set to 1
	return ( (ctrl_reg & ALT_UP_AUDIO_CONTROL_RI_MSK) ? 1 : 0 );
  80f964:	e0bffe17 	ldw	r2,-8(fp)
  80f968:	1080400c 	andi	r2,r2,256
  80f96c:	1004c03a 	cmpne	r2,r2,zero
  80f970:	10803fcc 	andi	r2,r2,255
}
  80f974:	e037883a 	mov	sp,fp
  80f978:	df000017 	ldw	fp,0(sp)
  80f97c:	dec00104 	addi	sp,sp,4
  80f980:	f800283a 	ret

0080f984 <alt_up_audio_write_interrupt_pending>:

int alt_up_audio_write_interrupt_pending(alt_up_audio_dev *audio)
{
  80f984:	defffd04 	addi	sp,sp,-12
  80f988:	df000215 	stw	fp,8(sp)
  80f98c:	df000204 	addi	fp,sp,8
  80f990:	e13fff15 	stw	r4,-4(fp)
	unsigned int ctrl_reg;
	ctrl_reg = IORD_ALT_UP_AUDIO_CONTROL(audio->base); 
  80f994:	e0bfff17 	ldw	r2,-4(fp)
  80f998:	10800a17 	ldw	r2,40(r2)
  80f99c:	10800037 	ldwio	r2,0(r2)
  80f9a0:	e0bffe15 	stw	r2,-8(fp)
	// return the WI value
	return ( (ctrl_reg & ALT_UP_AUDIO_CONTROL_WI_MSK) ? 1 : 0 );
  80f9a4:	e0bffe17 	ldw	r2,-8(fp)
  80f9a8:	1080800c 	andi	r2,r2,512
  80f9ac:	1004c03a 	cmpne	r2,r2,zero
  80f9b0:	10803fcc 	andi	r2,r2,255
}
  80f9b4:	e037883a 	mov	sp,fp
  80f9b8:	df000017 	ldw	fp,0(sp)
  80f9bc:	dec00104 	addi	sp,sp,4
  80f9c0:	f800283a 	ret

0080f9c4 <alt_up_audio_reset_audio_core>:

void alt_up_audio_reset_audio_core(alt_up_audio_dev *audio)
{
  80f9c4:	defffd04 	addi	sp,sp,-12
  80f9c8:	df000215 	stw	fp,8(sp)
  80f9cc:	df000204 	addi	fp,sp,8
  80f9d0:	e13fff15 	stw	r4,-4(fp)
	unsigned int ctrl_reg;
	ctrl_reg = IORD_ALT_UP_AUDIO_CONTROL(audio->base); 
  80f9d4:	e0bfff17 	ldw	r2,-4(fp)
  80f9d8:	10800a17 	ldw	r2,40(r2)
  80f9dc:	10800037 	ldwio	r2,0(r2)
  80f9e0:	e0bffe15 	stw	r2,-8(fp)
	// set CR and CW to 1 while maintaining other bits the same
	ctrl_reg |= ALT_UP_AUDIO_CONTROL_CR_MSK;
  80f9e4:	e0bffe17 	ldw	r2,-8(fp)
  80f9e8:	10800114 	ori	r2,r2,4
  80f9ec:	e0bffe15 	stw	r2,-8(fp)
	ctrl_reg |= ALT_UP_AUDIO_CONTROL_CW_MSK;
  80f9f0:	e0bffe17 	ldw	r2,-8(fp)
  80f9f4:	10800214 	ori	r2,r2,8
  80f9f8:	e0bffe15 	stw	r2,-8(fp)
	IOWR_ALT_UP_AUDIO_CONTROL(audio->base, ctrl_reg);
  80f9fc:	e0bfff17 	ldw	r2,-4(fp)
  80fa00:	10800a17 	ldw	r2,40(r2)
  80fa04:	1007883a 	mov	r3,r2
  80fa08:	e0bffe17 	ldw	r2,-8(fp)
  80fa0c:	18800035 	stwio	r2,0(r3)
	// set CR and CW to 0 while maintaining other bits the same
	ctrl_reg &= ~ALT_UP_AUDIO_CONTROL_CR_MSK;
  80fa10:	e0fffe17 	ldw	r3,-8(fp)
  80fa14:	00bffec4 	movi	r2,-5
  80fa18:	1884703a 	and	r2,r3,r2
  80fa1c:	e0bffe15 	stw	r2,-8(fp)
	ctrl_reg &= ~ALT_UP_AUDIO_CONTROL_CW_MSK;
  80fa20:	e0fffe17 	ldw	r3,-8(fp)
  80fa24:	00bffdc4 	movi	r2,-9
  80fa28:	1884703a 	and	r2,r3,r2
  80fa2c:	e0bffe15 	stw	r2,-8(fp)
	IOWR_ALT_UP_AUDIO_CONTROL(audio->base, ctrl_reg);
  80fa30:	e0bfff17 	ldw	r2,-4(fp)
  80fa34:	10800a17 	ldw	r2,40(r2)
  80fa38:	1007883a 	mov	r3,r2
  80fa3c:	e0bffe17 	ldw	r2,-8(fp)
  80fa40:	18800035 	stwio	r2,0(r3)
}
  80fa44:	e037883a 	mov	sp,fp
  80fa48:	df000017 	ldw	fp,0(sp)
  80fa4c:	dec00104 	addi	sp,sp,4
  80fa50:	f800283a 	ret

0080fa54 <alt_up_audio_read_fifo_avail>:

/* Provides number of words of data available in the incoming FIFO: RALC or RARC */
unsigned int alt_up_audio_read_fifo_avail(alt_up_audio_dev *audio, int channel)
{
  80fa54:	defffc04 	addi	sp,sp,-16
  80fa58:	df000315 	stw	fp,12(sp)
  80fa5c:	df000304 	addi	fp,sp,12
  80fa60:	e13ffe15 	stw	r4,-8(fp)
  80fa64:	e17fff15 	stw	r5,-4(fp)
	unsigned int fifospace;
	// read the whole fifospace register
	fifospace = IORD_ALT_UP_AUDIO_FIFOSPACE(audio->base);
  80fa68:	e0bffe17 	ldw	r2,-8(fp)
  80fa6c:	10800a17 	ldw	r2,40(r2)
  80fa70:	10800104 	addi	r2,r2,4
  80fa74:	10800037 	ldwio	r2,0(r2)
  80fa78:	e0bffd15 	stw	r2,-12(fp)
	// extract the part for proper Channel Read Space
	fifospace = (channel == ALT_UP_AUDIO_LEFT) ? 
		(fifospace & ALT_UP_AUDIO_FIFOSPACE_RALC_MSK) >> ALT_UP_AUDIO_FIFOSPACE_RALC_OFST :
  80fa7c:	e0bfff17 	ldw	r2,-4(fp)
  80fa80:	1000041e 	bne	r2,zero,80fa94 <alt_up_audio_read_fifo_avail+0x40>
  80fa84:	e0bffd17 	ldw	r2,-12(fp)
  80fa88:	10bfc00c 	andi	r2,r2,65280
  80fa8c:	1004d23a 	srli	r2,r2,8
  80fa90:	00000206 	br	80fa9c <alt_up_audio_read_fifo_avail+0x48>
  80fa94:	e0bffd17 	ldw	r2,-12(fp)
  80fa98:	10803fcc 	andi	r2,r2,255
{
	unsigned int fifospace;
	// read the whole fifospace register
	fifospace = IORD_ALT_UP_AUDIO_FIFOSPACE(audio->base);
	// extract the part for proper Channel Read Space
	fifospace = (channel == ALT_UP_AUDIO_LEFT) ? 
  80fa9c:	e0bffd15 	stw	r2,-12(fp)
		(fifospace & ALT_UP_AUDIO_FIFOSPACE_RALC_MSK) >> ALT_UP_AUDIO_FIFOSPACE_RALC_OFST :
		(fifospace & ALT_UP_AUDIO_FIFOSPACE_RARC_MSK) >> ALT_UP_AUDIO_FIFOSPACE_RARC_OFST;
	return (fifospace);
  80faa0:	e0bffd17 	ldw	r2,-12(fp)
}
  80faa4:	e037883a 	mov	sp,fp
  80faa8:	df000017 	ldw	fp,0(sp)
  80faac:	dec00104 	addi	sp,sp,4
  80fab0:	f800283a 	ret

0080fab4 <alt_up_audio_record_r>:
/* Checks if the read FIFO for the right channel has at least BUF_THRESHOLD data words 
 * available. If it doesn't, then just returns 0. If it does, then data is read from the
 * FIFO up to a maximum of len words, and stored into buf.
 */
unsigned int alt_up_audio_record_r(alt_up_audio_dev *audio, unsigned int *buf, int len)
{
  80fab4:	defffa04 	addi	sp,sp,-24
  80fab8:	dfc00515 	stw	ra,20(sp)
  80fabc:	df000415 	stw	fp,16(sp)
  80fac0:	df000404 	addi	fp,sp,16
  80fac4:	e13ffd15 	stw	r4,-12(fp)
  80fac8:	e17ffe15 	stw	r5,-8(fp)
  80facc:	e1bfff15 	stw	r6,-4(fp)
	unsigned int data_words = alt_up_audio_read_fifo_avail (audio, ALT_UP_AUDIO_RIGHT);
  80fad0:	e13ffd17 	ldw	r4,-12(fp)
  80fad4:	01400044 	movi	r5,1
  80fad8:	080fa540 	call	80fa54 <alt_up_audio_read_fifo_avail>
  80fadc:	e0bffc15 	stw	r2,-16(fp)
	if (data_words <= BUF_THRESHOLD)
  80fae0:	e0bffc17 	ldw	r2,-16(fp)
  80fae4:	10801868 	cmpgeui	r2,r2,97
  80fae8:	1000021e 	bne	r2,zero,80faf4 <alt_up_audio_record_r+0x40>
		return 0;
  80faec:	0005883a 	mov	r2,zero
  80faf0:	00000506 	br	80fb08 <alt_up_audio_record_r+0x54>
	else
		return (alt_up_audio_read_fifo(audio, buf, len, ALT_UP_AUDIO_RIGHT));
  80faf4:	e13ffd17 	ldw	r4,-12(fp)
  80faf8:	e17ffe17 	ldw	r5,-8(fp)
  80fafc:	e1bfff17 	ldw	r6,-4(fp)
  80fb00:	01c00044 	movi	r7,1
  80fb04:	080fcb40 	call	80fcb4 <alt_up_audio_read_fifo>
}
  80fb08:	e037883a 	mov	sp,fp
  80fb0c:	dfc00117 	ldw	ra,4(sp)
  80fb10:	df000017 	ldw	fp,0(sp)
  80fb14:	dec00204 	addi	sp,sp,8
  80fb18:	f800283a 	ret

0080fb1c <alt_up_audio_record_l>:
/* Checks if the read FIFO for the left channel has at least BUF_THRESHOLD data words 
 * available. If it doesn't, then just returns 0. If it does, then data is read from the
 * FIFO up to a maximum of len words, and stored into buf.
 */
unsigned int alt_up_audio_record_l(alt_up_audio_dev *audio, unsigned int *buf, int len)
{
  80fb1c:	defffa04 	addi	sp,sp,-24
  80fb20:	dfc00515 	stw	ra,20(sp)
  80fb24:	df000415 	stw	fp,16(sp)
  80fb28:	df000404 	addi	fp,sp,16
  80fb2c:	e13ffd15 	stw	r4,-12(fp)
  80fb30:	e17ffe15 	stw	r5,-8(fp)
  80fb34:	e1bfff15 	stw	r6,-4(fp)
	unsigned int data_words = alt_up_audio_read_fifo_avail (audio, ALT_UP_AUDIO_LEFT);
  80fb38:	e13ffd17 	ldw	r4,-12(fp)
  80fb3c:	000b883a 	mov	r5,zero
  80fb40:	080fa540 	call	80fa54 <alt_up_audio_read_fifo_avail>
  80fb44:	e0bffc15 	stw	r2,-16(fp)
	if (data_words <= BUF_THRESHOLD)
  80fb48:	e0bffc17 	ldw	r2,-16(fp)
  80fb4c:	10801868 	cmpgeui	r2,r2,97
  80fb50:	1000021e 	bne	r2,zero,80fb5c <alt_up_audio_record_l+0x40>
		return 0;
  80fb54:	0005883a 	mov	r2,zero
  80fb58:	00000506 	br	80fb70 <alt_up_audio_record_l+0x54>
	else
		return (alt_up_audio_read_fifo(audio, buf, len, ALT_UP_AUDIO_LEFT));
  80fb5c:	e13ffd17 	ldw	r4,-12(fp)
  80fb60:	e17ffe17 	ldw	r5,-8(fp)
  80fb64:	e1bfff17 	ldw	r6,-4(fp)
  80fb68:	000f883a 	mov	r7,zero
  80fb6c:	080fcb40 	call	80fcb4 <alt_up_audio_read_fifo>
}
  80fb70:	e037883a 	mov	sp,fp
  80fb74:	dfc00117 	ldw	ra,4(sp)
  80fb78:	df000017 	ldw	fp,0(sp)
  80fb7c:	dec00204 	addi	sp,sp,8
  80fb80:	f800283a 	ret

0080fb84 <alt_up_audio_write_fifo_space>:

/* Provides the amount of empty space available in the outgoing FIFO: WSLC or WSRC */
unsigned int alt_up_audio_write_fifo_space(alt_up_audio_dev *audio, int channel)
{
  80fb84:	defffc04 	addi	sp,sp,-16
  80fb88:	df000315 	stw	fp,12(sp)
  80fb8c:	df000304 	addi	fp,sp,12
  80fb90:	e13ffe15 	stw	r4,-8(fp)
  80fb94:	e17fff15 	stw	r5,-4(fp)
	unsigned int fifospace;
	// read the whole fifospace register
	fifospace = IORD_ALT_UP_AUDIO_FIFOSPACE(audio->base);
  80fb98:	e0bffe17 	ldw	r2,-8(fp)
  80fb9c:	10800a17 	ldw	r2,40(r2)
  80fba0:	10800104 	addi	r2,r2,4
  80fba4:	10800037 	ldwio	r2,0(r2)
  80fba8:	e0bffd15 	stw	r2,-12(fp)
	// extract the part for proper Channel Read Space
	fifospace = (channel == ALT_UP_AUDIO_LEFT) ? 
		(fifospace & ALT_UP_AUDIO_FIFOSPACE_WSLC_MSK) >> ALT_UP_AUDIO_FIFOSPACE_WSLC_OFST :
  80fbac:	e0bfff17 	ldw	r2,-4(fp)
  80fbb0:	1000031e 	bne	r2,zero,80fbc0 <alt_up_audio_write_fifo_space+0x3c>
  80fbb4:	e0bffd17 	ldw	r2,-12(fp)
  80fbb8:	1004d63a 	srli	r2,r2,24
  80fbbc:	00000306 	br	80fbcc <alt_up_audio_write_fifo_space+0x48>
		(fifospace & ALT_UP_AUDIO_FIFOSPACE_WSRC_MSK) >> ALT_UP_AUDIO_FIFOSPACE_WSRC_OFST;
  80fbc0:	e0bffd17 	ldw	r2,-12(fp)
  80fbc4:	10803fec 	andhi	r2,r2,255
	unsigned int fifospace;
	// read the whole fifospace register
	fifospace = IORD_ALT_UP_AUDIO_FIFOSPACE(audio->base);
	// extract the part for proper Channel Read Space
	fifospace = (channel == ALT_UP_AUDIO_LEFT) ? 
		(fifospace & ALT_UP_AUDIO_FIFOSPACE_WSLC_MSK) >> ALT_UP_AUDIO_FIFOSPACE_WSLC_OFST :
  80fbc8:	1004d43a 	srli	r2,r2,16
{
	unsigned int fifospace;
	// read the whole fifospace register
	fifospace = IORD_ALT_UP_AUDIO_FIFOSPACE(audio->base);
	// extract the part for proper Channel Read Space
	fifospace = (channel == ALT_UP_AUDIO_LEFT) ? 
  80fbcc:	e0bffd15 	stw	r2,-12(fp)
		(fifospace & ALT_UP_AUDIO_FIFOSPACE_WSLC_MSK) >> ALT_UP_AUDIO_FIFOSPACE_WSLC_OFST :
		(fifospace & ALT_UP_AUDIO_FIFOSPACE_WSRC_MSK) >> ALT_UP_AUDIO_FIFOSPACE_WSRC_OFST;
	return (fifospace);
  80fbd0:	e0bffd17 	ldw	r2,-12(fp)
}
  80fbd4:	e037883a 	mov	sp,fp
  80fbd8:	df000017 	ldw	fp,0(sp)
  80fbdc:	dec00104 	addi	sp,sp,4
  80fbe0:	f800283a 	ret

0080fbe4 <alt_up_audio_play_r>:
/* Checks if the write FIFO for the right channel has at least BUF_THRESHOLD space available.
 * If it doesn't, then just returns 0. If it does, then data from buf is written into the 
 * FIFO, up to a maximum of len words.
 */
unsigned int alt_up_audio_play_r(alt_up_audio_dev *audio, unsigned int *buf, int len)
{
  80fbe4:	defffa04 	addi	sp,sp,-24
  80fbe8:	dfc00515 	stw	ra,20(sp)
  80fbec:	df000415 	stw	fp,16(sp)
  80fbf0:	df000404 	addi	fp,sp,16
  80fbf4:	e13ffd15 	stw	r4,-12(fp)
  80fbf8:	e17ffe15 	stw	r5,-8(fp)
  80fbfc:	e1bfff15 	stw	r6,-4(fp)
	unsigned int space = alt_up_audio_write_fifo_space (audio, ALT_UP_AUDIO_RIGHT);
  80fc00:	e13ffd17 	ldw	r4,-12(fp)
  80fc04:	01400044 	movi	r5,1
  80fc08:	080fb840 	call	80fb84 <alt_up_audio_write_fifo_space>
  80fc0c:	e0bffc15 	stw	r2,-16(fp)
	if (space <= BUF_THRESHOLD)
  80fc10:	e0bffc17 	ldw	r2,-16(fp)
  80fc14:	10801868 	cmpgeui	r2,r2,97
  80fc18:	1000021e 	bne	r2,zero,80fc24 <alt_up_audio_play_r+0x40>
		return 0;
  80fc1c:	0005883a 	mov	r2,zero
  80fc20:	00000506 	br	80fc38 <alt_up_audio_play_r+0x54>
	else
		return (alt_up_audio_write_fifo(audio, buf, len, ALT_UP_AUDIO_RIGHT));
  80fc24:	e13ffd17 	ldw	r4,-12(fp)
  80fc28:	e17ffe17 	ldw	r5,-8(fp)
  80fc2c:	e1bfff17 	ldw	r6,-4(fp)
  80fc30:	01c00044 	movi	r7,1
  80fc34:	080fd940 	call	80fd94 <alt_up_audio_write_fifo>
}
  80fc38:	e037883a 	mov	sp,fp
  80fc3c:	dfc00117 	ldw	ra,4(sp)
  80fc40:	df000017 	ldw	fp,0(sp)
  80fc44:	dec00204 	addi	sp,sp,8
  80fc48:	f800283a 	ret

0080fc4c <alt_up_audio_play_l>:
/* Checks if the write FIFO for the left channel has at least BUF_THRESHOLD space available.
 * If it doesn't, then just returns 0. If it does, then data from buf is written into the 
 * FIFO, up to a maximum of len words.
 */
unsigned int alt_up_audio_play_l(alt_up_audio_dev *audio, unsigned int *buf, int len)
{
  80fc4c:	defffa04 	addi	sp,sp,-24
  80fc50:	dfc00515 	stw	ra,20(sp)
  80fc54:	df000415 	stw	fp,16(sp)
  80fc58:	df000404 	addi	fp,sp,16
  80fc5c:	e13ffd15 	stw	r4,-12(fp)
  80fc60:	e17ffe15 	stw	r5,-8(fp)
  80fc64:	e1bfff15 	stw	r6,-4(fp)
	unsigned int space = alt_up_audio_write_fifo_space (audio, ALT_UP_AUDIO_LEFT);
  80fc68:	e13ffd17 	ldw	r4,-12(fp)
  80fc6c:	000b883a 	mov	r5,zero
  80fc70:	080fb840 	call	80fb84 <alt_up_audio_write_fifo_space>
  80fc74:	e0bffc15 	stw	r2,-16(fp)
	if (space <= BUF_THRESHOLD)
  80fc78:	e0bffc17 	ldw	r2,-16(fp)
  80fc7c:	10801868 	cmpgeui	r2,r2,97
  80fc80:	1000021e 	bne	r2,zero,80fc8c <alt_up_audio_play_l+0x40>
		return 0;
  80fc84:	0005883a 	mov	r2,zero
  80fc88:	00000506 	br	80fca0 <alt_up_audio_play_l+0x54>
	else
		return (alt_up_audio_write_fifo(audio, buf, len, ALT_UP_AUDIO_LEFT));
  80fc8c:	e13ffd17 	ldw	r4,-12(fp)
  80fc90:	e17ffe17 	ldw	r5,-8(fp)
  80fc94:	e1bfff17 	ldw	r6,-4(fp)
  80fc98:	000f883a 	mov	r7,zero
  80fc9c:	080fd940 	call	80fd94 <alt_up_audio_write_fifo>
}
  80fca0:	e037883a 	mov	sp,fp
  80fca4:	dfc00117 	ldw	ra,4(sp)
  80fca8:	df000017 	ldw	fp,0(sp)
  80fcac:	dec00204 	addi	sp,sp,8
  80fcb0:	f800283a 	ret

0080fcb4 <alt_up_audio_read_fifo>:

int alt_up_audio_read_fifo(alt_up_audio_dev *audio, unsigned int *buf, int len, int channel)
{
  80fcb4:	defff904 	addi	sp,sp,-28
  80fcb8:	df000615 	stw	fp,24(sp)
  80fcbc:	df000604 	addi	fp,sp,24
  80fcc0:	e13ffc15 	stw	r4,-16(fp)
  80fcc4:	e17ffd15 	stw	r5,-12(fp)
  80fcc8:	e1bffe15 	stw	r6,-8(fp)
  80fccc:	e1ffff15 	stw	r7,-4(fp)
	unsigned int fifospace;
	int count = 0;
  80fcd0:	e03ffa15 	stw	zero,-24(fp)
	while ( count < len ) 
  80fcd4:	00002706 	br	80fd74 <alt_up_audio_read_fifo+0xc0>
	{
		// read the whole fifospace register
		fifospace = IORD_ALT_UP_AUDIO_FIFOSPACE(audio->base);
  80fcd8:	e0bffc17 	ldw	r2,-16(fp)
  80fcdc:	10800a17 	ldw	r2,40(r2)
  80fce0:	10800104 	addi	r2,r2,4
  80fce4:	10800037 	ldwio	r2,0(r2)
  80fce8:	e0bffb15 	stw	r2,-20(fp)
		// extract the part for proper Channel Read Space
		fifospace = (channel == ALT_UP_AUDIO_LEFT) ? 
			(fifospace & ALT_UP_AUDIO_FIFOSPACE_RALC_MSK) >> ALT_UP_AUDIO_FIFOSPACE_RALC_OFST 
			:
  80fcec:	e0bfff17 	ldw	r2,-4(fp)
  80fcf0:	1000041e 	bne	r2,zero,80fd04 <alt_up_audio_read_fifo+0x50>
	{
		// read the whole fifospace register
		fifospace = IORD_ALT_UP_AUDIO_FIFOSPACE(audio->base);
		// extract the part for proper Channel Read Space
		fifospace = (channel == ALT_UP_AUDIO_LEFT) ? 
			(fifospace & ALT_UP_AUDIO_FIFOSPACE_RALC_MSK) >> ALT_UP_AUDIO_FIFOSPACE_RALC_OFST 
  80fcf4:	e0bffb17 	ldw	r2,-20(fp)
  80fcf8:	10bfc00c 	andi	r2,r2,65280
			:
  80fcfc:	1004d23a 	srli	r2,r2,8
  80fd00:	00000206 	br	80fd0c <alt_up_audio_read_fifo+0x58>
  80fd04:	e0bffb17 	ldw	r2,-20(fp)
  80fd08:	10803fcc 	andi	r2,r2,255
	while ( count < len ) 
	{
		// read the whole fifospace register
		fifospace = IORD_ALT_UP_AUDIO_FIFOSPACE(audio->base);
		// extract the part for proper Channel Read Space
		fifospace = (channel == ALT_UP_AUDIO_LEFT) ? 
  80fd0c:	e0bffb15 	stw	r2,-20(fp)
			(fifospace & ALT_UP_AUDIO_FIFOSPACE_RALC_MSK) >> ALT_UP_AUDIO_FIFOSPACE_RALC_OFST 
			:
			(fifospace & ALT_UP_AUDIO_FIFOSPACE_RARC_MSK) >> ALT_UP_AUDIO_FIFOSPACE_RARC_OFST;
		if (fifospace > 0) 
  80fd10:	e0bffb17 	ldw	r2,-20(fp)
  80fd14:	10001626 	beq	r2,zero,80fd70 <alt_up_audio_read_fifo+0xbc>
		{
			buf[count] = (channel == ALT_UP_AUDIO_LEFT) ? 
  80fd18:	e0bffa17 	ldw	r2,-24(fp)
  80fd1c:	1085883a 	add	r2,r2,r2
  80fd20:	1085883a 	add	r2,r2,r2
  80fd24:	1007883a 	mov	r3,r2
  80fd28:	e0bffd17 	ldw	r2,-12(fp)
  80fd2c:	10c5883a 	add	r2,r2,r3
  80fd30:	e0ffff17 	ldw	r3,-4(fp)
  80fd34:	1800051e 	bne	r3,zero,80fd4c <alt_up_audio_read_fifo+0x98>
				IORD_ALT_UP_AUDIO_LEFTDATA(audio->base) :
  80fd38:	e0fffc17 	ldw	r3,-16(fp)
  80fd3c:	18c00a17 	ldw	r3,40(r3)
  80fd40:	18c00204 	addi	r3,r3,8
  80fd44:	18c00037 	ldwio	r3,0(r3)
  80fd48:	00000406 	br	80fd5c <alt_up_audio_read_fifo+0xa8>
				IORD_ALT_UP_AUDIO_RIGHTDATA(audio->base);
  80fd4c:	e0fffc17 	ldw	r3,-16(fp)
  80fd50:	18c00a17 	ldw	r3,40(r3)
  80fd54:	18c00304 	addi	r3,r3,12
  80fd58:	18c00037 	ldwio	r3,0(r3)
			(fifospace & ALT_UP_AUDIO_FIFOSPACE_RALC_MSK) >> ALT_UP_AUDIO_FIFOSPACE_RALC_OFST 
			:
			(fifospace & ALT_UP_AUDIO_FIFOSPACE_RARC_MSK) >> ALT_UP_AUDIO_FIFOSPACE_RARC_OFST;
		if (fifospace > 0) 
		{
			buf[count] = (channel == ALT_UP_AUDIO_LEFT) ? 
  80fd5c:	10c00015 	stw	r3,0(r2)
				IORD_ALT_UP_AUDIO_LEFTDATA(audio->base) :
				IORD_ALT_UP_AUDIO_RIGHTDATA(audio->base);
			count ++;
  80fd60:	e0bffa17 	ldw	r2,-24(fp)
  80fd64:	10800044 	addi	r2,r2,1
  80fd68:	e0bffa15 	stw	r2,-24(fp)
  80fd6c:	00000106 	br	80fd74 <alt_up_audio_read_fifo+0xc0>
		}
		else
		{
			// no more data to read
			break;
  80fd70:	00000306 	br	80fd80 <alt_up_audio_read_fifo+0xcc>

int alt_up_audio_read_fifo(alt_up_audio_dev *audio, unsigned int *buf, int len, int channel)
{
	unsigned int fifospace;
	int count = 0;
	while ( count < len ) 
  80fd74:	e0fffa17 	ldw	r3,-24(fp)
  80fd78:	e0bffe17 	ldw	r2,-8(fp)
  80fd7c:	18bfd616 	blt	r3,r2,80fcd8 <__alt_data_end+0xff80fcd8>
		{
			// no more data to read
			break;
		}
	}
	return count;
  80fd80:	e0bffa17 	ldw	r2,-24(fp)
}
  80fd84:	e037883a 	mov	sp,fp
  80fd88:	df000017 	ldw	fp,0(sp)
  80fd8c:	dec00104 	addi	sp,sp,4
  80fd90:	f800283a 	ret

0080fd94 <alt_up_audio_write_fifo>:

int alt_up_audio_write_fifo(alt_up_audio_dev *audio, unsigned int *buf, int len, int channel)
{
  80fd94:	defff904 	addi	sp,sp,-28
  80fd98:	df000615 	stw	fp,24(sp)
  80fd9c:	df000604 	addi	fp,sp,24
  80fda0:	e13ffc15 	stw	r4,-16(fp)
  80fda4:	e17ffd15 	stw	r5,-12(fp)
  80fda8:	e1bffe15 	stw	r6,-8(fp)
  80fdac:	e1ffff15 	stw	r7,-4(fp)
	unsigned int fifospace;
	int count = 0;
  80fdb0:	e03ffa15 	stw	zero,-24(fp)
	while ( count < len ) 
  80fdb4:	00003106 	br	80fe7c <alt_up_audio_write_fifo+0xe8>
	{
		// read the whole fifospace register
		fifospace = IORD_ALT_UP_AUDIO_FIFOSPACE(audio->base);
  80fdb8:	e0bffc17 	ldw	r2,-16(fp)
  80fdbc:	10800a17 	ldw	r2,40(r2)
  80fdc0:	10800104 	addi	r2,r2,4
  80fdc4:	10800037 	ldwio	r2,0(r2)
  80fdc8:	e0bffb15 	stw	r2,-20(fp)
		// extract the part for Left Channel Write Space 
		fifospace = (channel == ALT_UP_AUDIO_LEFT) ? 
			(fifospace & ALT_UP_AUDIO_FIFOSPACE_WSLC_MSK) >> ALT_UP_AUDIO_FIFOSPACE_WSLC_OFST :
  80fdcc:	e0bfff17 	ldw	r2,-4(fp)
  80fdd0:	1000031e 	bne	r2,zero,80fde0 <alt_up_audio_write_fifo+0x4c>
  80fdd4:	e0bffb17 	ldw	r2,-20(fp)
  80fdd8:	1004d63a 	srli	r2,r2,24
  80fddc:	00000306 	br	80fdec <alt_up_audio_write_fifo+0x58>
			(fifospace & ALT_UP_AUDIO_FIFOSPACE_WSRC_MSK) >> ALT_UP_AUDIO_FIFOSPACE_WSRC_OFST;
  80fde0:	e0bffb17 	ldw	r2,-20(fp)
  80fde4:	10803fec 	andhi	r2,r2,255
	{
		// read the whole fifospace register
		fifospace = IORD_ALT_UP_AUDIO_FIFOSPACE(audio->base);
		// extract the part for Left Channel Write Space 
		fifospace = (channel == ALT_UP_AUDIO_LEFT) ? 
			(fifospace & ALT_UP_AUDIO_FIFOSPACE_WSLC_MSK) >> ALT_UP_AUDIO_FIFOSPACE_WSLC_OFST :
  80fde8:	1004d43a 	srli	r2,r2,16
	while ( count < len ) 
	{
		// read the whole fifospace register
		fifospace = IORD_ALT_UP_AUDIO_FIFOSPACE(audio->base);
		// extract the part for Left Channel Write Space 
		fifospace = (channel == ALT_UP_AUDIO_LEFT) ? 
  80fdec:	e0bffb15 	stw	r2,-20(fp)
			(fifospace & ALT_UP_AUDIO_FIFOSPACE_WSLC_MSK) >> ALT_UP_AUDIO_FIFOSPACE_WSLC_OFST :
			(fifospace & ALT_UP_AUDIO_FIFOSPACE_WSRC_MSK) >> ALT_UP_AUDIO_FIFOSPACE_WSRC_OFST;
		if (fifospace > 0) 
  80fdf0:	e0bffb17 	ldw	r2,-20(fp)
  80fdf4:	10002026 	beq	r2,zero,80fe78 <alt_up_audio_write_fifo+0xe4>
		{
			if (channel == ALT_UP_AUDIO_LEFT) 
  80fdf8:	e0bfff17 	ldw	r2,-4(fp)
  80fdfc:	10000f1e 	bne	r2,zero,80fe3c <alt_up_audio_write_fifo+0xa8>
				IOWR_ALT_UP_AUDIO_LEFTDATA(audio->base, buf[count++]);
  80fe00:	e0bffc17 	ldw	r2,-16(fp)
  80fe04:	10800a17 	ldw	r2,40(r2)
  80fe08:	10800204 	addi	r2,r2,8
  80fe0c:	1009883a 	mov	r4,r2
  80fe10:	e0bffa17 	ldw	r2,-24(fp)
  80fe14:	10c00044 	addi	r3,r2,1
  80fe18:	e0fffa15 	stw	r3,-24(fp)
  80fe1c:	1085883a 	add	r2,r2,r2
  80fe20:	1085883a 	add	r2,r2,r2
  80fe24:	1007883a 	mov	r3,r2
  80fe28:	e0bffd17 	ldw	r2,-12(fp)
  80fe2c:	10c5883a 	add	r2,r2,r3
  80fe30:	10800017 	ldw	r2,0(r2)
  80fe34:	20800035 	stwio	r2,0(r4)
  80fe38:	00001006 	br	80fe7c <alt_up_audio_write_fifo+0xe8>
			else
				IOWR_ALT_UP_AUDIO_RIGHTDATA(audio->base, buf[count++]);
  80fe3c:	e0bffc17 	ldw	r2,-16(fp)
  80fe40:	10800a17 	ldw	r2,40(r2)
  80fe44:	10800304 	addi	r2,r2,12
  80fe48:	1009883a 	mov	r4,r2
  80fe4c:	e0bffa17 	ldw	r2,-24(fp)
  80fe50:	10c00044 	addi	r3,r2,1
  80fe54:	e0fffa15 	stw	r3,-24(fp)
  80fe58:	1085883a 	add	r2,r2,r2
  80fe5c:	1085883a 	add	r2,r2,r2
  80fe60:	1007883a 	mov	r3,r2
  80fe64:	e0bffd17 	ldw	r2,-12(fp)
  80fe68:	10c5883a 	add	r2,r2,r3
  80fe6c:	10800017 	ldw	r2,0(r2)
  80fe70:	20800035 	stwio	r2,0(r4)
  80fe74:	00000106 	br	80fe7c <alt_up_audio_write_fifo+0xe8>
		}
		else
		{
			// no more space to write
			break;
  80fe78:	00000306 	br	80fe88 <alt_up_audio_write_fifo+0xf4>

int alt_up_audio_write_fifo(alt_up_audio_dev *audio, unsigned int *buf, int len, int channel)
{
	unsigned int fifospace;
	int count = 0;
	while ( count < len ) 
  80fe7c:	e0fffa17 	ldw	r3,-24(fp)
  80fe80:	e0bffe17 	ldw	r2,-8(fp)
  80fe84:	18bfcc16 	blt	r3,r2,80fdb8 <__alt_data_end+0xff80fdb8>
		{
			// no more space to write
			break;
		}
	}
	return count;
  80fe88:	e0bffa17 	ldw	r2,-24(fp)
}
  80fe8c:	e037883a 	mov	sp,fp
  80fe90:	df000017 	ldw	fp,0(sp)
  80fe94:	dec00104 	addi	sp,sp,4
  80fe98:	f800283a 	ret

0080fe9c <alt_up_audio_read_fifo_head>:

unsigned int alt_up_audio_read_fifo_head(alt_up_audio_dev *audio, int channel)
{
  80fe9c:	defffd04 	addi	sp,sp,-12
  80fea0:	df000215 	stw	fp,8(sp)
  80fea4:	df000204 	addi	fp,sp,8
  80fea8:	e13ffe15 	stw	r4,-8(fp)
  80feac:	e17fff15 	stw	r5,-4(fp)
	return ( (channel == ALT_UP_AUDIO_LEFT) ?  IORD_ALT_UP_AUDIO_LEFTDATA(audio->base) :
  80feb0:	e0bfff17 	ldw	r2,-4(fp)
  80feb4:	1000051e 	bne	r2,zero,80fecc <alt_up_audio_read_fifo_head+0x30>
  80feb8:	e0bffe17 	ldw	r2,-8(fp)
  80febc:	10800a17 	ldw	r2,40(r2)
  80fec0:	10800204 	addi	r2,r2,8
  80fec4:	10800037 	ldwio	r2,0(r2)
  80fec8:	00000406 	br	80fedc <alt_up_audio_read_fifo_head+0x40>
				IORD_ALT_UP_AUDIO_RIGHTDATA(audio->base) );
  80fecc:	e0bffe17 	ldw	r2,-8(fp)
  80fed0:	10800a17 	ldw	r2,40(r2)
  80fed4:	10800304 	addi	r2,r2,12
  80fed8:	10800037 	ldwio	r2,0(r2)
}
  80fedc:	e037883a 	mov	sp,fp
  80fee0:	df000017 	ldw	fp,0(sp)
  80fee4:	dec00104 	addi	sp,sp,4
  80fee8:	f800283a 	ret

0080feec <alt_up_audio_write_fifo_head>:

void alt_up_audio_write_fifo_head(alt_up_audio_dev *audio, unsigned int data, int channel)
{
  80feec:	defffc04 	addi	sp,sp,-16
  80fef0:	df000315 	stw	fp,12(sp)
  80fef4:	df000304 	addi	fp,sp,12
  80fef8:	e13ffd15 	stw	r4,-12(fp)
  80fefc:	e17ffe15 	stw	r5,-8(fp)
  80ff00:	e1bfff15 	stw	r6,-4(fp)
	if (channel == ALT_UP_AUDIO_LEFT) 
  80ff04:	e0bfff17 	ldw	r2,-4(fp)
  80ff08:	1000071e 	bne	r2,zero,80ff28 <alt_up_audio_write_fifo_head+0x3c>
		IOWR_ALT_UP_AUDIO_LEFTDATA(audio->base, data);
  80ff0c:	e0bffd17 	ldw	r2,-12(fp)
  80ff10:	10800a17 	ldw	r2,40(r2)
  80ff14:	10800204 	addi	r2,r2,8
  80ff18:	1007883a 	mov	r3,r2
  80ff1c:	e0bffe17 	ldw	r2,-8(fp)
  80ff20:	18800035 	stwio	r2,0(r3)
  80ff24:	00000606 	br	80ff40 <alt_up_audio_write_fifo_head+0x54>
	else
		IOWR_ALT_UP_AUDIO_RIGHTDATA(audio->base, data);
  80ff28:	e0bffd17 	ldw	r2,-12(fp)
  80ff2c:	10800a17 	ldw	r2,40(r2)
  80ff30:	10800304 	addi	r2,r2,12
  80ff34:	1007883a 	mov	r3,r2
  80ff38:	e0bffe17 	ldw	r2,-8(fp)
  80ff3c:	18800035 	stwio	r2,0(r3)
}
  80ff40:	e037883a 	mov	sp,fp
  80ff44:	df000017 	ldw	fp,0(sp)
  80ff48:	dec00104 	addi	sp,sp,4
  80ff4c:	f800283a 	ret

0080ff50 <alt_dcache_flush_all>:
/*
 * alt_dcache_flush_all() is called to flush the entire data cache.
 */

void alt_dcache_flush_all (void)
{
  80ff50:	defffe04 	addi	sp,sp,-8
  80ff54:	df000115 	stw	fp,4(sp)
  80ff58:	df000104 	addi	fp,sp,4
#if NIOS2_DCACHE_SIZE > 0
  char* i;
  
  for (i = (char*) 0; i < (char*) NIOS2_DCACHE_SIZE; i+= NIOS2_DCACHE_LINE_SIZE)
  80ff5c:	e03fff15 	stw	zero,-4(fp)
  80ff60:	00000506 	br	80ff78 <alt_dcache_flush_all+0x28>
  { 
    __asm__ volatile ("flushd (%0)" :: "r" (i));
  80ff64:	e0bfff17 	ldw	r2,-4(fp)
  80ff68:	1000003b 	flushd	0(r2)
void alt_dcache_flush_all (void)
{
#if NIOS2_DCACHE_SIZE > 0
  char* i;
  
  for (i = (char*) 0; i < (char*) NIOS2_DCACHE_SIZE; i+= NIOS2_DCACHE_LINE_SIZE)
  80ff6c:	e0bfff17 	ldw	r2,-4(fp)
  80ff70:	10800804 	addi	r2,r2,32
  80ff74:	e0bfff15 	stw	r2,-4(fp)
  80ff78:	e0bfff17 	ldw	r2,-4(fp)
  80ff7c:	10820030 	cmpltui	r2,r2,2048
  80ff80:	103ff81e 	bne	r2,zero,80ff64 <__alt_data_end+0xff80ff64>
  { 
    __asm__ volatile ("flushd (%0)" :: "r" (i));
  }
#endif /* NIOS2_DCACHE_SIZE > 0 */
}
  80ff84:	e037883a 	mov	sp,fp
  80ff88:	df000017 	ldw	fp,0(sp)
  80ff8c:	dec00104 	addi	sp,sp,4
  80ff90:	f800283a 	ret

0080ff94 <alt_get_errno>:
#undef errno

extern int errno;

static ALT_INLINE int* alt_get_errno(void)
{
  80ff94:	defffe04 	addi	sp,sp,-8
  80ff98:	dfc00115 	stw	ra,4(sp)
  80ff9c:	df000015 	stw	fp,0(sp)
  80ffa0:	d839883a 	mov	fp,sp
  return ((alt_errno) ? alt_errno() : &errno);
  80ffa4:	00802074 	movhi	r2,129
  80ffa8:	108df404 	addi	r2,r2,14288
  80ffac:	10800017 	ldw	r2,0(r2)
  80ffb0:	10000526 	beq	r2,zero,80ffc8 <alt_get_errno+0x34>
  80ffb4:	00802074 	movhi	r2,129
  80ffb8:	108df404 	addi	r2,r2,14288
  80ffbc:	10800017 	ldw	r2,0(r2)
  80ffc0:	103ee83a 	callr	r2
  80ffc4:	00000206 	br	80ffd0 <alt_get_errno+0x3c>
  80ffc8:	00802074 	movhi	r2,129
  80ffcc:	10953804 	addi	r2,r2,21728
}
  80ffd0:	e037883a 	mov	sp,fp
  80ffd4:	dfc00117 	ldw	ra,4(sp)
  80ffd8:	df000017 	ldw	fp,0(sp)
  80ffdc:	dec00204 	addi	sp,sp,8
  80ffe0:	f800283a 	ret

0080ffe4 <alt_dev_llist_insert>:
/*
 *
 */

int alt_dev_llist_insert (alt_dev_llist* dev, alt_llist* list)
{
  80ffe4:	defffa04 	addi	sp,sp,-24
  80ffe8:	dfc00515 	stw	ra,20(sp)
  80ffec:	df000415 	stw	fp,16(sp)
  80fff0:	df000404 	addi	fp,sp,16
  80fff4:	e13ffe15 	stw	r4,-8(fp)
  80fff8:	e17fff15 	stw	r5,-4(fp)
  /*
   * check that the device exists, and that it has a valid name.
   */

  if (!dev || !dev->name)
  80fffc:	e0bffe17 	ldw	r2,-8(fp)
  810000:	10000326 	beq	r2,zero,810010 <alt_dev_llist_insert+0x2c>
  810004:	e0bffe17 	ldw	r2,-8(fp)
  810008:	10800217 	ldw	r2,8(r2)
  81000c:	1000061e 	bne	r2,zero,810028 <alt_dev_llist_insert+0x44>
  {
    ALT_ERRNO = EINVAL;
  810010:	080ff940 	call	80ff94 <alt_get_errno>
  810014:	1007883a 	mov	r3,r2
  810018:	00800584 	movi	r2,22
  81001c:	18800015 	stw	r2,0(r3)
    return -EINVAL;
  810020:	00bffa84 	movi	r2,-22
  810024:	00001306 	br	810074 <alt_dev_llist_insert+0x90>
  
  /*
   * register the device.
   */
  
  alt_llist_insert(list, &dev->llist);
  810028:	e0bffe17 	ldw	r2,-8(fp)
  81002c:	e0ffff17 	ldw	r3,-4(fp)
  810030:	e0fffc15 	stw	r3,-16(fp)
  810034:	e0bffd15 	stw	r2,-12(fp)
 */

static ALT_INLINE void ALT_ALWAYS_INLINE alt_llist_insert(alt_llist* list, 
                alt_llist* entry)
{
  entry->previous = list;
  810038:	e0bffd17 	ldw	r2,-12(fp)
  81003c:	e0fffc17 	ldw	r3,-16(fp)
  810040:	10c00115 	stw	r3,4(r2)
  entry->next     = list->next;
  810044:	e0bffc17 	ldw	r2,-16(fp)
  810048:	10c00017 	ldw	r3,0(r2)
  81004c:	e0bffd17 	ldw	r2,-12(fp)
  810050:	10c00015 	stw	r3,0(r2)

  list->next->previous = entry;
  810054:	e0bffc17 	ldw	r2,-16(fp)
  810058:	10800017 	ldw	r2,0(r2)
  81005c:	e0fffd17 	ldw	r3,-12(fp)
  810060:	10c00115 	stw	r3,4(r2)
  list->next           = entry;
  810064:	e0bffc17 	ldw	r2,-16(fp)
  810068:	e0fffd17 	ldw	r3,-12(fp)
  81006c:	10c00015 	stw	r3,0(r2)

  return 0;  
  810070:	0005883a 	mov	r2,zero
}
  810074:	e037883a 	mov	sp,fp
  810078:	dfc00117 	ldw	ra,4(sp)
  81007c:	df000017 	ldw	fp,0(sp)
  810080:	dec00204 	addi	sp,sp,8
  810084:	f800283a 	ret

00810088 <_do_ctors>:
/*
 * Run the C++ static constructors.
 */

void _do_ctors(void)
{
  810088:	defffd04 	addi	sp,sp,-12
  81008c:	dfc00215 	stw	ra,8(sp)
  810090:	df000115 	stw	fp,4(sp)
  810094:	df000104 	addi	fp,sp,4
  constructor* ctor;

  for (ctor = &__CTOR_END__[-1]; ctor >= __CTOR_LIST__; ctor--)
  810098:	00802074 	movhi	r2,129
  81009c:	10843304 	addi	r2,r2,4300
  8100a0:	e0bfff15 	stw	r2,-4(fp)
  8100a4:	00000606 	br	8100c0 <_do_ctors+0x38>
        (*ctor) (); 
  8100a8:	e0bfff17 	ldw	r2,-4(fp)
  8100ac:	10800017 	ldw	r2,0(r2)
  8100b0:	103ee83a 	callr	r2

void _do_ctors(void)
{
  constructor* ctor;

  for (ctor = &__CTOR_END__[-1]; ctor >= __CTOR_LIST__; ctor--)
  8100b4:	e0bfff17 	ldw	r2,-4(fp)
  8100b8:	10bfff04 	addi	r2,r2,-4
  8100bc:	e0bfff15 	stw	r2,-4(fp)
  8100c0:	e0ffff17 	ldw	r3,-4(fp)
  8100c4:	00802074 	movhi	r2,129
  8100c8:	10843404 	addi	r2,r2,4304
  8100cc:	18bff62e 	bgeu	r3,r2,8100a8 <__alt_data_end+0xff8100a8>
        (*ctor) (); 
}
  8100d0:	e037883a 	mov	sp,fp
  8100d4:	dfc00117 	ldw	ra,4(sp)
  8100d8:	df000017 	ldw	fp,0(sp)
  8100dc:	dec00204 	addi	sp,sp,8
  8100e0:	f800283a 	ret

008100e4 <_do_dtors>:
/*
 * Run the C++ static destructors.
 */

void _do_dtors(void)
{
  8100e4:	defffd04 	addi	sp,sp,-12
  8100e8:	dfc00215 	stw	ra,8(sp)
  8100ec:	df000115 	stw	fp,4(sp)
  8100f0:	df000104 	addi	fp,sp,4
  destructor* dtor;

  for (dtor = &__DTOR_END__[-1]; dtor >= __DTOR_LIST__; dtor--)
  8100f4:	00802074 	movhi	r2,129
  8100f8:	10843304 	addi	r2,r2,4300
  8100fc:	e0bfff15 	stw	r2,-4(fp)
  810100:	00000606 	br	81011c <_do_dtors+0x38>
        (*dtor) (); 
  810104:	e0bfff17 	ldw	r2,-4(fp)
  810108:	10800017 	ldw	r2,0(r2)
  81010c:	103ee83a 	callr	r2

void _do_dtors(void)
{
  destructor* dtor;

  for (dtor = &__DTOR_END__[-1]; dtor >= __DTOR_LIST__; dtor--)
  810110:	e0bfff17 	ldw	r2,-4(fp)
  810114:	10bfff04 	addi	r2,r2,-4
  810118:	e0bfff15 	stw	r2,-4(fp)
  81011c:	e0ffff17 	ldw	r3,-4(fp)
  810120:	00802074 	movhi	r2,129
  810124:	10843404 	addi	r2,r2,4304
  810128:	18bff62e 	bgeu	r3,r2,810104 <__alt_data_end+0xff810104>
        (*dtor) (); 
}
  81012c:	e037883a 	mov	sp,fp
  810130:	dfc00117 	ldw	ra,4(sp)
  810134:	df000017 	ldw	fp,0(sp)
  810138:	dec00204 	addi	sp,sp,8
  81013c:	f800283a 	ret

00810140 <alt_find_dev>:
 * "name" must be an exact match for the devices registered name for a match to
 * be found.
 */
 
alt_dev* alt_find_dev(const char* name, alt_llist* llist)
{
  810140:	defffa04 	addi	sp,sp,-24
  810144:	dfc00515 	stw	ra,20(sp)
  810148:	df000415 	stw	fp,16(sp)
  81014c:	df000404 	addi	fp,sp,16
  810150:	e13ffe15 	stw	r4,-8(fp)
  810154:	e17fff15 	stw	r5,-4(fp)
  alt_dev* next = (alt_dev*) llist->next;
  810158:	e0bfff17 	ldw	r2,-4(fp)
  81015c:	10800017 	ldw	r2,0(r2)
  810160:	e0bffc15 	stw	r2,-16(fp)
  alt_32 len;

  len  = strlen(name) + 1;
  810164:	e13ffe17 	ldw	r4,-8(fp)
  810168:	080a4480 	call	80a448 <strlen>
  81016c:	10800044 	addi	r2,r2,1
  810170:	e0bffd15 	stw	r2,-12(fp)
  /*
   * Check each list entry in turn, until a match is found, or we reach the
   * end of the list (i.e. next winds up pointing back to the list head).
   */ 

  while (next != (alt_dev*) llist)
  810174:	00000d06 	br	8101ac <alt_find_dev+0x6c>
    /* 
     * memcmp() is used here rather than strcmp() in order to reduce the size
     * of the executable.
     */

    if (!memcmp (next->name, name, len))
  810178:	e0bffc17 	ldw	r2,-16(fp)
  81017c:	10c00217 	ldw	r3,8(r2)
  810180:	e0bffd17 	ldw	r2,-12(fp)
  810184:	1809883a 	mov	r4,r3
  810188:	e17ffe17 	ldw	r5,-8(fp)
  81018c:	100d883a 	mov	r6,r2
  810190:	0810c400 	call	810c40 <memcmp>
  810194:	1000021e 	bne	r2,zero,8101a0 <alt_find_dev+0x60>
    {
      /* match found */

      return next;
  810198:	e0bffc17 	ldw	r2,-16(fp)
  81019c:	00000706 	br	8101bc <alt_find_dev+0x7c>
    }
    next = (alt_dev*) next->llist.next;
  8101a0:	e0bffc17 	ldw	r2,-16(fp)
  8101a4:	10800017 	ldw	r2,0(r2)
  8101a8:	e0bffc15 	stw	r2,-16(fp)
  /*
   * Check each list entry in turn, until a match is found, or we reach the
   * end of the list (i.e. next winds up pointing back to the list head).
   */ 

  while (next != (alt_dev*) llist)
  8101ac:	e0fffc17 	ldw	r3,-16(fp)
  8101b0:	e0bfff17 	ldw	r2,-4(fp)
  8101b4:	18bff01e 	bne	r3,r2,810178 <__alt_data_end+0xff810178>
    next = (alt_dev*) next->llist.next;
  }
  
  /* No match found */
  
  return NULL;
  8101b8:	0005883a 	mov	r2,zero
}
  8101bc:	e037883a 	mov	sp,fp
  8101c0:	dfc00117 	ldw	ra,4(sp)
  8101c4:	df000017 	ldw	fp,0(sp)
  8101c8:	dec00204 	addi	sp,sp,8
  8101cc:	f800283a 	ret

008101d0 <alt_icache_flush_all>:
/*
 * alt_icache_flush_all() is called to flush the entire instruction cache.
 */

void alt_icache_flush_all (void)
{
  8101d0:	defffe04 	addi	sp,sp,-8
  8101d4:	dfc00115 	stw	ra,4(sp)
  8101d8:	df000015 	stw	fp,0(sp)
  8101dc:	d839883a 	mov	fp,sp
#if NIOS2_ICACHE_SIZE > 0
  alt_icache_flush (0, NIOS2_ICACHE_SIZE);
  8101e0:	0009883a 	mov	r4,zero
  8101e4:	01440004 	movi	r5,4096
  8101e8:	0810acc0 	call	810acc <alt_icache_flush>
#endif
}
  8101ec:	e037883a 	mov	sp,fp
  8101f0:	dfc00117 	ldw	ra,4(sp)
  8101f4:	df000017 	ldw	fp,0(sp)
  8101f8:	dec00204 	addi	sp,sp,8
  8101fc:	f800283a 	ret

00810200 <alt_open_fd>:
 * If the device can not be succesfully opened, then the input file descriptor
 * remains unchanged.
 */

static void alt_open_fd(alt_fd* fd, const char* name, int flags, int mode)
{
  810200:	defff904 	addi	sp,sp,-28
  810204:	dfc00615 	stw	ra,24(sp)
  810208:	df000515 	stw	fp,20(sp)
  81020c:	df000504 	addi	fp,sp,20
  810210:	e13ffc15 	stw	r4,-16(fp)
  810214:	e17ffd15 	stw	r5,-12(fp)
  810218:	e1bffe15 	stw	r6,-8(fp)
  81021c:	e1ffff15 	stw	r7,-4(fp)
  int old;

  old = open (name, flags, mode);
  810220:	e13ffd17 	ldw	r4,-12(fp)
  810224:	e17ffe17 	ldw	r5,-8(fp)
  810228:	e1bfff17 	ldw	r6,-4(fp)
  81022c:	08106040 	call	810604 <open>
  810230:	e0bffb15 	stw	r2,-20(fp)

  if (old >= 0)
  810234:	e0bffb17 	ldw	r2,-20(fp)
  810238:	10001c16 	blt	r2,zero,8102ac <alt_open_fd+0xac>
  {
    fd->dev      = alt_fd_list[old].dev;
  81023c:	00802074 	movhi	r2,129
  810240:	1088e004 	addi	r2,r2,9088
  810244:	e0fffb17 	ldw	r3,-20(fp)
  810248:	18c00324 	muli	r3,r3,12
  81024c:	10c5883a 	add	r2,r2,r3
  810250:	10c00017 	ldw	r3,0(r2)
  810254:	e0bffc17 	ldw	r2,-16(fp)
  810258:	10c00015 	stw	r3,0(r2)
    fd->priv     = alt_fd_list[old].priv;
  81025c:	00802074 	movhi	r2,129
  810260:	1088e004 	addi	r2,r2,9088
  810264:	e0fffb17 	ldw	r3,-20(fp)
  810268:	18c00324 	muli	r3,r3,12
  81026c:	18c00104 	addi	r3,r3,4
  810270:	10c5883a 	add	r2,r2,r3
  810274:	10c00017 	ldw	r3,0(r2)
  810278:	e0bffc17 	ldw	r2,-16(fp)
  81027c:	10c00115 	stw	r3,4(r2)
    fd->fd_flags = alt_fd_list[old].fd_flags;
  810280:	00802074 	movhi	r2,129
  810284:	1088e004 	addi	r2,r2,9088
  810288:	e0fffb17 	ldw	r3,-20(fp)
  81028c:	18c00324 	muli	r3,r3,12
  810290:	18c00204 	addi	r3,r3,8
  810294:	10c5883a 	add	r2,r2,r3
  810298:	10c00017 	ldw	r3,0(r2)
  81029c:	e0bffc17 	ldw	r2,-16(fp)
  8102a0:	10c00215 	stw	r3,8(r2)

    alt_release_fd (old);
  8102a4:	e13ffb17 	ldw	r4,-20(fp)
  8102a8:	080cfb40 	call	80cfb4 <alt_release_fd>
  }
} 
  8102ac:	e037883a 	mov	sp,fp
  8102b0:	dfc00117 	ldw	ra,4(sp)
  8102b4:	df000017 	ldw	fp,0(sp)
  8102b8:	dec00204 	addi	sp,sp,8
  8102bc:	f800283a 	ret

008102c0 <alt_io_redirect>:
 */
 
void alt_io_redirect(const char* stdout_dev, 
                     const char* stdin_dev, 
                     const char* stderr_dev)
{
  8102c0:	defffb04 	addi	sp,sp,-20
  8102c4:	dfc00415 	stw	ra,16(sp)
  8102c8:	df000315 	stw	fp,12(sp)
  8102cc:	df000304 	addi	fp,sp,12
  8102d0:	e13ffd15 	stw	r4,-12(fp)
  8102d4:	e17ffe15 	stw	r5,-8(fp)
  8102d8:	e1bfff15 	stw	r6,-4(fp)
  /* Redirect the channels */

  alt_open_fd (&alt_fd_list[STDOUT_FILENO], stdout_dev, O_WRONLY, 0777);
  8102dc:	01002074 	movhi	r4,129
  8102e0:	2108e304 	addi	r4,r4,9100
  8102e4:	e17ffd17 	ldw	r5,-12(fp)
  8102e8:	01800044 	movi	r6,1
  8102ec:	01c07fc4 	movi	r7,511
  8102f0:	08102000 	call	810200 <alt_open_fd>
  alt_open_fd (&alt_fd_list[STDIN_FILENO], stdin_dev, O_RDONLY, 0777);
  8102f4:	01002074 	movhi	r4,129
  8102f8:	2108e004 	addi	r4,r4,9088
  8102fc:	e17ffe17 	ldw	r5,-8(fp)
  810300:	000d883a 	mov	r6,zero
  810304:	01c07fc4 	movi	r7,511
  810308:	08102000 	call	810200 <alt_open_fd>
  alt_open_fd (&alt_fd_list[STDERR_FILENO], stderr_dev, O_WRONLY, 0777);
  81030c:	01002074 	movhi	r4,129
  810310:	2108e604 	addi	r4,r4,9112
  810314:	e17fff17 	ldw	r5,-4(fp)
  810318:	01800044 	movi	r6,1
  81031c:	01c07fc4 	movi	r7,511
  810320:	08102000 	call	810200 <alt_open_fd>
}  
  810324:	e037883a 	mov	sp,fp
  810328:	dfc00117 	ldw	ra,4(sp)
  81032c:	df000017 	ldw	fp,0(sp)
  810330:	dec00204 	addi	sp,sp,8
  810334:	f800283a 	ret

00810338 <alt_irq_register>:
 */
 
int alt_irq_register (alt_u32 id, 
                      void* context, 
                      alt_isr_func handler)
{
  810338:	defff004 	addi	sp,sp,-64
  81033c:	df000f15 	stw	fp,60(sp)
  810340:	df000f04 	addi	fp,sp,60
  810344:	e13ffd15 	stw	r4,-12(fp)
  810348:	e17ffe15 	stw	r5,-8(fp)
  81034c:	e1bfff15 	stw	r6,-4(fp)
  int rc = -EINVAL;  
  810350:	00bffa84 	movi	r2,-22
  810354:	e0bff115 	stw	r2,-60(fp)
  alt_irq_context status;

  if (id < ALT_NIRQ)
  810358:	e0bffd17 	ldw	r2,-12(fp)
  81035c:	10800828 	cmpgeui	r2,r2,32
  810360:	10005c1e 	bne	r2,zero,8104d4 <alt_irq_register+0x19c>
static ALT_INLINE alt_irq_context ALT_ALWAYS_INLINE 
       alt_irq_disable_all (void)
{
  alt_irq_context context;

  NIOS2_READ_STATUS (context);
  810364:	0005303a 	rdctl	r2,status
  810368:	e0bff315 	stw	r2,-52(fp)

  NIOS2_WRITE_STATUS (context & ~NIOS2_STATUS_PIE_MSK);
  81036c:	e0fff317 	ldw	r3,-52(fp)
  810370:	00bfff84 	movi	r2,-2
  810374:	1884703a 	and	r2,r3,r2
  810378:	1001703a 	wrctl	status,r2
  
  return context;
  81037c:	e0bff317 	ldw	r2,-52(fp)
     * interrupts are disabled while the handler tables are updated to ensure
     * that an interrupt doesn't occur while the tables are in an inconsistant
     * state.
     */

    status = alt_irq_disable_all ();
  810380:	e0bff215 	stw	r2,-56(fp)

    alt_irq[id].handler = handler;
  810384:	00802074 	movhi	r2,129
  810388:	1097bb04 	addi	r2,r2,24300
  81038c:	e0fffd17 	ldw	r3,-12(fp)
  810390:	180690fa 	slli	r3,r3,3
  810394:	10c5883a 	add	r2,r2,r3
  810398:	e0ffff17 	ldw	r3,-4(fp)
  81039c:	10c00015 	stw	r3,0(r2)
    alt_irq[id].context = context;
  8103a0:	00802074 	movhi	r2,129
  8103a4:	1097bb04 	addi	r2,r2,24300
  8103a8:	e0fffd17 	ldw	r3,-12(fp)
  8103ac:	180690fa 	slli	r3,r3,3
  8103b0:	18c00104 	addi	r3,r3,4
  8103b4:	10c5883a 	add	r2,r2,r3
  8103b8:	e0fffe17 	ldw	r3,-8(fp)
  8103bc:	10c00015 	stw	r3,0(r2)

    rc = (handler) ? alt_irq_enable (id): alt_irq_disable (id);
  8103c0:	e0bfff17 	ldw	r2,-4(fp)
  8103c4:	10001f26 	beq	r2,zero,810444 <alt_irq_register+0x10c>
  8103c8:	e0bffd17 	ldw	r2,-12(fp)
  8103cc:	e0bff415 	stw	r2,-48(fp)
static ALT_INLINE alt_irq_context ALT_ALWAYS_INLINE 
       alt_irq_disable_all (void)
{
  alt_irq_context context;

  NIOS2_READ_STATUS (context);
  8103d0:	0005303a 	rdctl	r2,status
  8103d4:	e0bff515 	stw	r2,-44(fp)

  NIOS2_WRITE_STATUS (context & ~NIOS2_STATUS_PIE_MSK);
  8103d8:	e0fff517 	ldw	r3,-44(fp)
  8103dc:	00bfff84 	movi	r2,-2
  8103e0:	1884703a 	and	r2,r3,r2
  8103e4:	1001703a 	wrctl	status,r2
  
  return context;
  8103e8:	e0bff517 	ldw	r2,-44(fp)
static ALT_INLINE int ALT_ALWAYS_INLINE alt_irq_enable (alt_u32 id)
{
  alt_irq_context  status;
  extern volatile alt_u32 alt_irq_active;

  status = alt_irq_disable_all ();
  8103ec:	e0bff615 	stw	r2,-40(fp)

  alt_irq_active |= (1 << id);
  8103f0:	e0bff417 	ldw	r2,-48(fp)
  8103f4:	00c00044 	movi	r3,1
  8103f8:	1884983a 	sll	r2,r3,r2
  8103fc:	1007883a 	mov	r3,r2
  810400:	00802074 	movhi	r2,129
  810404:	10953e04 	addi	r2,r2,21752
  810408:	10800017 	ldw	r2,0(r2)
  81040c:	1886b03a 	or	r3,r3,r2
  810410:	00802074 	movhi	r2,129
  810414:	10953e04 	addi	r2,r2,21752
  810418:	10c00015 	stw	r3,0(r2)
  NIOS2_WRITE_IENABLE (alt_irq_active);
  81041c:	00802074 	movhi	r2,129
  810420:	10953e04 	addi	r2,r2,21752
  810424:	10800017 	ldw	r2,0(r2)
  810428:	100170fa 	wrctl	ienable,r2
  81042c:	e0bff617 	ldw	r2,-40(fp)
  810430:	e0bff715 	stw	r2,-36(fp)
  status &= ~NIOS2_STATUS_PIE_MSK;
  status |= (context & NIOS2_STATUS_PIE_MSK);
  
  NIOS2_WRITE_STATUS (status);
#else
  NIOS2_WRITE_STATUS (context);
  810434:	e0bff717 	ldw	r2,-36(fp)
  810438:	1001703a 	wrctl	status,r2

  alt_irq_enable_all(status);

  return 0;
  81043c:	0005883a 	mov	r2,zero
  810440:	00001f06 	br	8104c0 <alt_irq_register+0x188>
  810444:	e0bffd17 	ldw	r2,-12(fp)
  810448:	e0bff815 	stw	r2,-32(fp)
static ALT_INLINE alt_irq_context ALT_ALWAYS_INLINE 
       alt_irq_disable_all (void)
{
  alt_irq_context context;

  NIOS2_READ_STATUS (context);
  81044c:	0005303a 	rdctl	r2,status
  810450:	e0bff915 	stw	r2,-28(fp)

  NIOS2_WRITE_STATUS (context & ~NIOS2_STATUS_PIE_MSK);
  810454:	e0fff917 	ldw	r3,-28(fp)
  810458:	00bfff84 	movi	r2,-2
  81045c:	1884703a 	and	r2,r3,r2
  810460:	1001703a 	wrctl	status,r2
  
  return context;
  810464:	e0bff917 	ldw	r2,-28(fp)
static ALT_INLINE int ALT_ALWAYS_INLINE alt_irq_disable (alt_u32 id)
{
  alt_irq_context  status;
  extern volatile alt_u32 alt_irq_active;

  status = alt_irq_disable_all ();
  810468:	e0bffa15 	stw	r2,-24(fp)

  alt_irq_active &= ~(1 << id);
  81046c:	e0bff817 	ldw	r2,-32(fp)
  810470:	00c00044 	movi	r3,1
  810474:	1884983a 	sll	r2,r3,r2
  810478:	0084303a 	nor	r2,zero,r2
  81047c:	1007883a 	mov	r3,r2
  810480:	00802074 	movhi	r2,129
  810484:	10953e04 	addi	r2,r2,21752
  810488:	10800017 	ldw	r2,0(r2)
  81048c:	1886703a 	and	r3,r3,r2
  810490:	00802074 	movhi	r2,129
  810494:	10953e04 	addi	r2,r2,21752
  810498:	10c00015 	stw	r3,0(r2)
  NIOS2_WRITE_IENABLE (alt_irq_active);
  81049c:	00802074 	movhi	r2,129
  8104a0:	10953e04 	addi	r2,r2,21752
  8104a4:	10800017 	ldw	r2,0(r2)
  8104a8:	100170fa 	wrctl	ienable,r2
  8104ac:	e0bffa17 	ldw	r2,-24(fp)
  8104b0:	e0bffb15 	stw	r2,-20(fp)
  status &= ~NIOS2_STATUS_PIE_MSK;
  status |= (context & NIOS2_STATUS_PIE_MSK);
  
  NIOS2_WRITE_STATUS (status);
#else
  NIOS2_WRITE_STATUS (context);
  8104b4:	e0bffb17 	ldw	r2,-20(fp)
  8104b8:	1001703a 	wrctl	status,r2

  alt_irq_enable_all(status);

  return 0;
  8104bc:	0005883a 	mov	r2,zero
  8104c0:	e0bff115 	stw	r2,-60(fp)
  8104c4:	e0bff217 	ldw	r2,-56(fp)
  8104c8:	e0bffc15 	stw	r2,-16(fp)
  8104cc:	e0bffc17 	ldw	r2,-16(fp)
  8104d0:	1001703a 	wrctl	status,r2

    alt_irq_enable_all(status);
  }
  return rc; 
  8104d4:	e0bff117 	ldw	r2,-60(fp)
}
  8104d8:	e037883a 	mov	sp,fp
  8104dc:	df000017 	ldw	fp,0(sp)
  8104e0:	dec00104 	addi	sp,sp,4
  8104e4:	f800283a 	ret

008104e8 <alt_get_errno>:
#undef errno

extern int errno;

static ALT_INLINE int* alt_get_errno(void)
{
  8104e8:	defffe04 	addi	sp,sp,-8
  8104ec:	dfc00115 	stw	ra,4(sp)
  8104f0:	df000015 	stw	fp,0(sp)
  8104f4:	d839883a 	mov	fp,sp
  return ((alt_errno) ? alt_errno() : &errno);
  8104f8:	00802074 	movhi	r2,129
  8104fc:	108df404 	addi	r2,r2,14288
  810500:	10800017 	ldw	r2,0(r2)
  810504:	10000526 	beq	r2,zero,81051c <alt_get_errno+0x34>
  810508:	00802074 	movhi	r2,129
  81050c:	108df404 	addi	r2,r2,14288
  810510:	10800017 	ldw	r2,0(r2)
  810514:	103ee83a 	callr	r2
  810518:	00000206 	br	810524 <alt_get_errno+0x3c>
  81051c:	00802074 	movhi	r2,129
  810520:	10953804 	addi	r2,r2,21728
}
  810524:	e037883a 	mov	sp,fp
  810528:	dfc00117 	ldw	ra,4(sp)
  81052c:	df000017 	ldw	fp,0(sp)
  810530:	dec00204 	addi	sp,sp,8
  810534:	f800283a 	ret

00810538 <alt_file_locked>:
 * performed for devices. Filesystems are required to handle the ioctl() call
 * themselves, and report the error from the filesystems open() function. 
 */ 

static int alt_file_locked (alt_fd* fd)
{
  810538:	defffd04 	addi	sp,sp,-12
  81053c:	df000215 	stw	fp,8(sp)
  810540:	df000204 	addi	fp,sp,8
  810544:	e13fff15 	stw	r4,-4(fp)

  /*
   * Mark the file descriptor as belonging to a device.
   */

  fd->fd_flags |= ALT_FD_DEV;
  810548:	e0bfff17 	ldw	r2,-4(fp)
  81054c:	10800217 	ldw	r2,8(r2)
  810550:	10d00034 	orhi	r3,r2,16384
  810554:	e0bfff17 	ldw	r2,-4(fp)
  810558:	10c00215 	stw	r3,8(r2)
  /*
   * Loop through all current file descriptors searching for one that's locked
   * for exclusive access. If a match is found, generate an error.
   */

  for (i = 0; i <= alt_max_fd; i++)
  81055c:	e03ffe15 	stw	zero,-8(fp)
  810560:	00001d06 	br	8105d8 <alt_file_locked+0xa0>
  {
    if ((alt_fd_list[i].dev == fd->dev) &&
  810564:	00802074 	movhi	r2,129
  810568:	1088e004 	addi	r2,r2,9088
  81056c:	e0fffe17 	ldw	r3,-8(fp)
  810570:	18c00324 	muli	r3,r3,12
  810574:	10c5883a 	add	r2,r2,r3
  810578:	10c00017 	ldw	r3,0(r2)
  81057c:	e0bfff17 	ldw	r2,-4(fp)
  810580:	10800017 	ldw	r2,0(r2)
  810584:	1880111e 	bne	r3,r2,8105cc <alt_file_locked+0x94>
        (alt_fd_list[i].fd_flags & ALT_FD_EXCL) &&
  810588:	00802074 	movhi	r2,129
  81058c:	1088e004 	addi	r2,r2,9088
  810590:	e0fffe17 	ldw	r3,-8(fp)
  810594:	18c00324 	muli	r3,r3,12
  810598:	18c00204 	addi	r3,r3,8
  81059c:	10c5883a 	add	r2,r2,r3
  8105a0:	10800017 	ldw	r2,0(r2)
   * for exclusive access. If a match is found, generate an error.
   */

  for (i = 0; i <= alt_max_fd; i++)
  {
    if ((alt_fd_list[i].dev == fd->dev) &&
  8105a4:	1000090e 	bge	r2,zero,8105cc <alt_file_locked+0x94>
        (alt_fd_list[i].fd_flags & ALT_FD_EXCL) &&
        (&alt_fd_list[i] != fd))
  8105a8:	e0bffe17 	ldw	r2,-8(fp)
  8105ac:	10c00324 	muli	r3,r2,12
  8105b0:	00802074 	movhi	r2,129
  8105b4:	1088e004 	addi	r2,r2,9088
  8105b8:	1887883a 	add	r3,r3,r2
   */

  for (i = 0; i <= alt_max_fd; i++)
  {
    if ((alt_fd_list[i].dev == fd->dev) &&
        (alt_fd_list[i].fd_flags & ALT_FD_EXCL) &&
  8105bc:	e0bfff17 	ldw	r2,-4(fp)
  8105c0:	18800226 	beq	r3,r2,8105cc <alt_file_locked+0x94>
        (&alt_fd_list[i] != fd))
    {
      return -EACCES;
  8105c4:	00bffcc4 	movi	r2,-13
  8105c8:	00000a06 	br	8105f4 <alt_file_locked+0xbc>
  /*
   * Loop through all current file descriptors searching for one that's locked
   * for exclusive access. If a match is found, generate an error.
   */

  for (i = 0; i <= alt_max_fd; i++)
  8105cc:	e0bffe17 	ldw	r2,-8(fp)
  8105d0:	10800044 	addi	r2,r2,1
  8105d4:	e0bffe15 	stw	r2,-8(fp)
  8105d8:	00802074 	movhi	r2,129
  8105dc:	108df304 	addi	r2,r2,14284
  8105e0:	10800017 	ldw	r2,0(r2)
  8105e4:	1007883a 	mov	r3,r2
  8105e8:	e0bffe17 	ldw	r2,-8(fp)
  8105ec:	18bfdd2e 	bgeu	r3,r2,810564 <__alt_data_end+0xff810564>
    }
  }
  
  /* The device is not locked */
 
  return 0;
  8105f0:	0005883a 	mov	r2,zero
}
  8105f4:	e037883a 	mov	sp,fp
  8105f8:	df000017 	ldw	fp,0(sp)
  8105fc:	dec00104 	addi	sp,sp,4
  810600:	f800283a 	ret

00810604 <open>:
 *
 * ALT_OPEN is mapped onto the open() system call in alt_syscall.h
 */
 
int ALT_OPEN (const char* file, int flags, int mode)
{ 
  810604:	defff604 	addi	sp,sp,-40
  810608:	dfc00915 	stw	ra,36(sp)
  81060c:	df000815 	stw	fp,32(sp)
  810610:	df000804 	addi	fp,sp,32
  810614:	e13ffd15 	stw	r4,-12(fp)
  810618:	e17ffe15 	stw	r5,-8(fp)
  81061c:	e1bfff15 	stw	r6,-4(fp)
  alt_dev* dev;
  alt_fd*  fd;
  int index  = -1;
  810620:	00bfffc4 	movi	r2,-1
  810624:	e0bff915 	stw	r2,-28(fp)
  int status = -ENODEV;
  810628:	00bffb44 	movi	r2,-19
  81062c:	e0bffa15 	stw	r2,-24(fp)
  int isafs = 0;
  810630:	e03ffb15 	stw	zero,-20(fp)
  /* 
   * Check the device list, to see if a device with a matching name is 
   * registered.
   */
  
  if (!(dev = alt_find_dev (file, &alt_dev_list)))
  810634:	e13ffd17 	ldw	r4,-12(fp)
  810638:	01402074 	movhi	r5,129
  81063c:	294df104 	addi	r5,r5,14276
  810640:	08101400 	call	810140 <alt_find_dev>
  810644:	e0bff815 	stw	r2,-32(fp)
  810648:	e0bff817 	ldw	r2,-32(fp)
  81064c:	1000051e 	bne	r2,zero,810664 <open+0x60>
  {
    /* No matching device, so try the filesystem list */

    dev   = alt_find_file (file);
  810650:	e13ffd17 	ldw	r4,-12(fp)
  810654:	08109040 	call	810904 <alt_find_file>
  810658:	e0bff815 	stw	r2,-32(fp)
    isafs = 1;
  81065c:	00800044 	movi	r2,1
  810660:	e0bffb15 	stw	r2,-20(fp)

  /* 
   * If a matching device or filesystem is found, allocate a file descriptor. 
   */

  if (dev)
  810664:	e0bff817 	ldw	r2,-32(fp)
  810668:	10002926 	beq	r2,zero,810710 <open+0x10c>
  {
    if ((index = alt_get_fd (dev)) < 0)
  81066c:	e13ff817 	ldw	r4,-32(fp)
  810670:	0810a180 	call	810a18 <alt_get_fd>
  810674:	e0bff915 	stw	r2,-28(fp)
  810678:	e0bff917 	ldw	r2,-28(fp)
  81067c:	1000030e 	bge	r2,zero,81068c <open+0x88>
    {
      status = index;
  810680:	e0bff917 	ldw	r2,-28(fp)
  810684:	e0bffa15 	stw	r2,-24(fp)
  810688:	00002306 	br	810718 <open+0x114>
    }
    else
    {
      fd = &alt_fd_list[index];
  81068c:	e0bff917 	ldw	r2,-28(fp)
  810690:	10c00324 	muli	r3,r2,12
  810694:	00802074 	movhi	r2,129
  810698:	1088e004 	addi	r2,r2,9088
  81069c:	1885883a 	add	r2,r3,r2
  8106a0:	e0bffc15 	stw	r2,-16(fp)
      fd->fd_flags = (flags & ~ALT_FD_FLAGS_MASK);
  8106a4:	e0fffe17 	ldw	r3,-8(fp)
  8106a8:	00900034 	movhi	r2,16384
  8106ac:	10bfffc4 	addi	r2,r2,-1
  8106b0:	1886703a 	and	r3,r3,r2
  8106b4:	e0bffc17 	ldw	r2,-16(fp)
  8106b8:	10c00215 	stw	r3,8(r2)
      
      /* If this is a device, ensure it isn't already locked */

      if (isafs || ((status = alt_file_locked (fd)) >= 0))
  8106bc:	e0bffb17 	ldw	r2,-20(fp)
  8106c0:	1000051e 	bne	r2,zero,8106d8 <open+0xd4>
  8106c4:	e13ffc17 	ldw	r4,-16(fp)
  8106c8:	08105380 	call	810538 <alt_file_locked>
  8106cc:	e0bffa15 	stw	r2,-24(fp)
  8106d0:	e0bffa17 	ldw	r2,-24(fp)
  8106d4:	10001016 	blt	r2,zero,810718 <open+0x114>
        /* 
         * If the device or filesystem provides an open() callback function,
         * call it now to perform any device/filesystem specific operations.
         */
    
        status = (dev->open) ? dev->open(fd, file, flags, mode): 0;
  8106d8:	e0bff817 	ldw	r2,-32(fp)
  8106dc:	10800317 	ldw	r2,12(r2)
  8106e0:	10000826 	beq	r2,zero,810704 <open+0x100>
  8106e4:	e0bff817 	ldw	r2,-32(fp)
  8106e8:	10800317 	ldw	r2,12(r2)
  8106ec:	e13ffc17 	ldw	r4,-16(fp)
  8106f0:	e17ffd17 	ldw	r5,-12(fp)
  8106f4:	e1bffe17 	ldw	r6,-8(fp)
  8106f8:	e1ffff17 	ldw	r7,-4(fp)
  8106fc:	103ee83a 	callr	r2
  810700:	00000106 	br	810708 <open+0x104>
  810704:	0005883a 	mov	r2,zero
  810708:	e0bffa15 	stw	r2,-24(fp)
  81070c:	00000206 	br	810718 <open+0x114>
      }
    }
  }
  else
  {
    status = -ENODEV;
  810710:	00bffb44 	movi	r2,-19
  810714:	e0bffa15 	stw	r2,-24(fp)
  }

  /* Allocation failed, so clean up and return an error */ 

  if (status < 0)
  810718:	e0bffa17 	ldw	r2,-24(fp)
  81071c:	1000090e 	bge	r2,zero,810744 <open+0x140>
  {
    alt_release_fd (index);  
  810720:	e13ff917 	ldw	r4,-28(fp)
  810724:	080cfb40 	call	80cfb4 <alt_release_fd>
    ALT_ERRNO = -status;
  810728:	08104e80 	call	8104e8 <alt_get_errno>
  81072c:	1007883a 	mov	r3,r2
  810730:	e0bffa17 	ldw	r2,-24(fp)
  810734:	0085c83a 	sub	r2,zero,r2
  810738:	18800015 	stw	r2,0(r3)
    return -1;
  81073c:	00bfffc4 	movi	r2,-1
  810740:	00000106 	br	810748 <open+0x144>
  }
  
  /* return the reference upon success */

  return index;
  810744:	e0bff917 	ldw	r2,-28(fp)
}
  810748:	e037883a 	mov	sp,fp
  81074c:	dfc00117 	ldw	ra,4(sp)
  810750:	df000017 	ldw	fp,0(sp)
  810754:	dec00204 	addi	sp,sp,8
  810758:	f800283a 	ret

0081075c <usleep>:
#if defined (__GNUC__) && __GNUC__ >= 4
int ALT_USLEEP (useconds_t us)
#else
unsigned int ALT_USLEEP (unsigned int us)
#endif
{
  81075c:	defffd04 	addi	sp,sp,-12
  810760:	dfc00215 	stw	ra,8(sp)
  810764:	df000115 	stw	fp,4(sp)
  810768:	df000104 	addi	fp,sp,4
  81076c:	e13fff15 	stw	r4,-4(fp)
  return alt_busy_sleep(us);
  810770:	e13fff17 	ldw	r4,-4(fp)
  810774:	08107ac0 	call	8107ac <alt_busy_sleep>
}
  810778:	e037883a 	mov	sp,fp
  81077c:	dfc00117 	ldw	ra,4(sp)
  810780:	df000017 	ldw	fp,0(sp)
  810784:	dec00204 	addi	sp,sp,8
  810788:	f800283a 	ret

0081078c <altera_nios2_gen2_irq_init>:
/*
 * To initialize the internal interrupt controller, just clear the IENABLE
 * register so that all possible IRQs are disabled.
 */
void altera_nios2_gen2_irq_init(void) 
{
  81078c:	deffff04 	addi	sp,sp,-4
  810790:	df000015 	stw	fp,0(sp)
  810794:	d839883a 	mov	fp,sp
    NIOS2_WRITE_IENABLE(0);
  810798:	000170fa 	wrctl	ienable,zero
}
  81079c:	e037883a 	mov	sp,fp
  8107a0:	df000017 	ldw	fp,0(sp)
  8107a4:	dec00104 	addi	sp,sp,4
  8107a8:	f800283a 	ret

008107ac <alt_busy_sleep>:
#include "alt_types.h"

#include "priv/alt_busy_sleep.h"

unsigned int alt_busy_sleep (unsigned int us)
{
  8107ac:	defffa04 	addi	sp,sp,-24
  8107b0:	dfc00515 	stw	ra,20(sp)
  8107b4:	df000415 	stw	fp,16(sp)
  8107b8:	df000404 	addi	fp,sp,16
  8107bc:	e13fff15 	stw	r4,-4(fp)
  {
    cycles_per_loop = 9;
  }
  else  
  {
    cycles_per_loop = 3;
  8107c0:	008000c4 	movi	r2,3
  8107c4:	e0bffd15 	stw	r2,-12(fp)
  }
  

  big_loops = us / (INT_MAX/
  (ALT_CPU_FREQ/(cycles_per_loop * 1000000)));
  8107c8:	e0fffd17 	ldw	r3,-12(fp)
  8107cc:	008003f4 	movhi	r2,15
  8107d0:	10909004 	addi	r2,r2,16960
  8107d4:	1885383a 	mul	r2,r3,r2
  8107d8:	0100bef4 	movhi	r4,763
  8107dc:	213c2004 	addi	r4,r4,-3968
  8107e0:	100b883a 	mov	r5,r2
  8107e4:	080a0e40 	call	80a0e4 <__udivsi3>
  {
    cycles_per_loop = 3;
  }
  

  big_loops = us / (INT_MAX/
  8107e8:	01200034 	movhi	r4,32768
  8107ec:	213fffc4 	addi	r4,r4,-1
  8107f0:	100b883a 	mov	r5,r2
  8107f4:	080a0e40 	call	80a0e4 <__udivsi3>
  8107f8:	e13fff17 	ldw	r4,-4(fp)
  8107fc:	100b883a 	mov	r5,r2
  810800:	080a0e40 	call	80a0e4 <__udivsi3>
  810804:	e0bffe15 	stw	r2,-8(fp)
  (ALT_CPU_FREQ/(cycles_per_loop * 1000000)));

  if (big_loops)
  810808:	e0bffe17 	ldw	r2,-8(fp)
  81080c:	10002a26 	beq	r2,zero,8108b8 <alt_busy_sleep+0x10c>
  {
    for(i=0;i<big_loops;i++)
  810810:	e03ffc15 	stw	zero,-16(fp)
  810814:	00001706 	br	810874 <alt_busy_sleep+0xc8>
      /*
      * Do NOT Try to single step the asm statement below 
      * (single step will never return)
      * Step out of this function or set a breakpoint after the asm statements
      */
      __asm__ volatile (
  810818:	00a00034 	movhi	r2,32768
  81081c:	10bfffc4 	addi	r2,r2,-1
  810820:	10bfffc4 	addi	r2,r2,-1
  810824:	103ffe1e 	bne	r2,zero,810820 <__alt_data_end+0xff810820>
        "\n\t.pushsection .debug_alt_sim_info"
        "\n\t.int 4, 0, 0b, 1b"
        "\n\t.popsection"
        :: "r" (INT_MAX));
      us -= (INT_MAX/(ALT_CPU_FREQ/
      (cycles_per_loop * 1000000)));
  810828:	e0fffd17 	ldw	r3,-12(fp)
  81082c:	008003f4 	movhi	r2,15
  810830:	10909004 	addi	r2,r2,16960
  810834:	1885383a 	mul	r2,r3,r2
        "\n1:"
        "\n\t.pushsection .debug_alt_sim_info"
        "\n\t.int 4, 0, 0b, 1b"
        "\n\t.popsection"
        :: "r" (INT_MAX));
      us -= (INT_MAX/(ALT_CPU_FREQ/
  810838:	0100bef4 	movhi	r4,763
  81083c:	213c2004 	addi	r4,r4,-3968
  810840:	100b883a 	mov	r5,r2
  810844:	080a0e40 	call	80a0e4 <__udivsi3>
  810848:	01200034 	movhi	r4,32768
  81084c:	213fffc4 	addi	r4,r4,-1
  810850:	100b883a 	mov	r5,r2
  810854:	080a0e40 	call	80a0e4 <__udivsi3>
  810858:	1007883a 	mov	r3,r2
  81085c:	e0bfff17 	ldw	r2,-4(fp)
  810860:	10c5c83a 	sub	r2,r2,r3
  810864:	e0bfff15 	stw	r2,-4(fp)
  big_loops = us / (INT_MAX/
  (ALT_CPU_FREQ/(cycles_per_loop * 1000000)));

  if (big_loops)
  {
    for(i=0;i<big_loops;i++)
  810868:	e0bffc17 	ldw	r2,-16(fp)
  81086c:	10800044 	addi	r2,r2,1
  810870:	e0bffc15 	stw	r2,-16(fp)
  810874:	e0fffc17 	ldw	r3,-16(fp)
  810878:	e0bffe17 	ldw	r2,-8(fp)
  81087c:	18bfe616 	blt	r3,r2,810818 <__alt_data_end+0xff810818>
      "\n\tbne %0,zero,0b"
      "\n1:"
      "\n\t.pushsection .debug_alt_sim_info"
      "\n\t.int 4, 0, 0b, 1b"
      "\n\t.popsection"
      :: "r" (us*(ALT_CPU_FREQ/(cycles_per_loop * 1000000))));
  810880:	e0fffd17 	ldw	r3,-12(fp)
  810884:	008003f4 	movhi	r2,15
  810888:	10909004 	addi	r2,r2,16960
  81088c:	1885383a 	mul	r2,r3,r2
  810890:	0100bef4 	movhi	r4,763
  810894:	213c2004 	addi	r4,r4,-3968
  810898:	100b883a 	mov	r5,r2
  81089c:	080a0e40 	call	80a0e4 <__udivsi3>
  8108a0:	1007883a 	mov	r3,r2
  8108a4:	e0bfff17 	ldw	r2,-4(fp)
  8108a8:	1885383a 	mul	r2,r3,r2
    /*
    * Do NOT Try to single step the asm statement below 
    * (single step will never return)
    * Step out of this function or set a breakpoint after the asm statements
    */
    __asm__ volatile (
  8108ac:	10bfffc4 	addi	r2,r2,-1
  8108b0:	103ffe1e 	bne	r2,zero,8108ac <__alt_data_end+0xff8108ac>
  8108b4:	00000d06 	br	8108ec <alt_busy_sleep+0x140>
      "\n\tbgt %0,zero,0b"
      "\n1:"
      "\n\t.pushsection .debug_alt_sim_info"
      "\n\t.int 4, 0, 0b, 1b"
      "\n\t.popsection"
      :: "r" (us*(ALT_CPU_FREQ/(cycles_per_loop * 1000000))));
  8108b8:	e0fffd17 	ldw	r3,-12(fp)
  8108bc:	008003f4 	movhi	r2,15
  8108c0:	10909004 	addi	r2,r2,16960
  8108c4:	1885383a 	mul	r2,r3,r2
  8108c8:	0100bef4 	movhi	r4,763
  8108cc:	213c2004 	addi	r4,r4,-3968
  8108d0:	100b883a 	mov	r5,r2
  8108d4:	080a0e40 	call	80a0e4 <__udivsi3>
  8108d8:	1007883a 	mov	r3,r2
  8108dc:	e0bfff17 	ldw	r2,-4(fp)
  8108e0:	1885383a 	mul	r2,r3,r2
    /*
    * Do NOT Try to single step the asm statement below 
    * (single step will never return)
    * Step out of this function or set a breakpoint after the asm statements
    */
    __asm__ volatile (
  8108e4:	10bfffc4 	addi	r2,r2,-1
  8108e8:	00bffe16 	blt	zero,r2,8108e4 <__alt_data_end+0xff8108e4>
      "\n\t.int 4, 0, 0b, 1b"
      "\n\t.popsection"
      :: "r" (us*(ALT_CPU_FREQ/(cycles_per_loop * 1000000))));
  }
#endif /* #ifndef ALT_SIM_OPTIMIZE */
  return 0;
  8108ec:	0005883a 	mov	r2,zero
}
  8108f0:	e037883a 	mov	sp,fp
  8108f4:	dfc00117 	ldw	ra,4(sp)
  8108f8:	df000017 	ldw	fp,0(sp)
  8108fc:	dec00204 	addi	sp,sp,8
  810900:	f800283a 	ret

00810904 <alt_find_file>:
 * either '/' or '\0' is the prefix of the filename. For example the filename:
 * "/myfilesystem/junk.txt" would match: "/myfilesystem", but not: "/myfile". 
 */
 
alt_dev* alt_find_file (const char* name)
{
  810904:	defffb04 	addi	sp,sp,-20
  810908:	dfc00415 	stw	ra,16(sp)
  81090c:	df000315 	stw	fp,12(sp)
  810910:	df000304 	addi	fp,sp,12
  810914:	e13fff15 	stw	r4,-4(fp)
  alt_dev* next = (alt_dev*) alt_fs_list.next;   
  810918:	00802074 	movhi	r2,129
  81091c:	108def04 	addi	r2,r2,14268
  810920:	10800017 	ldw	r2,0(r2)
  810924:	e0bffd15 	stw	r2,-12(fp)
  /*
   * Check each list entry in turn, until a match is found, or we reach the
   * end of the list (i.e. next winds up pointing back to the list head).
   */ 
 
  while (next != (alt_dev*) &alt_fs_list)
  810928:	00003106 	br	8109f0 <alt_find_file+0xec>
  {
    len = strlen(next->name);
  81092c:	e0bffd17 	ldw	r2,-12(fp)
  810930:	10800217 	ldw	r2,8(r2)
  810934:	1009883a 	mov	r4,r2
  810938:	080a4480 	call	80a448 <strlen>
  81093c:	e0bffe15 	stw	r2,-8(fp)
    
    if (next->name[len-1] == '/')
  810940:	e0bffd17 	ldw	r2,-12(fp)
  810944:	10c00217 	ldw	r3,8(r2)
  810948:	e0bffe17 	ldw	r2,-8(fp)
  81094c:	10bfffc4 	addi	r2,r2,-1
  810950:	1885883a 	add	r2,r3,r2
  810954:	10800003 	ldbu	r2,0(r2)
  810958:	10803fcc 	andi	r2,r2,255
  81095c:	1080201c 	xori	r2,r2,128
  810960:	10bfe004 	addi	r2,r2,-128
  810964:	10800bd8 	cmpnei	r2,r2,47
  810968:	1000031e 	bne	r2,zero,810978 <alt_find_file+0x74>
    {
      len -= 1;
  81096c:	e0bffe17 	ldw	r2,-8(fp)
  810970:	10bfffc4 	addi	r2,r2,-1
  810974:	e0bffe15 	stw	r2,-8(fp)
    }

    if (((name[len] == '/') || (name[len] == '\0')) && 
  810978:	e0bffe17 	ldw	r2,-8(fp)
  81097c:	e0ffff17 	ldw	r3,-4(fp)
  810980:	1885883a 	add	r2,r3,r2
  810984:	10800003 	ldbu	r2,0(r2)
  810988:	10803fcc 	andi	r2,r2,255
  81098c:	1080201c 	xori	r2,r2,128
  810990:	10bfe004 	addi	r2,r2,-128
  810994:	10800be0 	cmpeqi	r2,r2,47
  810998:	1000081e 	bne	r2,zero,8109bc <alt_find_file+0xb8>
  81099c:	e0bffe17 	ldw	r2,-8(fp)
  8109a0:	e0ffff17 	ldw	r3,-4(fp)
  8109a4:	1885883a 	add	r2,r3,r2
  8109a8:	10800003 	ldbu	r2,0(r2)
  8109ac:	10803fcc 	andi	r2,r2,255
  8109b0:	1080201c 	xori	r2,r2,128
  8109b4:	10bfe004 	addi	r2,r2,-128
  8109b8:	10000a1e 	bne	r2,zero,8109e4 <alt_find_file+0xe0>
        !memcmp (next->name, name, len))
  8109bc:	e0bffd17 	ldw	r2,-12(fp)
  8109c0:	10c00217 	ldw	r3,8(r2)
  8109c4:	e0bffe17 	ldw	r2,-8(fp)
  8109c8:	1809883a 	mov	r4,r3
  8109cc:	e17fff17 	ldw	r5,-4(fp)
  8109d0:	100d883a 	mov	r6,r2
  8109d4:	0810c400 	call	810c40 <memcmp>
    if (next->name[len-1] == '/')
    {
      len -= 1;
    }

    if (((name[len] == '/') || (name[len] == '\0')) && 
  8109d8:	1000021e 	bne	r2,zero,8109e4 <alt_find_file+0xe0>
        !memcmp (next->name, name, len))
    {
      /* match found */

      return next;
  8109dc:	e0bffd17 	ldw	r2,-12(fp)
  8109e0:	00000806 	br	810a04 <alt_find_file+0x100>
    }
    next = (alt_dev*) next->llist.next;
  8109e4:	e0bffd17 	ldw	r2,-12(fp)
  8109e8:	10800017 	ldw	r2,0(r2)
  8109ec:	e0bffd15 	stw	r2,-12(fp)
  /*
   * Check each list entry in turn, until a match is found, or we reach the
   * end of the list (i.e. next winds up pointing back to the list head).
   */ 
 
  while (next != (alt_dev*) &alt_fs_list)
  8109f0:	e0fffd17 	ldw	r3,-12(fp)
  8109f4:	00802074 	movhi	r2,129
  8109f8:	108def04 	addi	r2,r2,14268
  8109fc:	18bfcb1e 	bne	r3,r2,81092c <__alt_data_end+0xff81092c>
    next = (alt_dev*) next->llist.next;
  }
  
  /* No match found */
  
  return NULL;     
  810a00:	0005883a 	mov	r2,zero
}
  810a04:	e037883a 	mov	sp,fp
  810a08:	dfc00117 	ldw	ra,4(sp)
  810a0c:	df000017 	ldw	fp,0(sp)
  810a10:	dec00204 	addi	sp,sp,8
  810a14:	f800283a 	ret

00810a18 <alt_get_fd>:
 * the offset of the file descriptor within the file descriptor array). A
 * negative value indicates failure.
 */

int alt_get_fd (alt_dev* dev)
{
  810a18:	defffc04 	addi	sp,sp,-16
  810a1c:	df000315 	stw	fp,12(sp)
  810a20:	df000304 	addi	fp,sp,12
  810a24:	e13fff15 	stw	r4,-4(fp)
  alt_32 i;
  int rc = -EMFILE;
  810a28:	00bffa04 	movi	r2,-24
  810a2c:	e0bffe15 	stw	r2,-8(fp)
   * indicates the highest file descriptor ever allocated. This is used to
   * improve efficency when searching the file descriptor list, and 
   * therefore reduce contention on the alt_fd_list_lock semaphore. 
   */

  for (i = 0; i < ALT_MAX_FD; i++)
  810a30:	e03ffd15 	stw	zero,-12(fp)
  810a34:	00001d06 	br	810aac <alt_get_fd+0x94>
  {
    if (!alt_fd_list[i].dev)
  810a38:	00802074 	movhi	r2,129
  810a3c:	1088e004 	addi	r2,r2,9088
  810a40:	e0fffd17 	ldw	r3,-12(fp)
  810a44:	18c00324 	muli	r3,r3,12
  810a48:	10c5883a 	add	r2,r2,r3
  810a4c:	10800017 	ldw	r2,0(r2)
  810a50:	1000131e 	bne	r2,zero,810aa0 <alt_get_fd+0x88>
    {
      alt_fd_list[i].dev = dev;
  810a54:	00802074 	movhi	r2,129
  810a58:	1088e004 	addi	r2,r2,9088
  810a5c:	e0fffd17 	ldw	r3,-12(fp)
  810a60:	18c00324 	muli	r3,r3,12
  810a64:	10c5883a 	add	r2,r2,r3
  810a68:	e0ffff17 	ldw	r3,-4(fp)
  810a6c:	10c00015 	stw	r3,0(r2)
      if (i > alt_max_fd)
  810a70:	00802074 	movhi	r2,129
  810a74:	108df304 	addi	r2,r2,14284
  810a78:	10c00017 	ldw	r3,0(r2)
  810a7c:	e0bffd17 	ldw	r2,-12(fp)
  810a80:	1880040e 	bge	r3,r2,810a94 <alt_get_fd+0x7c>
      {
        alt_max_fd = i;
  810a84:	00802074 	movhi	r2,129
  810a88:	108df304 	addi	r2,r2,14284
  810a8c:	e0fffd17 	ldw	r3,-12(fp)
  810a90:	10c00015 	stw	r3,0(r2)
      }
      rc = i;
  810a94:	e0bffd17 	ldw	r2,-12(fp)
  810a98:	e0bffe15 	stw	r2,-8(fp)
      goto alt_get_fd_exit;
  810a9c:	00000606 	br	810ab8 <alt_get_fd+0xa0>
   * indicates the highest file descriptor ever allocated. This is used to
   * improve efficency when searching the file descriptor list, and 
   * therefore reduce contention on the alt_fd_list_lock semaphore. 
   */

  for (i = 0; i < ALT_MAX_FD; i++)
  810aa0:	e0bffd17 	ldw	r2,-12(fp)
  810aa4:	10800044 	addi	r2,r2,1
  810aa8:	e0bffd15 	stw	r2,-12(fp)
  810aac:	e0bffd17 	ldw	r2,-12(fp)
  810ab0:	10800810 	cmplti	r2,r2,32
  810ab4:	103fe01e 	bne	r2,zero,810a38 <__alt_data_end+0xff810a38>
   * file descriptor pool.
   */

  ALT_SEM_POST(alt_fd_list_lock);

  return rc;
  810ab8:	e0bffe17 	ldw	r2,-8(fp)
}
  810abc:	e037883a 	mov	sp,fp
  810ac0:	df000017 	ldw	fp,0(sp)
  810ac4:	dec00104 	addi	sp,sp,4
  810ac8:	f800283a 	ret

00810acc <alt_icache_flush>:
 * alt_icache_flush() is called to flush the instruction cache for a memory
 * region of length "len" bytes, starting at address "start".
 */

void alt_icache_flush (void* start, alt_u32 len)
{
  810acc:	defffb04 	addi	sp,sp,-20
  810ad0:	df000415 	stw	fp,16(sp)
  810ad4:	df000404 	addi	fp,sp,16
  810ad8:	e13ffe15 	stw	r4,-8(fp)
  810adc:	e17fff15 	stw	r5,-4(fp)

  /*
   * This is the most we would ever need to flush.
   */
 
  if (len > NIOS2_ICACHE_SIZE)
  810ae0:	e0bfff17 	ldw	r2,-4(fp)
  810ae4:	10840070 	cmpltui	r2,r2,4097
  810ae8:	1000021e 	bne	r2,zero,810af4 <alt_icache_flush+0x28>
  {
    len = NIOS2_ICACHE_SIZE;
  810aec:	00840004 	movi	r2,4096
  810af0:	e0bfff15 	stw	r2,-4(fp)
  }

  end = ((char*) start) + len;
  810af4:	e0fffe17 	ldw	r3,-8(fp)
  810af8:	e0bfff17 	ldw	r2,-4(fp)
  810afc:	1885883a 	add	r2,r3,r2
  810b00:	e0bffd15 	stw	r2,-12(fp)

  for (i = start; i < end; i+= NIOS2_ICACHE_LINE_SIZE)
  810b04:	e0bffe17 	ldw	r2,-8(fp)
  810b08:	e0bffc15 	stw	r2,-16(fp)
  810b0c:	00000506 	br	810b24 <alt_icache_flush+0x58>
  { 
    __asm__ volatile ("flushi %0" :: "r" (i)); 
  810b10:	e0bffc17 	ldw	r2,-16(fp)
  810b14:	1000603a 	flushi	r2
    len = NIOS2_ICACHE_SIZE;
  }

  end = ((char*) start) + len;

  for (i = start; i < end; i+= NIOS2_ICACHE_LINE_SIZE)
  810b18:	e0bffc17 	ldw	r2,-16(fp)
  810b1c:	10800804 	addi	r2,r2,32
  810b20:	e0bffc15 	stw	r2,-16(fp)
  810b24:	e0fffc17 	ldw	r3,-16(fp)
  810b28:	e0bffd17 	ldw	r2,-12(fp)
  810b2c:	18bff836 	bltu	r3,r2,810b10 <__alt_data_end+0xff810b10>
   * For an unaligned flush request, we've got one more line left.
   * Note that this is dependent on NIOS2_ICACHE_LINE_SIZE to be a 
   * multiple of 2 (which it always is).
   */

  if (((alt_u32) start) & (NIOS2_ICACHE_LINE_SIZE - 1))
  810b30:	e0bffe17 	ldw	r2,-8(fp)
  810b34:	108007cc 	andi	r2,r2,31
  810b38:	10000226 	beq	r2,zero,810b44 <alt_icache_flush+0x78>
  {
    __asm__ volatile ("flushi %0" :: "r" (i));
  810b3c:	e0bffc17 	ldw	r2,-16(fp)
  810b40:	1000603a 	flushi	r2
  /* 
   * Having flushed the cache, flush any stale instructions in the 
   * pipeline 
   */

  __asm__ volatile ("flushp");
  810b44:	0000203a 	flushp

#endif /* NIOS2_ICACHE_SIZE > 0 */
}
  810b48:	e037883a 	mov	sp,fp
  810b4c:	df000017 	ldw	fp,0(sp)
  810b50:	dec00104 	addi	sp,sp,4
  810b54:	f800283a 	ret

00810b58 <alt_exception_cause_generated_bad_addr>:
 * Return: 1: BADADDR (bad_addr argument to handler) is valid
 *         0: BADADDR is not valid
 */
int 
alt_exception_cause_generated_bad_addr(alt_exception_cause cause)
{
  810b58:	defffe04 	addi	sp,sp,-8
  810b5c:	df000115 	stw	fp,4(sp)
  810b60:	df000104 	addi	fp,sp,4
  810b64:	e13fff15 	stw	r4,-4(fp)
  switch (cause) {
  810b68:	e0bfff17 	ldw	r2,-4(fp)
  810b6c:	10bffe84 	addi	r2,r2,-6
  810b70:	10c00428 	cmpgeui	r3,r2,16
  810b74:	18001a1e 	bne	r3,zero,810be0 <alt_exception_cause_generated_bad_addr+0x88>
  810b78:	100690ba 	slli	r3,r2,2
  810b7c:	00802074 	movhi	r2,129
  810b80:	1082e404 	addi	r2,r2,2960
  810b84:	1885883a 	add	r2,r3,r2
  810b88:	10800017 	ldw	r2,0(r2)
  810b8c:	1000683a 	jmp	r2
  810b90:	00810bd0 	cmplti	r2,zero,1071
  810b94:	00810bd0 	cmplti	r2,zero,1071
  810b98:	00810be0 	cmpeqi	r2,zero,1071
  810b9c:	00810be0 	cmpeqi	r2,zero,1071
  810ba0:	00810be0 	cmpeqi	r2,zero,1071
  810ba4:	00810bd0 	cmplti	r2,zero,1071
  810ba8:	00810bd8 	cmpnei	r2,zero,1071
  810bac:	00810be0 	cmpeqi	r2,zero,1071
  810bb0:	00810bd0 	cmplti	r2,zero,1071
  810bb4:	00810bd0 	cmplti	r2,zero,1071
  810bb8:	00810be0 	cmpeqi	r2,zero,1071
  810bbc:	00810bd0 	cmplti	r2,zero,1071
  810bc0:	00810bd8 	cmpnei	r2,zero,1071
  810bc4:	00810be0 	cmpeqi	r2,zero,1071
  810bc8:	00810be0 	cmpeqi	r2,zero,1071
  810bcc:	00810bd0 	cmplti	r2,zero,1071
  case NIOS2_EXCEPTION_MISALIGNED_TARGET_PC:
  case NIOS2_EXCEPTION_TLB_READ_PERM_VIOLATION:
  case NIOS2_EXCEPTION_TLB_WRITE_PERM_VIOLATION:
  case NIOS2_EXCEPTION_MPU_DATA_REGION_VIOLATION:
  case NIOS2_EXCEPTION_ECC_DATA_ERR:
    return 1;
  810bd0:	00800044 	movi	r2,1
  810bd4:	00000306 	br	810be4 <alt_exception_cause_generated_bad_addr+0x8c>

  case NIOS2_EXCEPTION_TLB_MISS:
  case NIOS2_EXCEPTION_ECC_TLB_ERR:
    return 0;
  810bd8:	0005883a 	mov	r2,zero
  810bdc:	00000106 	br	810be4 <alt_exception_cause_generated_bad_addr+0x8c>

  default:
    return 0;
  810be0:	0005883a 	mov	r2,zero
  }
}
  810be4:	e037883a 	mov	sp,fp
  810be8:	df000017 	ldw	fp,0(sp)
  810bec:	dec00104 	addi	sp,sp,4
  810bf0:	f800283a 	ret

00810bf4 <atexit>:
  810bf4:	200b883a 	mov	r5,r4
  810bf8:	000d883a 	mov	r6,zero
  810bfc:	0009883a 	mov	r4,zero
  810c00:	000f883a 	mov	r7,zero
  810c04:	0810df41 	jmpi	810df4 <__register_exitproc>

00810c08 <exit>:
  810c08:	defffe04 	addi	sp,sp,-8
  810c0c:	000b883a 	mov	r5,zero
  810c10:	dc000015 	stw	r16,0(sp)
  810c14:	dfc00115 	stw	ra,4(sp)
  810c18:	2021883a 	mov	r16,r4
  810c1c:	0810f080 	call	810f08 <__call_exitprocs>
  810c20:	00802074 	movhi	r2,129
  810c24:	108deb04 	addi	r2,r2,14252
  810c28:	11000017 	ldw	r4,0(r2)
  810c2c:	20800f17 	ldw	r2,60(r4)
  810c30:	10000126 	beq	r2,zero,810c38 <exit+0x30>
  810c34:	103ee83a 	callr	r2
  810c38:	8009883a 	mov	r4,r16
  810c3c:	081109c0 	call	81109c <_exit>

00810c40 <memcmp>:
  810c40:	01c000c4 	movi	r7,3
  810c44:	3980192e 	bgeu	r7,r6,810cac <memcmp+0x6c>
  810c48:	2144b03a 	or	r2,r4,r5
  810c4c:	11c4703a 	and	r2,r2,r7
  810c50:	10000f26 	beq	r2,zero,810c90 <memcmp+0x50>
  810c54:	20800003 	ldbu	r2,0(r4)
  810c58:	28c00003 	ldbu	r3,0(r5)
  810c5c:	10c0151e 	bne	r2,r3,810cb4 <memcmp+0x74>
  810c60:	31bfff84 	addi	r6,r6,-2
  810c64:	01ffffc4 	movi	r7,-1
  810c68:	00000406 	br	810c7c <memcmp+0x3c>
  810c6c:	20800003 	ldbu	r2,0(r4)
  810c70:	28c00003 	ldbu	r3,0(r5)
  810c74:	31bfffc4 	addi	r6,r6,-1
  810c78:	10c00e1e 	bne	r2,r3,810cb4 <memcmp+0x74>
  810c7c:	21000044 	addi	r4,r4,1
  810c80:	29400044 	addi	r5,r5,1
  810c84:	31fff91e 	bne	r6,r7,810c6c <__alt_data_end+0xff810c6c>
  810c88:	0005883a 	mov	r2,zero
  810c8c:	f800283a 	ret
  810c90:	20c00017 	ldw	r3,0(r4)
  810c94:	28800017 	ldw	r2,0(r5)
  810c98:	1880041e 	bne	r3,r2,810cac <memcmp+0x6c>
  810c9c:	31bfff04 	addi	r6,r6,-4
  810ca0:	21000104 	addi	r4,r4,4
  810ca4:	29400104 	addi	r5,r5,4
  810ca8:	39bff936 	bltu	r7,r6,810c90 <__alt_data_end+0xff810c90>
  810cac:	303fe91e 	bne	r6,zero,810c54 <__alt_data_end+0xff810c54>
  810cb0:	003ff506 	br	810c88 <__alt_data_end+0xff810c88>
  810cb4:	10c5c83a 	sub	r2,r2,r3
  810cb8:	f800283a 	ret

00810cbc <memcpy>:
  810cbc:	deffff04 	addi	sp,sp,-4
  810cc0:	dc000015 	stw	r16,0(sp)
  810cc4:	00c003c4 	movi	r3,15
  810cc8:	2005883a 	mov	r2,r4
  810ccc:	1980432e 	bgeu	r3,r6,810ddc <memcpy+0x120>
  810cd0:	2146b03a 	or	r3,r4,r5
  810cd4:	18c000cc 	andi	r3,r3,3
  810cd8:	1800421e 	bne	r3,zero,810de4 <memcpy+0x128>
  810cdc:	343ffc04 	addi	r16,r6,-16
  810ce0:	8020d13a 	srli	r16,r16,4
  810ce4:	28c00104 	addi	r3,r5,4
  810ce8:	23400104 	addi	r13,r4,4
  810cec:	801e913a 	slli	r15,r16,4
  810cf0:	2b000204 	addi	r12,r5,8
  810cf4:	22c00204 	addi	r11,r4,8
  810cf8:	7bc00504 	addi	r15,r15,20
  810cfc:	2a800304 	addi	r10,r5,12
  810d00:	22400304 	addi	r9,r4,12
  810d04:	2bdf883a 	add	r15,r5,r15
  810d08:	2811883a 	mov	r8,r5
  810d0c:	200f883a 	mov	r7,r4
  810d10:	41000017 	ldw	r4,0(r8)
  810d14:	39c00404 	addi	r7,r7,16
  810d18:	18c00404 	addi	r3,r3,16
  810d1c:	393ffc15 	stw	r4,-16(r7)
  810d20:	1bbffc17 	ldw	r14,-16(r3)
  810d24:	6b400404 	addi	r13,r13,16
  810d28:	5ac00404 	addi	r11,r11,16
  810d2c:	6bbffc15 	stw	r14,-16(r13)
  810d30:	63800017 	ldw	r14,0(r12)
  810d34:	4a400404 	addi	r9,r9,16
  810d38:	42000404 	addi	r8,r8,16
  810d3c:	5bbffc15 	stw	r14,-16(r11)
  810d40:	53800017 	ldw	r14,0(r10)
  810d44:	63000404 	addi	r12,r12,16
  810d48:	52800404 	addi	r10,r10,16
  810d4c:	4bbffc15 	stw	r14,-16(r9)
  810d50:	1bffef1e 	bne	r3,r15,810d10 <__alt_data_end+0xff810d10>
  810d54:	81c00044 	addi	r7,r16,1
  810d58:	380e913a 	slli	r7,r7,4
  810d5c:	310003cc 	andi	r4,r6,15
  810d60:	02c000c4 	movi	r11,3
  810d64:	11c7883a 	add	r3,r2,r7
  810d68:	29cb883a 	add	r5,r5,r7
  810d6c:	59001f2e 	bgeu	r11,r4,810dec <memcpy+0x130>
  810d70:	1813883a 	mov	r9,r3
  810d74:	2811883a 	mov	r8,r5
  810d78:	200f883a 	mov	r7,r4
  810d7c:	42800017 	ldw	r10,0(r8)
  810d80:	4a400104 	addi	r9,r9,4
  810d84:	39ffff04 	addi	r7,r7,-4
  810d88:	4abfff15 	stw	r10,-4(r9)
  810d8c:	42000104 	addi	r8,r8,4
  810d90:	59fffa36 	bltu	r11,r7,810d7c <__alt_data_end+0xff810d7c>
  810d94:	213fff04 	addi	r4,r4,-4
  810d98:	2008d0ba 	srli	r4,r4,2
  810d9c:	318000cc 	andi	r6,r6,3
  810da0:	21000044 	addi	r4,r4,1
  810da4:	2109883a 	add	r4,r4,r4
  810da8:	2109883a 	add	r4,r4,r4
  810dac:	1907883a 	add	r3,r3,r4
  810db0:	290b883a 	add	r5,r5,r4
  810db4:	30000626 	beq	r6,zero,810dd0 <memcpy+0x114>
  810db8:	198d883a 	add	r6,r3,r6
  810dbc:	29c00003 	ldbu	r7,0(r5)
  810dc0:	18c00044 	addi	r3,r3,1
  810dc4:	29400044 	addi	r5,r5,1
  810dc8:	19ffffc5 	stb	r7,-1(r3)
  810dcc:	19bffb1e 	bne	r3,r6,810dbc <__alt_data_end+0xff810dbc>
  810dd0:	dc000017 	ldw	r16,0(sp)
  810dd4:	dec00104 	addi	sp,sp,4
  810dd8:	f800283a 	ret
  810ddc:	2007883a 	mov	r3,r4
  810de0:	003ff406 	br	810db4 <__alt_data_end+0xff810db4>
  810de4:	2007883a 	mov	r3,r4
  810de8:	003ff306 	br	810db8 <__alt_data_end+0xff810db8>
  810dec:	200d883a 	mov	r6,r4
  810df0:	003ff006 	br	810db4 <__alt_data_end+0xff810db4>

00810df4 <__register_exitproc>:
  810df4:	00802074 	movhi	r2,129
  810df8:	defffa04 	addi	sp,sp,-24
  810dfc:	108deb04 	addi	r2,r2,14252
  810e00:	dc000315 	stw	r16,12(sp)
  810e04:	14000017 	ldw	r16,0(r2)
  810e08:	dc400415 	stw	r17,16(sp)
  810e0c:	dfc00515 	stw	ra,20(sp)
  810e10:	80805217 	ldw	r2,328(r16)
  810e14:	2023883a 	mov	r17,r4
  810e18:	10003626 	beq	r2,zero,810ef4 <__register_exitproc+0x100>
  810e1c:	10c00117 	ldw	r3,4(r2)
  810e20:	010007c4 	movi	r4,31
  810e24:	20c00e16 	blt	r4,r3,810e60 <__register_exitproc+0x6c>
  810e28:	1a400044 	addi	r9,r3,1
  810e2c:	8800211e 	bne	r17,zero,810eb4 <__register_exitproc+0xc0>
  810e30:	18c00084 	addi	r3,r3,2
  810e34:	18c7883a 	add	r3,r3,r3
  810e38:	18c7883a 	add	r3,r3,r3
  810e3c:	12400115 	stw	r9,4(r2)
  810e40:	10c7883a 	add	r3,r2,r3
  810e44:	19400015 	stw	r5,0(r3)
  810e48:	0005883a 	mov	r2,zero
  810e4c:	dfc00517 	ldw	ra,20(sp)
  810e50:	dc400417 	ldw	r17,16(sp)
  810e54:	dc000317 	ldw	r16,12(sp)
  810e58:	dec00604 	addi	sp,sp,24
  810e5c:	f800283a 	ret
  810e60:	00800034 	movhi	r2,0
  810e64:	10800004 	addi	r2,r2,0
  810e68:	10002526 	beq	r2,zero,810f00 <__register_exitproc+0x10c>
  810e6c:	01006404 	movi	r4,400
  810e70:	d9400015 	stw	r5,0(sp)
  810e74:	d9800115 	stw	r6,4(sp)
  810e78:	d9c00215 	stw	r7,8(sp)
  810e7c:	00000000 	call	0 <__alt_mem_sdram_0-0x800000>
  810e80:	d9400017 	ldw	r5,0(sp)
  810e84:	d9800117 	ldw	r6,4(sp)
  810e88:	d9c00217 	ldw	r7,8(sp)
  810e8c:	10001c26 	beq	r2,zero,810f00 <__register_exitproc+0x10c>
  810e90:	80c05217 	ldw	r3,328(r16)
  810e94:	10000115 	stw	zero,4(r2)
  810e98:	02400044 	movi	r9,1
  810e9c:	10c00015 	stw	r3,0(r2)
  810ea0:	80805215 	stw	r2,328(r16)
  810ea4:	10006215 	stw	zero,392(r2)
  810ea8:	10006315 	stw	zero,396(r2)
  810eac:	0007883a 	mov	r3,zero
  810eb0:	883fdf26 	beq	r17,zero,810e30 <__alt_data_end+0xff810e30>
  810eb4:	18d1883a 	add	r8,r3,r3
  810eb8:	4211883a 	add	r8,r8,r8
  810ebc:	1211883a 	add	r8,r2,r8
  810ec0:	41802215 	stw	r6,136(r8)
  810ec4:	01000044 	movi	r4,1
  810ec8:	11806217 	ldw	r6,392(r2)
  810ecc:	20c8983a 	sll	r4,r4,r3
  810ed0:	310cb03a 	or	r6,r6,r4
  810ed4:	11806215 	stw	r6,392(r2)
  810ed8:	41c04215 	stw	r7,264(r8)
  810edc:	01800084 	movi	r6,2
  810ee0:	89bfd31e 	bne	r17,r6,810e30 <__alt_data_end+0xff810e30>
  810ee4:	11806317 	ldw	r6,396(r2)
  810ee8:	3108b03a 	or	r4,r6,r4
  810eec:	11006315 	stw	r4,396(r2)
  810ef0:	003fcf06 	br	810e30 <__alt_data_end+0xff810e30>
  810ef4:	80805304 	addi	r2,r16,332
  810ef8:	80805215 	stw	r2,328(r16)
  810efc:	003fc706 	br	810e1c <__alt_data_end+0xff810e1c>
  810f00:	00bfffc4 	movi	r2,-1
  810f04:	003fd106 	br	810e4c <__alt_data_end+0xff810e4c>

00810f08 <__call_exitprocs>:
  810f08:	00802074 	movhi	r2,129
  810f0c:	108deb04 	addi	r2,r2,14252
  810f10:	10800017 	ldw	r2,0(r2)
  810f14:	defff404 	addi	sp,sp,-48
  810f18:	dd800815 	stw	r22,32(sp)
  810f1c:	d8800015 	stw	r2,0(sp)
  810f20:	10805204 	addi	r2,r2,328
  810f24:	dd000615 	stw	r20,24(sp)
  810f28:	dc800415 	stw	r18,16(sp)
  810f2c:	dfc00b15 	stw	ra,44(sp)
  810f30:	df000a15 	stw	fp,40(sp)
  810f34:	ddc00915 	stw	r23,36(sp)
  810f38:	dd400715 	stw	r21,28(sp)
  810f3c:	dcc00515 	stw	r19,20(sp)
  810f40:	dc400315 	stw	r17,12(sp)
  810f44:	dc000215 	stw	r16,8(sp)
  810f48:	2025883a 	mov	r18,r4
  810f4c:	2829883a 	mov	r20,r5
  810f50:	d8800115 	stw	r2,4(sp)
  810f54:	05bfffc4 	movi	r22,-1
  810f58:	d8800017 	ldw	r2,0(sp)
  810f5c:	14c05217 	ldw	r19,328(r2)
  810f60:	98001d26 	beq	r19,zero,810fd8 <__call_exitprocs+0xd0>
  810f64:	dd400117 	ldw	r21,4(sp)
  810f68:	98800117 	ldw	r2,4(r19)
  810f6c:	173fffc4 	addi	fp,r2,-1
  810f70:	e0000d16 	blt	fp,zero,810fa8 <__call_exitprocs+0xa0>
  810f74:	14000044 	addi	r16,r2,1
  810f78:	8421883a 	add	r16,r16,r16
  810f7c:	8421883a 	add	r16,r16,r16
  810f80:	84402004 	addi	r17,r16,128
  810f84:	9c63883a 	add	r17,r19,r17
  810f88:	9c21883a 	add	r16,r19,r16
  810f8c:	a0001e26 	beq	r20,zero,811008 <__call_exitprocs+0x100>
  810f90:	80804017 	ldw	r2,256(r16)
  810f94:	15001c26 	beq	r2,r20,811008 <__call_exitprocs+0x100>
  810f98:	e73fffc4 	addi	fp,fp,-1
  810f9c:	843fff04 	addi	r16,r16,-4
  810fa0:	8c7fff04 	addi	r17,r17,-4
  810fa4:	e5bff91e 	bne	fp,r22,810f8c <__alt_data_end+0xff810f8c>
  810fa8:	00800034 	movhi	r2,0
  810fac:	10800004 	addi	r2,r2,0
  810fb0:	10000926 	beq	r2,zero,810fd8 <__call_exitprocs+0xd0>
  810fb4:	98800117 	ldw	r2,4(r19)
  810fb8:	1000311e 	bne	r2,zero,811080 <__call_exitprocs+0x178>
  810fbc:	98800017 	ldw	r2,0(r19)
  810fc0:	10003426 	beq	r2,zero,811094 <__call_exitprocs+0x18c>
  810fc4:	9809883a 	mov	r4,r19
  810fc8:	a8800015 	stw	r2,0(r21)
  810fcc:	00000000 	call	0 <__alt_mem_sdram_0-0x800000>
  810fd0:	acc00017 	ldw	r19,0(r21)
  810fd4:	983fe41e 	bne	r19,zero,810f68 <__alt_data_end+0xff810f68>
  810fd8:	dfc00b17 	ldw	ra,44(sp)
  810fdc:	df000a17 	ldw	fp,40(sp)
  810fe0:	ddc00917 	ldw	r23,36(sp)
  810fe4:	dd800817 	ldw	r22,32(sp)
  810fe8:	dd400717 	ldw	r21,28(sp)
  810fec:	dd000617 	ldw	r20,24(sp)
  810ff0:	dcc00517 	ldw	r19,20(sp)
  810ff4:	dc800417 	ldw	r18,16(sp)
  810ff8:	dc400317 	ldw	r17,12(sp)
  810ffc:	dc000217 	ldw	r16,8(sp)
  811000:	dec00c04 	addi	sp,sp,48
  811004:	f800283a 	ret
  811008:	98800117 	ldw	r2,4(r19)
  81100c:	80c00017 	ldw	r3,0(r16)
  811010:	10bfffc4 	addi	r2,r2,-1
  811014:	17001526 	beq	r2,fp,81106c <__call_exitprocs+0x164>
  811018:	80000015 	stw	zero,0(r16)
  81101c:	183fde26 	beq	r3,zero,810f98 <__alt_data_end+0xff810f98>
  811020:	00800044 	movi	r2,1
  811024:	1708983a 	sll	r4,r2,fp
  811028:	98806217 	ldw	r2,392(r19)
  81102c:	9dc00117 	ldw	r23,4(r19)
  811030:	2084703a 	and	r2,r4,r2
  811034:	1000061e 	bne	r2,zero,811050 <__call_exitprocs+0x148>
  811038:	183ee83a 	callr	r3
  81103c:	98800117 	ldw	r2,4(r19)
  811040:	15ffc51e 	bne	r2,r23,810f58 <__alt_data_end+0xff810f58>
  811044:	a8800017 	ldw	r2,0(r21)
  811048:	14ffd326 	beq	r2,r19,810f98 <__alt_data_end+0xff810f98>
  81104c:	003fc206 	br	810f58 <__alt_data_end+0xff810f58>
  811050:	98806317 	ldw	r2,396(r19)
  811054:	2084703a 	and	r2,r4,r2
  811058:	1000061e 	bne	r2,zero,811074 <__call_exitprocs+0x16c>
  81105c:	89400017 	ldw	r5,0(r17)
  811060:	9009883a 	mov	r4,r18
  811064:	183ee83a 	callr	r3
  811068:	003ff406 	br	81103c <__alt_data_end+0xff81103c>
  81106c:	9f000115 	stw	fp,4(r19)
  811070:	003fea06 	br	81101c <__alt_data_end+0xff81101c>
  811074:	89000017 	ldw	r4,0(r17)
  811078:	183ee83a 	callr	r3
  81107c:	003fef06 	br	81103c <__alt_data_end+0xff81103c>
  811080:	98800017 	ldw	r2,0(r19)
  811084:	982b883a 	mov	r21,r19
  811088:	1027883a 	mov	r19,r2
  81108c:	983fb61e 	bne	r19,zero,810f68 <__alt_data_end+0xff810f68>
  811090:	003fd106 	br	810fd8 <__alt_data_end+0xff810fd8>
  811094:	0005883a 	mov	r2,zero
  811098:	003ffa06 	br	811084 <__alt_data_end+0xff811084>

0081109c <_exit>:
 *
 * ALT_EXIT is mapped onto the _exit() system call in alt_syscall.h
 */

void ALT_EXIT (int exit_code)
{
  81109c:	defffd04 	addi	sp,sp,-12
  8110a0:	df000215 	stw	fp,8(sp)
  8110a4:	df000204 	addi	fp,sp,8
  8110a8:	e13fff15 	stw	r4,-4(fp)
  ALT_LOG_PRINT_BOOT("[alt_exit.c] Entering _exit() function.\r\n");
  ALT_LOG_PRINT_BOOT("[alt_exit.c] Exit code from main was %d.\r\n",exit_code);
  /* Stop all other threads */

  ALT_LOG_PRINT_BOOT("[alt_exit.c] Calling ALT_OS_STOP().\r\n");
  ALT_OS_STOP();
  8110ac:	0001883a 	nop
  8110b0:	e0bfff17 	ldw	r2,-4(fp)
  8110b4:	e0bffe15 	stw	r2,-8(fp)
/*
 * Routine called on exit.
 */
static ALT_INLINE ALT_ALWAYS_INLINE void alt_sim_halt(int exit_code)
{
  register int r2 asm ("r2") = exit_code;
  8110b8:	e0bffe17 	ldw	r2,-8(fp)
  __asm__ volatile ("\n0:\n\taddi %0,%0, -1\n\tbgt %0,zero,0b" : : "r" (ALT_CPU_FREQ/100) ); /* Delay for >30ms */

  __asm__ volatile ("break 2" : : "r"(r2), "r"(r3) ALT_GMON_DATA );

#else /* !DEBUG_STUB */
  if (r2) {
  8110bc:	10000226 	beq	r2,zero,8110c8 <_exit+0x2c>
    ALT_SIM_FAIL();
  8110c0:	002af070 	cmpltui	zero,zero,43969
  8110c4:	00000106 	br	8110cc <_exit+0x30>
  } else {
    ALT_SIM_PASS();
  8110c8:	002af0b0 	cmpltui	zero,zero,43970
  ALT_SIM_HALT(exit_code);

  /* spin forever, since there's no where to go back to */

  ALT_LOG_PRINT_BOOT("[alt_exit.c] Spinning forever.\r\n");
  while (1);
  8110cc:	003fff06 	br	8110cc <__alt_data_end+0xff8110cc>
